ARM GAS  C:\Users\HANNAL~1\AppData\Local\Temp\ccMy6mI6.s 			page 1


   1              		.syntax unified
   2              		.cpu cortex-m3
   3              		.fpu softvfp
   4              		.eabi_attribute 20, 1
   5              		.eabi_attribute 21, 1
   6              		.eabi_attribute 23, 3
   7              		.eabi_attribute 24, 1
   8              		.eabi_attribute 25, 1
   9              		.eabi_attribute 26, 1
  10              		.eabi_attribute 30, 1
  11              		.eabi_attribute 34, 1
  12              		.eabi_attribute 18, 4
  13              		.thumb
  14              		.file	"cyfitter_cfg.c"
  15              		.text
  16              	.Ltext0:
  17              		.cfi_sections	.debug_frame
  18              		.section	.text.CyClockStartupError,"ax",%progbits
  19              		.align	2
  20              		.thumb
  21              		.thumb_func
  22              		.type	CyClockStartupError, %function
  23              	CyClockStartupError:
  24              	.LFB3:
  25              		.file 1 ".\\Generated_Source\\PSoC5\\cyfitter_cfg.c"
   1:.\Generated_Source\PSoC5/cyfitter_cfg.c **** /*******************************************************************************
   2:.\Generated_Source\PSoC5/cyfitter_cfg.c **** * File Name: cyfitter_cfg.c
   3:.\Generated_Source\PSoC5/cyfitter_cfg.c **** * 
   4:.\Generated_Source\PSoC5/cyfitter_cfg.c **** * PSoC Creator  3.3 CP2
   5:.\Generated_Source\PSoC5/cyfitter_cfg.c **** *
   6:.\Generated_Source\PSoC5/cyfitter_cfg.c **** * Description:
   7:.\Generated_Source\PSoC5/cyfitter_cfg.c **** * This file contains device initialization code.
   8:.\Generated_Source\PSoC5/cyfitter_cfg.c **** * Except for the user defined sections in CyClockStartupError(), this file should not be modified.
   9:.\Generated_Source\PSoC5/cyfitter_cfg.c **** * This file is automatically generated by PSoC Creator.
  10:.\Generated_Source\PSoC5/cyfitter_cfg.c **** *
  11:.\Generated_Source\PSoC5/cyfitter_cfg.c **** ********************************************************************************
  12:.\Generated_Source\PSoC5/cyfitter_cfg.c **** * Copyright (c) 2007-2015 Cypress Semiconductor.  All rights reserved.
  13:.\Generated_Source\PSoC5/cyfitter_cfg.c **** * You may use this file only in accordance with the license, terms, conditions, 
  14:.\Generated_Source\PSoC5/cyfitter_cfg.c **** * disclaimers, and limitations in the end user license agreement accompanying 
  15:.\Generated_Source\PSoC5/cyfitter_cfg.c **** * the software package with which this file was provided.
  16:.\Generated_Source\PSoC5/cyfitter_cfg.c **** ********************************************************************************/
  17:.\Generated_Source\PSoC5/cyfitter_cfg.c **** 
  18:.\Generated_Source\PSoC5/cyfitter_cfg.c **** #include <string.h>
  19:.\Generated_Source\PSoC5/cyfitter_cfg.c **** #include "cytypes.h"
  20:.\Generated_Source\PSoC5/cyfitter_cfg.c **** #include "cydevice_trm.h"
  21:.\Generated_Source\PSoC5/cyfitter_cfg.c **** #include "cyfitter.h"
  22:.\Generated_Source\PSoC5/cyfitter_cfg.c **** #include "CyLib.h"
  23:.\Generated_Source\PSoC5/cyfitter_cfg.c **** #include "cyfitter_cfg.h"
  24:.\Generated_Source\PSoC5/cyfitter_cfg.c **** 
  25:.\Generated_Source\PSoC5/cyfitter_cfg.c **** #define CY_NEED_CYCLOCKSTARTUPERROR 1
  26:.\Generated_Source\PSoC5/cyfitter_cfg.c **** 
  27:.\Generated_Source\PSoC5/cyfitter_cfg.c **** 
  28:.\Generated_Source\PSoC5/cyfitter_cfg.c **** #if defined(__GNUC__) || defined(__ARMCC_VERSION)
  29:.\Generated_Source\PSoC5/cyfitter_cfg.c ****     #define CYPACKED 
  30:.\Generated_Source\PSoC5/cyfitter_cfg.c ****     #define CYPACKED_ATTR __attribute__ ((packed))
  31:.\Generated_Source\PSoC5/cyfitter_cfg.c ****     #define CYALIGNED __attribute__ ((aligned))
  32:.\Generated_Source\PSoC5/cyfitter_cfg.c ****     #define CY_CFG_UNUSED __attribute__ ((unused))
ARM GAS  C:\Users\HANNAL~1\AppData\Local\Temp\ccMy6mI6.s 			page 2


  33:.\Generated_Source\PSoC5/cyfitter_cfg.c ****     #ifndef CY_CFG_SECTION
  34:.\Generated_Source\PSoC5/cyfitter_cfg.c ****         #define CY_CFG_SECTION __attribute__ ((section(".psocinit")))
  35:.\Generated_Source\PSoC5/cyfitter_cfg.c ****     #endif
  36:.\Generated_Source\PSoC5/cyfitter_cfg.c ****     
  37:.\Generated_Source\PSoC5/cyfitter_cfg.c ****     #if defined(__ARMCC_VERSION)
  38:.\Generated_Source\PSoC5/cyfitter_cfg.c ****         #define CY_CFG_MEMORY_BARRIER() __memory_changed()
  39:.\Generated_Source\PSoC5/cyfitter_cfg.c ****     #else
  40:.\Generated_Source\PSoC5/cyfitter_cfg.c ****         #define CY_CFG_MEMORY_BARRIER() __sync_synchronize()
  41:.\Generated_Source\PSoC5/cyfitter_cfg.c ****     #endif
  42:.\Generated_Source\PSoC5/cyfitter_cfg.c ****     
  43:.\Generated_Source\PSoC5/cyfitter_cfg.c **** #elif defined(__ICCARM__)
  44:.\Generated_Source\PSoC5/cyfitter_cfg.c ****     #include <intrinsics.h>
  45:.\Generated_Source\PSoC5/cyfitter_cfg.c **** 
  46:.\Generated_Source\PSoC5/cyfitter_cfg.c ****     #define CYPACKED __packed
  47:.\Generated_Source\PSoC5/cyfitter_cfg.c ****     #define CYPACKED_ATTR 
  48:.\Generated_Source\PSoC5/cyfitter_cfg.c ****     #define CYALIGNED _Pragma("data_alignment=4")
  49:.\Generated_Source\PSoC5/cyfitter_cfg.c ****     #define CY_CFG_UNUSED _Pragma("diag_suppress=Pe177")
  50:.\Generated_Source\PSoC5/cyfitter_cfg.c ****     #define CY_CFG_SECTION _Pragma("location=\".psocinit\"")
  51:.\Generated_Source\PSoC5/cyfitter_cfg.c ****     
  52:.\Generated_Source\PSoC5/cyfitter_cfg.c ****     #define CY_CFG_MEMORY_BARRIER() __DMB()
  53:.\Generated_Source\PSoC5/cyfitter_cfg.c ****     
  54:.\Generated_Source\PSoC5/cyfitter_cfg.c **** #else
  55:.\Generated_Source\PSoC5/cyfitter_cfg.c ****     #error Unsupported toolchain
  56:.\Generated_Source\PSoC5/cyfitter_cfg.c **** #endif
  57:.\Generated_Source\PSoC5/cyfitter_cfg.c **** 
  58:.\Generated_Source\PSoC5/cyfitter_cfg.c **** 
  59:.\Generated_Source\PSoC5/cyfitter_cfg.c **** CY_CFG_UNUSED
  60:.\Generated_Source\PSoC5/cyfitter_cfg.c **** static void CYMEMZERO(void *s, size_t n);
  61:.\Generated_Source\PSoC5/cyfitter_cfg.c **** CY_CFG_UNUSED
  62:.\Generated_Source\PSoC5/cyfitter_cfg.c **** static void CYMEMZERO(void *s, size_t n)
  63:.\Generated_Source\PSoC5/cyfitter_cfg.c **** {
  64:.\Generated_Source\PSoC5/cyfitter_cfg.c **** 	(void)memset(s, 0, n);
  65:.\Generated_Source\PSoC5/cyfitter_cfg.c **** }
  66:.\Generated_Source\PSoC5/cyfitter_cfg.c **** CY_CFG_UNUSED
  67:.\Generated_Source\PSoC5/cyfitter_cfg.c **** static void CYCONFIGCPY(void *dest, const void *src, size_t n);
  68:.\Generated_Source\PSoC5/cyfitter_cfg.c **** CY_CFG_UNUSED
  69:.\Generated_Source\PSoC5/cyfitter_cfg.c **** static void CYCONFIGCPY(void *dest, const void *src, size_t n)
  70:.\Generated_Source\PSoC5/cyfitter_cfg.c **** {
  71:.\Generated_Source\PSoC5/cyfitter_cfg.c **** 	(void)memcpy(dest, src, n);
  72:.\Generated_Source\PSoC5/cyfitter_cfg.c **** }
  73:.\Generated_Source\PSoC5/cyfitter_cfg.c **** CY_CFG_UNUSED
  74:.\Generated_Source\PSoC5/cyfitter_cfg.c **** static void CYCONFIGCPYCODE(void *dest, const void *src, size_t n);
  75:.\Generated_Source\PSoC5/cyfitter_cfg.c **** CY_CFG_UNUSED
  76:.\Generated_Source\PSoC5/cyfitter_cfg.c **** static void CYCONFIGCPYCODE(void *dest, const void *src, size_t n)
  77:.\Generated_Source\PSoC5/cyfitter_cfg.c **** {
  78:.\Generated_Source\PSoC5/cyfitter_cfg.c **** 	(void)memcpy(dest, src, n);
  79:.\Generated_Source\PSoC5/cyfitter_cfg.c **** }
  80:.\Generated_Source\PSoC5/cyfitter_cfg.c **** 
  81:.\Generated_Source\PSoC5/cyfitter_cfg.c **** 
  82:.\Generated_Source\PSoC5/cyfitter_cfg.c **** 
  83:.\Generated_Source\PSoC5/cyfitter_cfg.c **** /* Clock startup error codes                                                   */
  84:.\Generated_Source\PSoC5/cyfitter_cfg.c **** #define CYCLOCKSTART_NO_ERROR    0u
  85:.\Generated_Source\PSoC5/cyfitter_cfg.c **** #define CYCLOCKSTART_XTAL_ERROR  1u
  86:.\Generated_Source\PSoC5/cyfitter_cfg.c **** #define CYCLOCKSTART_32KHZ_ERROR 2u
  87:.\Generated_Source\PSoC5/cyfitter_cfg.c **** #define CYCLOCKSTART_PLL_ERROR   3u
  88:.\Generated_Source\PSoC5/cyfitter_cfg.c **** 
  89:.\Generated_Source\PSoC5/cyfitter_cfg.c **** #ifdef CY_NEED_CYCLOCKSTARTUPERROR
ARM GAS  C:\Users\HANNAL~1\AppData\Local\Temp\ccMy6mI6.s 			page 3


  90:.\Generated_Source\PSoC5/cyfitter_cfg.c **** /*******************************************************************************
  91:.\Generated_Source\PSoC5/cyfitter_cfg.c **** * Function Name: CyClockStartupError
  92:.\Generated_Source\PSoC5/cyfitter_cfg.c **** ********************************************************************************
  93:.\Generated_Source\PSoC5/cyfitter_cfg.c **** * Summary:
  94:.\Generated_Source\PSoC5/cyfitter_cfg.c **** *  If an error is encountered during clock configuration (crystal startup error,
  95:.\Generated_Source\PSoC5/cyfitter_cfg.c **** *  PLL lock error, etc.), the system will end up here.  Unless reimplemented by
  96:.\Generated_Source\PSoC5/cyfitter_cfg.c **** *  the customer, this function will stop in an infinite loop.
  97:.\Generated_Source\PSoC5/cyfitter_cfg.c **** *
  98:.\Generated_Source\PSoC5/cyfitter_cfg.c **** * Parameters:
  99:.\Generated_Source\PSoC5/cyfitter_cfg.c **** *   void
 100:.\Generated_Source\PSoC5/cyfitter_cfg.c **** *
 101:.\Generated_Source\PSoC5/cyfitter_cfg.c **** * Return:
 102:.\Generated_Source\PSoC5/cyfitter_cfg.c **** *   void
 103:.\Generated_Source\PSoC5/cyfitter_cfg.c **** *
 104:.\Generated_Source\PSoC5/cyfitter_cfg.c **** *******************************************************************************/
 105:.\Generated_Source\PSoC5/cyfitter_cfg.c **** CY_CFG_UNUSED
 106:.\Generated_Source\PSoC5/cyfitter_cfg.c **** static void CyClockStartupError(uint8 errorCode);
 107:.\Generated_Source\PSoC5/cyfitter_cfg.c **** CY_CFG_UNUSED
 108:.\Generated_Source\PSoC5/cyfitter_cfg.c **** static void CyClockStartupError(uint8 errorCode)
 109:.\Generated_Source\PSoC5/cyfitter_cfg.c **** {
  26              		.loc 1 109 0
  27              		.cfi_startproc
  28              		@ Volatile: function does not return.
  29              		@ args = 0, pretend = 0, frame = 0
  30              		@ frame_needed = 0, uses_anonymous_args = 0
  31              		@ link register save eliminated.
  32              	.LVL0:
  33              	.L2:
 110:.\Generated_Source\PSoC5/cyfitter_cfg.c ****     /* To remove the compiler warning if errorCode not used.                */
 111:.\Generated_Source\PSoC5/cyfitter_cfg.c ****     errorCode = errorCode;
 112:.\Generated_Source\PSoC5/cyfitter_cfg.c **** 
 113:.\Generated_Source\PSoC5/cyfitter_cfg.c ****     /* `#START CyClockStartupError` */
 114:.\Generated_Source\PSoC5/cyfitter_cfg.c **** 
 115:.\Generated_Source\PSoC5/cyfitter_cfg.c ****     /* If we have a clock startup error (bad MHz crystal, PLL lock, etc.),  */
 116:.\Generated_Source\PSoC5/cyfitter_cfg.c ****     /* we will end up here to allow the customer to implement something to  */
 117:.\Generated_Source\PSoC5/cyfitter_cfg.c ****     /* deal with the clock condition.                                       */
 118:.\Generated_Source\PSoC5/cyfitter_cfg.c **** 
 119:.\Generated_Source\PSoC5/cyfitter_cfg.c ****     /* `#END` */
 120:.\Generated_Source\PSoC5/cyfitter_cfg.c **** 
 121:.\Generated_Source\PSoC5/cyfitter_cfg.c ****     /* If nothing else, stop here since the clocks have not started         */
 122:.\Generated_Source\PSoC5/cyfitter_cfg.c ****     /* correctly.                                                           */
 123:.\Generated_Source\PSoC5/cyfitter_cfg.c ****     while(1) {}
  34              		.loc 1 123 0 discriminator 1
  35 0000 FEE7     		b	.L2
  36              		.cfi_endproc
  37              	.LFE3:
  38              		.size	CyClockStartupError, .-CyClockStartupError
  39 0002 00BF     		.section	.text.cfg_write_bytes32,"ax",%progbits
  40              		.align	2
  41              		.thumb
  42              		.thumb_func
  43              		.type	cfg_write_bytes32, %function
  44              	cfg_write_bytes32:
  45              	.LFB4:
 124:.\Generated_Source\PSoC5/cyfitter_cfg.c **** }
 125:.\Generated_Source\PSoC5/cyfitter_cfg.c **** #endif
 126:.\Generated_Source\PSoC5/cyfitter_cfg.c **** 
ARM GAS  C:\Users\HANNAL~1\AppData\Local\Temp\ccMy6mI6.s 			page 4


 127:.\Generated_Source\PSoC5/cyfitter_cfg.c **** #define CY_CFG_BASE_ADDR_COUNT 28u
 128:.\Generated_Source\PSoC5/cyfitter_cfg.c **** CYPACKED typedef struct
 129:.\Generated_Source\PSoC5/cyfitter_cfg.c **** {
 130:.\Generated_Source\PSoC5/cyfitter_cfg.c **** 	uint8 offset;
 131:.\Generated_Source\PSoC5/cyfitter_cfg.c **** 	uint8 value;
 132:.\Generated_Source\PSoC5/cyfitter_cfg.c **** } CYPACKED_ATTR cy_cfg_addrvalue_t;
 133:.\Generated_Source\PSoC5/cyfitter_cfg.c **** 
 134:.\Generated_Source\PSoC5/cyfitter_cfg.c **** #define cy_cfg_addr_table ((const uint32 CYFAR *)0x48000000u)
 135:.\Generated_Source\PSoC5/cyfitter_cfg.c **** #define cy_cfg_data_table ((const cy_cfg_addrvalue_t CYFAR *)0x48000070u)
 136:.\Generated_Source\PSoC5/cyfitter_cfg.c **** 
 137:.\Generated_Source\PSoC5/cyfitter_cfg.c **** /* UDB_0_3_0_CONFIG Address: CYDEV_UCFG_B0_P5_U0_BASE Size (bytes): 128 */
 138:.\Generated_Source\PSoC5/cyfitter_cfg.c **** #define BS_UDB_0_3_0_CONFIG_VAL ((const uint8 CYFAR *)0x48000538u)
 139:.\Generated_Source\PSoC5/cyfitter_cfg.c **** 
 140:.\Generated_Source\PSoC5/cyfitter_cfg.c **** /* IOPINS0_7 Address: CYREG_PRT12_DR Size (bytes): 10 */
 141:.\Generated_Source\PSoC5/cyfitter_cfg.c **** #define BS_IOPINS0_7_VAL ((const uint8 CYFAR *)0x480005B8u)
 142:.\Generated_Source\PSoC5/cyfitter_cfg.c **** 
 143:.\Generated_Source\PSoC5/cyfitter_cfg.c **** /* IOPINS0_2 Address: CYREG_PRT2_DM0 Size (bytes): 8 */
 144:.\Generated_Source\PSoC5/cyfitter_cfg.c **** #define BS_IOPINS0_2_VAL ((const uint8 CYFAR *)0x480005C4u)
 145:.\Generated_Source\PSoC5/cyfitter_cfg.c **** 
 146:.\Generated_Source\PSoC5/cyfitter_cfg.c **** /* IOPINS0_5 Address: CYREG_PRT5_DM0 Size (bytes): 8 */
 147:.\Generated_Source\PSoC5/cyfitter_cfg.c **** #define BS_IOPINS0_5_VAL ((const uint8 CYFAR *)0x480005CCu)
 148:.\Generated_Source\PSoC5/cyfitter_cfg.c **** 
 149:.\Generated_Source\PSoC5/cyfitter_cfg.c **** /* IOPINS0_6 Address: CYREG_PRT6_DM0 Size (bytes): 8 */
 150:.\Generated_Source\PSoC5/cyfitter_cfg.c **** #define BS_IOPINS0_6_VAL ((const uint8 CYFAR *)0x480005D4u)
 151:.\Generated_Source\PSoC5/cyfitter_cfg.c **** 
 152:.\Generated_Source\PSoC5/cyfitter_cfg.c **** 
 153:.\Generated_Source\PSoC5/cyfitter_cfg.c **** /*******************************************************************************
 154:.\Generated_Source\PSoC5/cyfitter_cfg.c **** * Function Name: cfg_write_bytes32
 155:.\Generated_Source\PSoC5/cyfitter_cfg.c **** ********************************************************************************
 156:.\Generated_Source\PSoC5/cyfitter_cfg.c **** * Summary:
 157:.\Generated_Source\PSoC5/cyfitter_cfg.c **** *  This function is used for setting up the chip configuration areas that
 158:.\Generated_Source\PSoC5/cyfitter_cfg.c **** *  contain relatively sparse data.
 159:.\Generated_Source\PSoC5/cyfitter_cfg.c **** *
 160:.\Generated_Source\PSoC5/cyfitter_cfg.c **** * Parameters:
 161:.\Generated_Source\PSoC5/cyfitter_cfg.c **** *   void
 162:.\Generated_Source\PSoC5/cyfitter_cfg.c **** *
 163:.\Generated_Source\PSoC5/cyfitter_cfg.c **** * Return:
 164:.\Generated_Source\PSoC5/cyfitter_cfg.c **** *   void
 165:.\Generated_Source\PSoC5/cyfitter_cfg.c **** *
 166:.\Generated_Source\PSoC5/cyfitter_cfg.c **** *******************************************************************************/
 167:.\Generated_Source\PSoC5/cyfitter_cfg.c **** static void cfg_write_bytes32(const uint32 addr_table[], const cy_cfg_addrvalue_t data_table[]);
 168:.\Generated_Source\PSoC5/cyfitter_cfg.c **** static void cfg_write_bytes32(const uint32 addr_table[], const cy_cfg_addrvalue_t data_table[])
 169:.\Generated_Source\PSoC5/cyfitter_cfg.c **** {
  46              		.loc 1 169 0
  47              		.cfi_startproc
  48              		@ args = 0, pretend = 0, frame = 0
  49              		@ frame_needed = 0, uses_anonymous_args = 0
  50              		@ link register save eliminated.
  51              	.LVL1:
  52 0000 F0B4     		push	{r4, r5, r6, r7}
  53              		.cfi_def_cfa_offset 16
  54              		.cfi_offset 4, -16
  55              		.cfi_offset 5, -12
  56              		.cfi_offset 6, -8
  57              		.cfi_offset 7, -4
  58              	.LVL2:
 170:.\Generated_Source\PSoC5/cyfitter_cfg.c **** 	/* For 32-bit little-endian architectures */
ARM GAS  C:\Users\HANNAL~1\AppData\Local\Temp\ccMy6mI6.s 			page 5


 171:.\Generated_Source\PSoC5/cyfitter_cfg.c **** 	uint32 i, j = 0u;
  59              		.loc 1 171 0
  60 0002 0022     		movs	r2, #0
 172:.\Generated_Source\PSoC5/cyfitter_cfg.c **** 	for (i = 0u; i < CY_CFG_BASE_ADDR_COUNT; i++)
  61              		.loc 1 172 0
  62 0004 1746     		mov	r7, r2
  63 0006 11E0     		b	.L4
  64              	.LVL3:
  65              	.L7:
  66              	.LBB2:
 173:.\Generated_Source\PSoC5/cyfitter_cfg.c **** 	{
 174:.\Generated_Source\PSoC5/cyfitter_cfg.c **** 		uint32 baseAddr = addr_table[i];
  67              		.loc 1 174 0
  68 0008 50F82760 		ldr	r6, [r0, r7, lsl #2]
  69              	.LVL4:
 175:.\Generated_Source\PSoC5/cyfitter_cfg.c **** 		uint8 count = (uint8)baseAddr;
  70              		.loc 1 175 0
  71 000c F3B2     		uxtb	r3, r6
  72              	.LVL5:
 176:.\Generated_Source\PSoC5/cyfitter_cfg.c **** 		baseAddr &= 0xFFFFFF00u;
  73              		.loc 1 176 0
  74 000e 26F0FF06 		bic	r6, r6, #255
  75              	.LVL6:
 177:.\Generated_Source\PSoC5/cyfitter_cfg.c **** 		while (count != 0u)
  76              		.loc 1 177 0
  77 0012 08E0     		b	.L5
  78              	.L6:
 178:.\Generated_Source\PSoC5/cyfitter_cfg.c **** 		{
 179:.\Generated_Source\PSoC5/cyfitter_cfg.c **** 			CY_SET_XTND_REG8((void CYFAR *)(baseAddr + data_table[j].offset), data_table[j].value);
  79              		.loc 1 179 0
  80 0014 01EB4205 		add	r5, r1, r2, lsl #1
  81 0018 11F81240 		ldrb	r4, [r1, r2, lsl #1]	@ zero_extendqisi2
  82 001c 6D78     		ldrb	r5, [r5, #1]	@ zero_extendqisi2
  83 001e A555     		strb	r5, [r4, r6]
 180:.\Generated_Source\PSoC5/cyfitter_cfg.c **** 			j++;
  84              		.loc 1 180 0
  85 0020 0132     		adds	r2, r2, #1
  86              	.LVL7:
 181:.\Generated_Source\PSoC5/cyfitter_cfg.c **** 			count--;
  87              		.loc 1 181 0
  88 0022 013B     		subs	r3, r3, #1
  89              	.LVL8:
  90 0024 DBB2     		uxtb	r3, r3
  91              	.LVL9:
  92              	.L5:
 177:.\Generated_Source\PSoC5/cyfitter_cfg.c **** 		{
  93              		.loc 1 177 0
  94 0026 002B     		cmp	r3, #0
  95 0028 F4D1     		bne	.L6
  96              	.LBE2:
 172:.\Generated_Source\PSoC5/cyfitter_cfg.c **** 	{
  97              		.loc 1 172 0 discriminator 2
  98 002a 0137     		adds	r7, r7, #1
  99              	.LVL10:
 100              	.L4:
 172:.\Generated_Source\PSoC5/cyfitter_cfg.c **** 	{
 101              		.loc 1 172 0 is_stmt 0 discriminator 1
ARM GAS  C:\Users\HANNAL~1\AppData\Local\Temp\ccMy6mI6.s 			page 6


 102 002c 1B2F     		cmp	r7, #27
 103 002e EBD9     		bls	.L7
 182:.\Generated_Source\PSoC5/cyfitter_cfg.c **** 		}
 183:.\Generated_Source\PSoC5/cyfitter_cfg.c **** 	}
 184:.\Generated_Source\PSoC5/cyfitter_cfg.c **** }
 104              		.loc 1 184 0 is_stmt 1
 105 0030 F0BC     		pop	{r4, r5, r6, r7}
 106              		.cfi_restore 7
 107              		.cfi_restore 6
 108              		.cfi_restore 5
 109              		.cfi_restore 4
 110              		.cfi_def_cfa_offset 0
 111              	.LVL11:
 112 0032 7047     		bx	lr
 113              		.cfi_endproc
 114              	.LFE4:
 115              		.size	cfg_write_bytes32, .-cfg_write_bytes32
 116              		.section	.text.AnalogSetDefault,"ax",%progbits
 117              		.align	2
 118              		.thumb
 119              		.thumb_func
 120              		.type	AnalogSetDefault, %function
 121              	AnalogSetDefault:
 122              	.LFB6:
 185:.\Generated_Source\PSoC5/cyfitter_cfg.c **** 
 186:.\Generated_Source\PSoC5/cyfitter_cfg.c **** /*******************************************************************************
 187:.\Generated_Source\PSoC5/cyfitter_cfg.c **** * Function Name: ClockSetup
 188:.\Generated_Source\PSoC5/cyfitter_cfg.c **** ********************************************************************************
 189:.\Generated_Source\PSoC5/cyfitter_cfg.c **** *
 190:.\Generated_Source\PSoC5/cyfitter_cfg.c **** * Summary:
 191:.\Generated_Source\PSoC5/cyfitter_cfg.c **** *  Performs the initialization of all of the clocks in the device based on the
 192:.\Generated_Source\PSoC5/cyfitter_cfg.c **** *  settings in the Clock tab of the DWR.  This includes enabling the requested
 193:.\Generated_Source\PSoC5/cyfitter_cfg.c **** *  clocks and setting the necessary dividers to produce the desired frequency. 
 194:.\Generated_Source\PSoC5/cyfitter_cfg.c **** *
 195:.\Generated_Source\PSoC5/cyfitter_cfg.c **** * Parameters:
 196:.\Generated_Source\PSoC5/cyfitter_cfg.c **** *  void
 197:.\Generated_Source\PSoC5/cyfitter_cfg.c **** *
 198:.\Generated_Source\PSoC5/cyfitter_cfg.c **** * Return:
 199:.\Generated_Source\PSoC5/cyfitter_cfg.c **** *  void
 200:.\Generated_Source\PSoC5/cyfitter_cfg.c **** *
 201:.\Generated_Source\PSoC5/cyfitter_cfg.c **** *******************************************************************************/
 202:.\Generated_Source\PSoC5/cyfitter_cfg.c **** static void ClockSetup(void);
 203:.\Generated_Source\PSoC5/cyfitter_cfg.c **** static void ClockSetup(void)
 204:.\Generated_Source\PSoC5/cyfitter_cfg.c **** {
 205:.\Generated_Source\PSoC5/cyfitter_cfg.c **** 	uint32 timeout;
 206:.\Generated_Source\PSoC5/cyfitter_cfg.c **** 	uint8 pllLock;
 207:.\Generated_Source\PSoC5/cyfitter_cfg.c **** 
 208:.\Generated_Source\PSoC5/cyfitter_cfg.c **** 
 209:.\Generated_Source\PSoC5/cyfitter_cfg.c **** 	/* Configure Digital Clocks based on settings from Clock DWR */
 210:.\Generated_Source\PSoC5/cyfitter_cfg.c **** 	CY_SET_XTND_REG16((void CYFAR *)(CYREG_CLKDIST_DCFG0_CFG0), 0x0017u);
 211:.\Generated_Source\PSoC5/cyfitter_cfg.c **** 	CY_SET_XTND_REG8((void CYFAR *)(CYREG_CLKDIST_DCFG0_CFG0 + 0x2u), 0x18u);
 212:.\Generated_Source\PSoC5/cyfitter_cfg.c **** 	CY_SET_XTND_REG16((void CYFAR *)(CYREG_CLKDIST_DCFG1_CFG0), 0x0270u);
 213:.\Generated_Source\PSoC5/cyfitter_cfg.c **** 	CY_SET_XTND_REG8((void CYFAR *)(CYREG_CLKDIST_DCFG1_CFG0 + 0x2u), 0x18u);
 214:.\Generated_Source\PSoC5/cyfitter_cfg.c **** 
 215:.\Generated_Source\PSoC5/cyfitter_cfg.c **** 	/* Configure ILO based on settings from Clock DWR */
 216:.\Generated_Source\PSoC5/cyfitter_cfg.c **** 	CY_SET_XTND_REG8((void CYFAR *)(CYREG_SLOWCLK_ILO_CR0), 0x06u);
 217:.\Generated_Source\PSoC5/cyfitter_cfg.c **** 
ARM GAS  C:\Users\HANNAL~1\AppData\Local\Temp\ccMy6mI6.s 			page 7


 218:.\Generated_Source\PSoC5/cyfitter_cfg.c **** 	/* Configure IMO based on settings from Clock DWR */
 219:.\Generated_Source\PSoC5/cyfitter_cfg.c **** 	CY_SET_XTND_REG8((void CYFAR *)(CYREG_FASTCLK_IMO_CR), 0x52u);
 220:.\Generated_Source\PSoC5/cyfitter_cfg.c **** 	CY_SET_XTND_REG8((void CYFAR *)(CYREG_IMO_TR1), (CY_GET_XTND_REG8((void CYFAR *)CYREG_FLSHID_CUST_
 221:.\Generated_Source\PSoC5/cyfitter_cfg.c **** 
 222:.\Generated_Source\PSoC5/cyfitter_cfg.c **** 	/* Configure PLL based on settings from Clock DWR */
 223:.\Generated_Source\PSoC5/cyfitter_cfg.c **** 	CY_SET_XTND_REG16((void CYFAR *)(CYREG_FASTCLK_PLL_P), 0x0710u);
 224:.\Generated_Source\PSoC5/cyfitter_cfg.c **** 	CY_SET_XTND_REG16((void CYFAR *)(CYREG_FASTCLK_PLL_CFG0), 0x1251u);
 225:.\Generated_Source\PSoC5/cyfitter_cfg.c **** 	/* Wait up to 250us for the PLL to lock */
 226:.\Generated_Source\PSoC5/cyfitter_cfg.c **** 	pllLock = 0u;
 227:.\Generated_Source\PSoC5/cyfitter_cfg.c **** 	for (timeout = 250u / 10u; (timeout > 0u) && (pllLock != 0x03u); timeout--)
 228:.\Generated_Source\PSoC5/cyfitter_cfg.c **** 	{ 
 229:.\Generated_Source\PSoC5/cyfitter_cfg.c **** 		pllLock = 0x03u & ((uint8)((uint8)pllLock << 1) | ((CY_GET_XTND_REG8((void CYFAR *)CYREG_FASTCLK_
 230:.\Generated_Source\PSoC5/cyfitter_cfg.c **** 		CyDelayCycles(10u * 48u); /* Delay 10us based on 48MHz clock */
 231:.\Generated_Source\PSoC5/cyfitter_cfg.c **** 	}
 232:.\Generated_Source\PSoC5/cyfitter_cfg.c **** 	/* If we ran out of time the PLL didn't lock so go to the error function */
 233:.\Generated_Source\PSoC5/cyfitter_cfg.c **** 	if (timeout == 0u)
 234:.\Generated_Source\PSoC5/cyfitter_cfg.c **** 	{
 235:.\Generated_Source\PSoC5/cyfitter_cfg.c **** 		CyClockStartupError(CYCLOCKSTART_PLL_ERROR);
 236:.\Generated_Source\PSoC5/cyfitter_cfg.c **** 	}
 237:.\Generated_Source\PSoC5/cyfitter_cfg.c **** 
 238:.\Generated_Source\PSoC5/cyfitter_cfg.c **** 	/* Configure Bus/Master Clock based on settings from Clock DWR */
 239:.\Generated_Source\PSoC5/cyfitter_cfg.c **** 	CY_SET_XTND_REG16((void CYFAR *)(CYREG_CLKDIST_MSTR0), 0x0100u);
 240:.\Generated_Source\PSoC5/cyfitter_cfg.c **** 	CY_SET_XTND_REG8((void CYFAR *)(CYREG_CLKDIST_MSTR0), 0x07u);
 241:.\Generated_Source\PSoC5/cyfitter_cfg.c **** 	CY_SET_XTND_REG8((void CYFAR *)(CYREG_CLKDIST_BCFG0), 0x00u);
 242:.\Generated_Source\PSoC5/cyfitter_cfg.c **** 	CY_SET_XTND_REG8((void CYFAR *)(CYREG_CLKDIST_BCFG2), 0x48u);
 243:.\Generated_Source\PSoC5/cyfitter_cfg.c **** 	CY_SET_XTND_REG8((void CYFAR *)(CYREG_CLKDIST_MSTR0), 0x00u);
 244:.\Generated_Source\PSoC5/cyfitter_cfg.c **** 
 245:.\Generated_Source\PSoC5/cyfitter_cfg.c **** 	/* Configure USB Clock based on settings from Clock DWR */
 246:.\Generated_Source\PSoC5/cyfitter_cfg.c **** 	CY_SET_XTND_REG8((void CYFAR *)(CYREG_CLKDIST_UCFG), 0x00u);
 247:.\Generated_Source\PSoC5/cyfitter_cfg.c **** 	CY_SET_XTND_REG8((void CYFAR *)(CYREG_CLKDIST_LD), 0x02u);
 248:.\Generated_Source\PSoC5/cyfitter_cfg.c **** 
 249:.\Generated_Source\PSoC5/cyfitter_cfg.c **** 	CY_SET_XTND_REG8((void CYFAR *)(CYREG_PM_ACT_CFG2), ((CY_GET_XTND_REG8((void CYFAR *)CYREG_PM_ACT_
 250:.\Generated_Source\PSoC5/cyfitter_cfg.c **** }
 251:.\Generated_Source\PSoC5/cyfitter_cfg.c **** 
 252:.\Generated_Source\PSoC5/cyfitter_cfg.c **** 
 253:.\Generated_Source\PSoC5/cyfitter_cfg.c **** /* Analog API Functions */
 254:.\Generated_Source\PSoC5/cyfitter_cfg.c **** 
 255:.\Generated_Source\PSoC5/cyfitter_cfg.c **** 
 256:.\Generated_Source\PSoC5/cyfitter_cfg.c **** /*******************************************************************************
 257:.\Generated_Source\PSoC5/cyfitter_cfg.c **** * Function Name: AnalogSetDefault
 258:.\Generated_Source\PSoC5/cyfitter_cfg.c **** ********************************************************************************
 259:.\Generated_Source\PSoC5/cyfitter_cfg.c **** *
 260:.\Generated_Source\PSoC5/cyfitter_cfg.c **** * Summary:
 261:.\Generated_Source\PSoC5/cyfitter_cfg.c **** *  Sets up the analog portions of the chip to default values based on chip
 262:.\Generated_Source\PSoC5/cyfitter_cfg.c **** *  configuration options from the project.
 263:.\Generated_Source\PSoC5/cyfitter_cfg.c **** *
 264:.\Generated_Source\PSoC5/cyfitter_cfg.c **** * Parameters:
 265:.\Generated_Source\PSoC5/cyfitter_cfg.c **** *  void
 266:.\Generated_Source\PSoC5/cyfitter_cfg.c **** *
 267:.\Generated_Source\PSoC5/cyfitter_cfg.c **** * Return:
 268:.\Generated_Source\PSoC5/cyfitter_cfg.c **** *  void
 269:.\Generated_Source\PSoC5/cyfitter_cfg.c **** *
 270:.\Generated_Source\PSoC5/cyfitter_cfg.c **** *******************************************************************************/
 271:.\Generated_Source\PSoC5/cyfitter_cfg.c **** static void AnalogSetDefault(void);
 272:.\Generated_Source\PSoC5/cyfitter_cfg.c **** static void AnalogSetDefault(void)
 273:.\Generated_Source\PSoC5/cyfitter_cfg.c **** {
 123              		.loc 1 273 0
ARM GAS  C:\Users\HANNAL~1\AppData\Local\Temp\ccMy6mI6.s 			page 8


 124              		.cfi_startproc
 125              		@ args = 0, pretend = 0, frame = 0
 126              		@ frame_needed = 0, uses_anonymous_args = 0
 127              		@ link register save eliminated.
 274:.\Generated_Source\PSoC5/cyfitter_cfg.c **** 	uint8 bg_xover_inl_trim = CY_GET_XTND_REG8((void CYFAR *)(CYREG_FLSHID_MFG_CFG_BG_XOVER_INL_TRIM +
 128              		.loc 1 274 0
 129 0000 064B     		ldr	r3, .L10
 130 0002 1B78     		ldrb	r3, [r3]	@ zero_extendqisi2
 131 0004 DBB2     		uxtb	r3, r3
 132              	.LVL12:
 275:.\Generated_Source\PSoC5/cyfitter_cfg.c **** 	CY_SET_XTND_REG8((void CYFAR *)(CYREG_BG_DFT0), (bg_xover_inl_trim & 0x07u));
 133              		.loc 1 275 0
 134 0006 03F00701 		and	r1, r3, #7
 135 000a 054A     		ldr	r2, .L10+4
 136 000c 1170     		strb	r1, [r2]
 276:.\Generated_Source\PSoC5/cyfitter_cfg.c **** 	CY_SET_XTND_REG8((void CYFAR *)(CYREG_BG_DFT1), ((bg_xover_inl_trim >> 4) & 0x0Fu));
 137              		.loc 1 276 0
 138 000e 1B09     		lsrs	r3, r3, #4
 139              	.LVL13:
 140 0010 0132     		adds	r2, r2, #1
 141 0012 1370     		strb	r3, [r2]
 277:.\Generated_Source\PSoC5/cyfitter_cfg.c **** 	CY_SET_XTND_REG8((void CYFAR *)CYREG_PUMP_CR0, 0x44u);
 142              		.loc 1 277 0
 143 0014 4422     		movs	r2, #68
 144 0016 034B     		ldr	r3, .L10+8
 145 0018 1A70     		strb	r2, [r3]
 146 001a 7047     		bx	lr
 147              	.L11:
 148              		.align	2
 149              	.L10:
 150 001c CF010049 		.word	1224737231
 151 0020 6E580040 		.word	1073764462
 152 0024 76580040 		.word	1073764470
 153              		.cfi_endproc
 154              	.LFE6:
 155              		.size	AnalogSetDefault, .-AnalogSetDefault
 156              		.section	.text.CYMEMZERO,"ax",%progbits
 157              		.align	2
 158              		.thumb
 159              		.thumb_func
 160              		.type	CYMEMZERO, %function
 161              	CYMEMZERO:
 162              	.LFB0:
  63:.\Generated_Source\PSoC5/cyfitter_cfg.c **** 	(void)memset(s, 0, n);
 163              		.loc 1 63 0
 164              		.cfi_startproc
 165              		@ args = 0, pretend = 0, frame = 0
 166              		@ frame_needed = 0, uses_anonymous_args = 0
 167              	.LVL14:
 168 0000 08B5     		push	{r3, lr}
 169              		.cfi_def_cfa_offset 8
 170              		.cfi_offset 3, -8
 171              		.cfi_offset 14, -4
 172 0002 0A46     		mov	r2, r1
  64:.\Generated_Source\PSoC5/cyfitter_cfg.c **** }
 173              		.loc 1 64 0
 174 0004 0021     		movs	r1, #0
ARM GAS  C:\Users\HANNAL~1\AppData\Local\Temp\ccMy6mI6.s 			page 9


 175              	.LVL15:
 176 0006 FFF7FEFF 		bl	memset
 177              	.LVL16:
 178 000a 08BD     		pop	{r3, pc}
 179              		.cfi_endproc
 180              	.LFE0:
 181              		.size	CYMEMZERO, .-CYMEMZERO
 182              		.section	.text.ClockSetup,"ax",%progbits
 183              		.align	2
 184              		.thumb
 185              		.thumb_func
 186              		.type	ClockSetup, %function
 187              	ClockSetup:
 188              	.LFB5:
 204:.\Generated_Source\PSoC5/cyfitter_cfg.c **** 	uint32 timeout;
 189              		.loc 1 204 0
 190              		.cfi_startproc
 191              		@ args = 0, pretend = 0, frame = 0
 192              		@ frame_needed = 0, uses_anonymous_args = 0
 193 0000 38B5     		push	{r3, r4, r5, lr}
 194              		.cfi_def_cfa_offset 16
 195              		.cfi_offset 3, -16
 196              		.cfi_offset 4, -12
 197              		.cfi_offset 5, -8
 198              		.cfi_offset 14, -4
 210:.\Generated_Source\PSoC5/cyfitter_cfg.c **** 	CY_SET_XTND_REG8((void CYFAR *)(CYREG_CLKDIST_DCFG0_CFG0 + 0x2u), 0x18u);
 199              		.loc 1 210 0
 200 0002 1722     		movs	r2, #23
 201 0004 264B     		ldr	r3, .L20
 202 0006 1A80     		strh	r2, [r3]	@ movhi
 211:.\Generated_Source\PSoC5/cyfitter_cfg.c **** 	CY_SET_XTND_REG16((void CYFAR *)(CYREG_CLKDIST_DCFG1_CFG0), 0x0270u);
 203              		.loc 1 211 0
 204 0008 1823     		movs	r3, #24
 205 000a 264A     		ldr	r2, .L20+4
 206 000c 1370     		strb	r3, [r2]
 212:.\Generated_Source\PSoC5/cyfitter_cfg.c **** 	CY_SET_XTND_REG8((void CYFAR *)(CYREG_CLKDIST_DCFG1_CFG0 + 0x2u), 0x18u);
 207              		.loc 1 212 0
 208 000e 4FF41C71 		mov	r1, #624
 209 0012 0232     		adds	r2, r2, #2
 210 0014 1180     		strh	r1, [r2]	@ movhi
 213:.\Generated_Source\PSoC5/cyfitter_cfg.c **** 
 211              		.loc 1 213 0
 212 0016 0232     		adds	r2, r2, #2
 213 0018 1370     		strb	r3, [r2]
 216:.\Generated_Source\PSoC5/cyfitter_cfg.c **** 
 214              		.loc 1 216 0
 215 001a 0622     		movs	r2, #6
 216 001c 224B     		ldr	r3, .L20+8
 217 001e 1A70     		strb	r2, [r3]
 219:.\Generated_Source\PSoC5/cyfitter_cfg.c **** 	CY_SET_XTND_REG8((void CYFAR *)(CYREG_IMO_TR1), (CY_GET_XTND_REG8((void CYFAR *)CYREG_FLSHID_CUST_
 218              		.loc 1 219 0
 219 0020 5222     		movs	r2, #82
 220 0022 A3F58073 		sub	r3, r3, #256
 221 0026 1A70     		strb	r2, [r3]
 220:.\Generated_Source\PSoC5/cyfitter_cfg.c **** 
 222              		.loc 1 220 0
 223 0028 204B     		ldr	r3, .L20+12
ARM GAS  C:\Users\HANNAL~1\AppData\Local\Temp\ccMy6mI6.s 			page 10


 224 002a 1B78     		ldrb	r3, [r3]	@ zero_extendqisi2
 225 002c DBB2     		uxtb	r3, r3
 226 002e 204A     		ldr	r2, .L20+16
 227 0030 1370     		strb	r3, [r2]
 223:.\Generated_Source\PSoC5/cyfitter_cfg.c **** 	CY_SET_XTND_REG16((void CYFAR *)(CYREG_FASTCLK_PLL_CFG0), 0x1251u);
 228              		.loc 1 223 0
 229 0032 4FF4E262 		mov	r2, #1808
 230 0036 1F4B     		ldr	r3, .L20+20
 231 0038 1A80     		strh	r2, [r3]	@ movhi
 224:.\Generated_Source\PSoC5/cyfitter_cfg.c **** 	/* Wait up to 250us for the PLL to lock */
 232              		.loc 1 224 0
 233 003a 41F25122 		movw	r2, #4689
 234 003e 023B     		subs	r3, r3, #2
 235 0040 1A80     		strh	r2, [r3]	@ movhi
 236              	.LVL17:
 226:.\Generated_Source\PSoC5/cyfitter_cfg.c **** 	for (timeout = 250u / 10u; (timeout > 0u) && (pllLock != 0x03u); timeout--)
 237              		.loc 1 226 0
 238 0042 0024     		movs	r4, #0
 227:.\Generated_Source\PSoC5/cyfitter_cfg.c **** 	{ 
 239              		.loc 1 227 0
 240 0044 1925     		movs	r5, #25
 241 0046 0CE0     		b	.L15
 242              	.LVL18:
 243              	.L17:
 229:.\Generated_Source\PSoC5/cyfitter_cfg.c **** 		CyDelayCycles(10u * 48u); /* Delay 10us based on 48MHz clock */
 244              		.loc 1 229 0 discriminator 4
 245 0048 1B4B     		ldr	r3, .L20+24
 246 004a 1B78     		ldrb	r3, [r3]	@ zero_extendqisi2
 247 004c 03F00103 		and	r3, r3, #1
 248 0050 43EA4404 		orr	r4, r3, r4, lsl #1
 249              	.LVL19:
 250 0054 04F00304 		and	r4, r4, #3
 251              	.LVL20:
 230:.\Generated_Source\PSoC5/cyfitter_cfg.c **** 	}
 252              		.loc 1 230 0 discriminator 4
 253 0058 4FF4F070 		mov	r0, #480
 254 005c FFF7FEFF 		bl	CyDelayCycles
 255              	.LVL21:
 227:.\Generated_Source\PSoC5/cyfitter_cfg.c **** 	{ 
 256              		.loc 1 227 0 discriminator 4
 257 0060 013D     		subs	r5, r5, #1
 258              	.LVL22:
 259              	.L15:
 227:.\Generated_Source\PSoC5/cyfitter_cfg.c **** 	{ 
 260              		.loc 1 227 0 is_stmt 0 discriminator 1
 261 0062 0DB1     		cbz	r5, .L16
 227:.\Generated_Source\PSoC5/cyfitter_cfg.c **** 	{ 
 262              		.loc 1 227 0 discriminator 3
 263 0064 032C     		cmp	r4, #3
 264 0066 EFD1     		bne	.L17
 265              	.L16:
 233:.\Generated_Source\PSoC5/cyfitter_cfg.c **** 	{
 266              		.loc 1 233 0 is_stmt 1
 267 0068 15B9     		cbnz	r5, .L18
 235:.\Generated_Source\PSoC5/cyfitter_cfg.c **** 	}
 268              		.loc 1 235 0
 269 006a 0320     		movs	r0, #3
ARM GAS  C:\Users\HANNAL~1\AppData\Local\Temp\ccMy6mI6.s 			page 11


 270 006c FFF7FEFF 		bl	CyClockStartupError
 271              	.LVL23:
 272              	.L18:
 239:.\Generated_Source\PSoC5/cyfitter_cfg.c **** 	CY_SET_XTND_REG8((void CYFAR *)(CYREG_CLKDIST_MSTR0), 0x07u);
 273              		.loc 1 239 0
 274 0070 124A     		ldr	r2, .L20+28
 275 0072 4FF48073 		mov	r3, #256
 276 0076 1380     		strh	r3, [r2]	@ movhi
 240:.\Generated_Source\PSoC5/cyfitter_cfg.c **** 	CY_SET_XTND_REG8((void CYFAR *)(CYREG_CLKDIST_BCFG0), 0x00u);
 277              		.loc 1 240 0
 278 0078 0723     		movs	r3, #7
 279 007a 1370     		strb	r3, [r2]
 241:.\Generated_Source\PSoC5/cyfitter_cfg.c **** 	CY_SET_XTND_REG8((void CYFAR *)(CYREG_CLKDIST_BCFG2), 0x48u);
 280              		.loc 1 241 0
 281 007c 0023     		movs	r3, #0
 282 007e 1049     		ldr	r1, .L20+32
 283 0080 0B70     		strb	r3, [r1]
 242:.\Generated_Source\PSoC5/cyfitter_cfg.c **** 	CY_SET_XTND_REG8((void CYFAR *)(CYREG_CLKDIST_MSTR0), 0x00u);
 284              		.loc 1 242 0
 285 0082 4820     		movs	r0, #72
 286 0084 0231     		adds	r1, r1, #2
 287 0086 0870     		strb	r0, [r1]
 243:.\Generated_Source\PSoC5/cyfitter_cfg.c **** 
 288              		.loc 1 243 0
 289 0088 1370     		strb	r3, [r2]
 246:.\Generated_Source\PSoC5/cyfitter_cfg.c **** 	CY_SET_XTND_REG8((void CYFAR *)(CYREG_CLKDIST_LD), 0x02u);
 290              		.loc 1 246 0
 291 008a 0532     		adds	r2, r2, #5
 292 008c 1370     		strb	r3, [r2]
 247:.\Generated_Source\PSoC5/cyfitter_cfg.c **** 
 293              		.loc 1 247 0
 294 008e 0222     		movs	r2, #2
 295 0090 0C4B     		ldr	r3, .L20+36
 296 0092 1A70     		strb	r2, [r3]
 249:.\Generated_Source\PSoC5/cyfitter_cfg.c **** }
 297              		.loc 1 249 0
 298 0094 0C4A     		ldr	r2, .L20+40
 299 0096 1378     		ldrb	r3, [r2]	@ zero_extendqisi2
 300 0098 43F00303 		orr	r3, r3, #3
 301 009c 1370     		strb	r3, [r2]
 302 009e 38BD     		pop	{r3, r4, r5, pc}
 303              	.LVL24:
 304              	.L21:
 305              		.align	2
 306              	.L20:
 307 00a0 80400040 		.word	1073758336
 308 00a4 82400040 		.word	1073758338
 309 00a8 00430040 		.word	1073758976
 310 00ac 0F010049 		.word	1224737039
 311 00b0 A1460040 		.word	1073759905
 312 00b4 22420040 		.word	1073758754
 313 00b8 25420040 		.word	1073758757
 314 00bc 04400040 		.word	1073758212
 315 00c0 06400040 		.word	1073758214
 316 00c4 01400040 		.word	1073758209
 317 00c8 A2430040 		.word	1073759138
 318              		.cfi_endproc
ARM GAS  C:\Users\HANNAL~1\AppData\Local\Temp\ccMy6mI6.s 			page 12


 319              	.LFE5:
 320              		.size	ClockSetup, .-ClockSetup
 321              		.section	.text.CYCONFIGCPY,"ax",%progbits
 322              		.align	2
 323              		.thumb
 324              		.thumb_func
 325              		.type	CYCONFIGCPY, %function
 326              	CYCONFIGCPY:
 327              	.LFB1:
  70:.\Generated_Source\PSoC5/cyfitter_cfg.c **** 	(void)memcpy(dest, src, n);
 328              		.loc 1 70 0
 329              		.cfi_startproc
 330              		@ args = 0, pretend = 0, frame = 0
 331              		@ frame_needed = 0, uses_anonymous_args = 0
 332              	.LVL25:
 333 0000 08B5     		push	{r3, lr}
 334              		.cfi_def_cfa_offset 8
 335              		.cfi_offset 3, -8
 336              		.cfi_offset 14, -4
  71:.\Generated_Source\PSoC5/cyfitter_cfg.c **** }
 337              		.loc 1 71 0
 338 0002 FFF7FEFF 		bl	memcpy
 339              	.LVL26:
 340 0006 08BD     		pop	{r3, pc}
 341              		.cfi_endproc
 342              	.LFE1:
 343              		.size	CYCONFIGCPY, .-CYCONFIGCPY
 344              		.section	.text.SetAnalogRoutingPumps,"ax",%progbits
 345              		.align	2
 346              		.global	SetAnalogRoutingPumps
 347              		.thumb
 348              		.thumb_func
 349              		.type	SetAnalogRoutingPumps, %function
 350              	SetAnalogRoutingPumps:
 351              	.LFB7:
 278:.\Generated_Source\PSoC5/cyfitter_cfg.c **** }
 279:.\Generated_Source\PSoC5/cyfitter_cfg.c **** 
 280:.\Generated_Source\PSoC5/cyfitter_cfg.c **** 
 281:.\Generated_Source\PSoC5/cyfitter_cfg.c **** /*******************************************************************************
 282:.\Generated_Source\PSoC5/cyfitter_cfg.c **** * Function Name: SetAnalogRoutingPumps
 283:.\Generated_Source\PSoC5/cyfitter_cfg.c **** ********************************************************************************
 284:.\Generated_Source\PSoC5/cyfitter_cfg.c **** *
 285:.\Generated_Source\PSoC5/cyfitter_cfg.c **** * Summary:
 286:.\Generated_Source\PSoC5/cyfitter_cfg.c **** * Enables or disables the analog pumps feeding analog routing switches.
 287:.\Generated_Source\PSoC5/cyfitter_cfg.c **** * Intended to be called at startup, based on the Vdda system configuration;
 288:.\Generated_Source\PSoC5/cyfitter_cfg.c **** * may be called during operation when the user informs us that the Vdda voltage
 289:.\Generated_Source\PSoC5/cyfitter_cfg.c **** * crossed the pump threshold.
 290:.\Generated_Source\PSoC5/cyfitter_cfg.c **** *
 291:.\Generated_Source\PSoC5/cyfitter_cfg.c **** * Parameters:
 292:.\Generated_Source\PSoC5/cyfitter_cfg.c **** *  enabled - 1 to enable the pumps, 0 to disable the pumps
 293:.\Generated_Source\PSoC5/cyfitter_cfg.c **** *
 294:.\Generated_Source\PSoC5/cyfitter_cfg.c **** * Return:
 295:.\Generated_Source\PSoC5/cyfitter_cfg.c **** *  void
 296:.\Generated_Source\PSoC5/cyfitter_cfg.c **** *
 297:.\Generated_Source\PSoC5/cyfitter_cfg.c **** *******************************************************************************/
 298:.\Generated_Source\PSoC5/cyfitter_cfg.c **** void SetAnalogRoutingPumps(uint8 enabled)
 299:.\Generated_Source\PSoC5/cyfitter_cfg.c **** {
ARM GAS  C:\Users\HANNAL~1\AppData\Local\Temp\ccMy6mI6.s 			page 13


 352              		.loc 1 299 0
 353              		.cfi_startproc
 354              		@ args = 0, pretend = 0, frame = 0
 355              		@ frame_needed = 0, uses_anonymous_args = 0
 356              		@ link register save eliminated.
 357              	.LVL27:
 300:.\Generated_Source\PSoC5/cyfitter_cfg.c **** 	uint8 regValue = CY_GET_XTND_REG8((void CYFAR *)CYREG_PUMP_CR0);
 358              		.loc 1 300 0
 359 0000 024A     		ldr	r2, .L25
 360 0002 1378     		ldrb	r3, [r2]	@ zero_extendqisi2
 361 0004 DBB2     		uxtb	r3, r3
 362              	.LVL28:
 301:.\Generated_Source\PSoC5/cyfitter_cfg.c **** 	if (enabled != 0u)
 302:.\Generated_Source\PSoC5/cyfitter_cfg.c **** 	{
 303:.\Generated_Source\PSoC5/cyfitter_cfg.c **** 		regValue |= 0x00u;
 304:.\Generated_Source\PSoC5/cyfitter_cfg.c **** 	}
 305:.\Generated_Source\PSoC5/cyfitter_cfg.c **** 	else
 306:.\Generated_Source\PSoC5/cyfitter_cfg.c **** 	{
 307:.\Generated_Source\PSoC5/cyfitter_cfg.c **** 		regValue &= (uint8)~0x00u;
 308:.\Generated_Source\PSoC5/cyfitter_cfg.c **** 	}
 309:.\Generated_Source\PSoC5/cyfitter_cfg.c **** 	CY_SET_XTND_REG8((void CYFAR *)CYREG_PUMP_CR0, regValue);
 363              		.loc 1 309 0
 364 0006 1370     		strb	r3, [r2]
 365 0008 7047     		bx	lr
 366              	.L26:
 367 000a 00BF     		.align	2
 368              	.L25:
 369 000c 76580040 		.word	1073764470
 370              		.cfi_endproc
 371              	.LFE7:
 372              		.size	SetAnalogRoutingPumps, .-SetAnalogRoutingPumps
 373              		.section	.text.cyfitter_cfg,"ax",%progbits
 374              		.align	2
 375              		.global	cyfitter_cfg
 376              		.thumb
 377              		.thumb_func
 378              		.type	cyfitter_cfg, %function
 379              	cyfitter_cfg:
 380              	.LFB8:
 310:.\Generated_Source\PSoC5/cyfitter_cfg.c **** }
 311:.\Generated_Source\PSoC5/cyfitter_cfg.c **** 
 312:.\Generated_Source\PSoC5/cyfitter_cfg.c **** #define CY_AMUX_UNUSED CYREG_BOOST_SR
 313:.\Generated_Source\PSoC5/cyfitter_cfg.c **** 
 314:.\Generated_Source\PSoC5/cyfitter_cfg.c **** 
 315:.\Generated_Source\PSoC5/cyfitter_cfg.c **** /*******************************************************************************
 316:.\Generated_Source\PSoC5/cyfitter_cfg.c **** * Function Name: cyfitter_cfg
 317:.\Generated_Source\PSoC5/cyfitter_cfg.c **** ********************************************************************************
 318:.\Generated_Source\PSoC5/cyfitter_cfg.c **** * Summary:
 319:.\Generated_Source\PSoC5/cyfitter_cfg.c **** *  This function is called by the start-up code for the selected device. It
 320:.\Generated_Source\PSoC5/cyfitter_cfg.c **** *  performs all of the necessary device configuration based on the design
 321:.\Generated_Source\PSoC5/cyfitter_cfg.c **** *  settings.  This includes settings from the Design Wide Resources (DWR) such
 322:.\Generated_Source\PSoC5/cyfitter_cfg.c **** *  as Clocks and Pins as well as any component configuration that is necessary.
 323:.\Generated_Source\PSoC5/cyfitter_cfg.c **** *
 324:.\Generated_Source\PSoC5/cyfitter_cfg.c **** * Parameters:  
 325:.\Generated_Source\PSoC5/cyfitter_cfg.c **** *   void
 326:.\Generated_Source\PSoC5/cyfitter_cfg.c **** *
 327:.\Generated_Source\PSoC5/cyfitter_cfg.c **** * Return:
ARM GAS  C:\Users\HANNAL~1\AppData\Local\Temp\ccMy6mI6.s 			page 14


 328:.\Generated_Source\PSoC5/cyfitter_cfg.c **** *   void
 329:.\Generated_Source\PSoC5/cyfitter_cfg.c **** *
 330:.\Generated_Source\PSoC5/cyfitter_cfg.c **** *******************************************************************************/
 331:.\Generated_Source\PSoC5/cyfitter_cfg.c **** 
 332:.\Generated_Source\PSoC5/cyfitter_cfg.c **** void cyfitter_cfg(void)
 333:.\Generated_Source\PSoC5/cyfitter_cfg.c **** {
 381              		.loc 1 333 0
 382              		.cfi_startproc
 383              		@ args = 0, pretend = 0, frame = 0
 384              		@ frame_needed = 0, uses_anonymous_args = 0
 385 0000 70B5     		push	{r4, r5, r6, lr}
 386              		.cfi_def_cfa_offset 16
 387              		.cfi_offset 4, -16
 388              		.cfi_offset 5, -12
 389              		.cfi_offset 6, -8
 390              		.cfi_offset 14, -4
 334:.\Generated_Source\PSoC5/cyfitter_cfg.c **** #ifdef CYGlobalIntDisable
 335:.\Generated_Source\PSoC5/cyfitter_cfg.c **** 	/* Disable interrupts by default. Let user enable if/when they want. */
 336:.\Generated_Source\PSoC5/cyfitter_cfg.c **** 	CYGlobalIntDisable
 391              		.loc 1 336 0
 392              	@ 336 ".\Generated_Source\PSoC5\cyfitter_cfg.c" 1
 393 0002 72B6     		CPSID   i
 394              	@ 0 "" 2
 337:.\Generated_Source\PSoC5/cyfitter_cfg.c **** #endif
 338:.\Generated_Source\PSoC5/cyfitter_cfg.c **** 
 339:.\Generated_Source\PSoC5/cyfitter_cfg.c **** 	/* Enable/Disable Debug functionality based on settings from System DWR */
 340:.\Generated_Source\PSoC5/cyfitter_cfg.c **** 	CY_SET_XTND_REG8((void CYFAR *)CYREG_MLOGIC_DEBUG, (CY_GET_XTND_REG8((void CYFAR *)CYREG_MLOGIC_DE
 395              		.loc 1 340 0
 396              		.thumb
 397 0004 354A     		ldr	r2, .L33
 398 0006 1378     		ldrb	r3, [r2]	@ zero_extendqisi2
 399 0008 43F00403 		orr	r3, r3, #4
 400 000c 1370     		strb	r3, [r2]
 401              	.LVL29:
 402              	.LBB3:
 341:.\Generated_Source\PSoC5/cyfitter_cfg.c **** 
 342:.\Generated_Source\PSoC5/cyfitter_cfg.c **** 	{
 343:.\Generated_Source\PSoC5/cyfitter_cfg.c **** 
 344:.\Generated_Source\PSoC5/cyfitter_cfg.c **** 		CYPACKED typedef struct {
 345:.\Generated_Source\PSoC5/cyfitter_cfg.c **** 			void CYFAR *address;
 346:.\Generated_Source\PSoC5/cyfitter_cfg.c **** 			uint16 size;
 347:.\Generated_Source\PSoC5/cyfitter_cfg.c **** 		} CYPACKED_ATTR cfg_memset_t;
 348:.\Generated_Source\PSoC5/cyfitter_cfg.c **** 
 349:.\Generated_Source\PSoC5/cyfitter_cfg.c **** 
 350:.\Generated_Source\PSoC5/cyfitter_cfg.c **** 		CYPACKED typedef struct {
 351:.\Generated_Source\PSoC5/cyfitter_cfg.c **** 			void CYFAR *dest;
 352:.\Generated_Source\PSoC5/cyfitter_cfg.c **** 			const void CYFAR *src;
 353:.\Generated_Source\PSoC5/cyfitter_cfg.c **** 			uint16 size;
 354:.\Generated_Source\PSoC5/cyfitter_cfg.c **** 		} CYPACKED_ATTR cfg_memcpy_t;
 355:.\Generated_Source\PSoC5/cyfitter_cfg.c **** 
 356:.\Generated_Source\PSoC5/cyfitter_cfg.c **** 		static const cfg_memset_t CYCODE cfg_memset_list [] = {
 357:.\Generated_Source\PSoC5/cyfitter_cfg.c **** 			/* address, size */
 358:.\Generated_Source\PSoC5/cyfitter_cfg.c **** 			{(void CYFAR *)(CYREG_PRT0_DR), 32u},
 359:.\Generated_Source\PSoC5/cyfitter_cfg.c **** 			{(void CYFAR *)(CYREG_PRT3_DR), 32u},
 360:.\Generated_Source\PSoC5/cyfitter_cfg.c **** 			{(void CYFAR *)(CYREG_PRT15_DR), 16u},
 361:.\Generated_Source\PSoC5/cyfitter_cfg.c **** 			{(void CYFAR *)(CYDEV_UCFG_B0_P0_U0_BASE), 2560u},
 362:.\Generated_Source\PSoC5/cyfitter_cfg.c **** 			{(void CYFAR *)(CYDEV_UCFG_B0_P5_U1_BASE), 1408u},
ARM GAS  C:\Users\HANNAL~1\AppData\Local\Temp\ccMy6mI6.s 			page 15


 363:.\Generated_Source\PSoC5/cyfitter_cfg.c **** 			{(void CYFAR *)(CYDEV_UCFG_B1_P2_U0_BASE), 2048u},
 364:.\Generated_Source\PSoC5/cyfitter_cfg.c **** 			{(void CYFAR *)(CYDEV_UCFG_DSI0_BASE), 2560u},
 365:.\Generated_Source\PSoC5/cyfitter_cfg.c **** 			{(void CYFAR *)(CYDEV_UCFG_DSI12_BASE), 512u},
 366:.\Generated_Source\PSoC5/cyfitter_cfg.c **** 			{(void CYFAR *)(CYREG_BCTL0_MDCLK_EN), 32u},
 367:.\Generated_Source\PSoC5/cyfitter_cfg.c **** 		};
 368:.\Generated_Source\PSoC5/cyfitter_cfg.c **** 
 369:.\Generated_Source\PSoC5/cyfitter_cfg.c **** 		static const cfg_memcpy_t CYCODE cfg_memcpy_list [] = {
 370:.\Generated_Source\PSoC5/cyfitter_cfg.c **** 			/* dest, src, size */
 371:.\Generated_Source\PSoC5/cyfitter_cfg.c **** 			{(void CYFAR *)(CYDEV_UCFG_B0_P5_U0_BASE), BS_UDB_0_3_0_CONFIG_VAL, 128u},
 372:.\Generated_Source\PSoC5/cyfitter_cfg.c **** 		};
 373:.\Generated_Source\PSoC5/cyfitter_cfg.c **** 
 374:.\Generated_Source\PSoC5/cyfitter_cfg.c **** 		uint8 CYDATA i;
 375:.\Generated_Source\PSoC5/cyfitter_cfg.c **** 
 376:.\Generated_Source\PSoC5/cyfitter_cfg.c **** 		/* Zero out critical memory blocks before beginning configuration */
 377:.\Generated_Source\PSoC5/cyfitter_cfg.c **** 		for (i = 0u; i < (sizeof(cfg_memset_list)/sizeof(cfg_memset_list[0])); i++)
 403              		.loc 1 377 0
 404 000e 0024     		movs	r4, #0
 405 0010 0CE0     		b	.L28
 406              	.LVL30:
 407              	.L29:
 408              	.LBB4:
 378:.\Generated_Source\PSoC5/cyfitter_cfg.c **** 		{
 379:.\Generated_Source\PSoC5/cyfitter_cfg.c **** 			const cfg_memset_t CYCODE * CYDATA ms = &cfg_memset_list[i];
 380:.\Generated_Source\PSoC5/cyfitter_cfg.c **** 			CYMEMZERO(ms->address, (size_t)(uint32)(ms->size));
 409              		.loc 1 380 0 discriminator 3
 410 0012 3349     		ldr	r1, .L33+4
 411 0014 6300     		lsls	r3, r4, #1
 412 0016 1A19     		adds	r2, r3, r4
 413 0018 5200     		lsls	r2, r2, #1
 414 001a 0A44     		add	r2, r2, r1
 415 001c 2344     		add	r3, r3, r4
 416 001e 5B00     		lsls	r3, r3, #1
 417 0020 C858     		ldr	r0, [r1, r3]	@ unaligned
 418 0022 9188     		ldrh	r1, [r2, #4]
 419 0024 FFF7FEFF 		bl	CYMEMZERO
 420              	.LVL31:
 421              	.LBE4:
 377:.\Generated_Source\PSoC5/cyfitter_cfg.c **** 		{
 422              		.loc 1 377 0 discriminator 3
 423 0028 0134     		adds	r4, r4, #1
 424              	.LVL32:
 425 002a E4B2     		uxtb	r4, r4
 426              	.LVL33:
 427              	.L28:
 377:.\Generated_Source\PSoC5/cyfitter_cfg.c **** 		{
 428              		.loc 1 377 0 is_stmt 0 discriminator 1
 429 002c 082C     		cmp	r4, #8
 430 002e F0D9     		bls	.L29
 431 0030 0024     		movs	r4, #0
 432              	.LVL34:
 433 0032 0BE0     		b	.L30
 434              	.LVL35:
 435              	.L31:
 436              	.LBB5:
 381:.\Generated_Source\PSoC5/cyfitter_cfg.c **** 		}
 382:.\Generated_Source\PSoC5/cyfitter_cfg.c **** 
 383:.\Generated_Source\PSoC5/cyfitter_cfg.c **** 		/* Copy device configuration data into registers */
ARM GAS  C:\Users\HANNAL~1\AppData\Local\Temp\ccMy6mI6.s 			page 16


 384:.\Generated_Source\PSoC5/cyfitter_cfg.c **** 		for (i = 0u; i < (sizeof(cfg_memcpy_list)/sizeof(cfg_memcpy_list[0])); i++)
 385:.\Generated_Source\PSoC5/cyfitter_cfg.c **** 		{
 386:.\Generated_Source\PSoC5/cyfitter_cfg.c **** 			const cfg_memcpy_t CYCODE * CYDATA mc = &cfg_memcpy_list[i];
 387:.\Generated_Source\PSoC5/cyfitter_cfg.c **** 			void * CYDATA destPtr = mc->dest;
 437              		.loc 1 387 0 is_stmt 1 discriminator 3
 438 0034 2A49     		ldr	r1, .L33+4
 439 0036 A300     		lsls	r3, r4, #2
 440 0038 1A19     		adds	r2, r3, r4
 441 003a 5200     		lsls	r2, r2, #1
 442 003c 0A44     		add	r2, r2, r1
 443              	.LVL36:
 388:.\Generated_Source\PSoC5/cyfitter_cfg.c **** 			const void * CYDATA srcPtr = mc->src;
 389:.\Generated_Source\PSoC5/cyfitter_cfg.c **** 			uint16 CYDATA numBytes = mc->size;
 390:.\Generated_Source\PSoC5/cyfitter_cfg.c **** 			CYCONFIGCPY(destPtr, srcPtr, numBytes);
 444              		.loc 1 390 0 discriminator 3
 445 003e 906B     		ldr	r0, [r2, #56]	@ unaligned
 446              	.LVL37:
 447 0040 D16B     		ldr	r1, [r2, #60]	@ unaligned
 448              	.LVL38:
 449 0042 8022     		movs	r2, #128
 450 0044 FFF7FEFF 		bl	CYCONFIGCPY
 451              	.LVL39:
 452              	.LBE5:
 384:.\Generated_Source\PSoC5/cyfitter_cfg.c **** 		{
 453              		.loc 1 384 0 discriminator 3
 454 0048 0134     		adds	r4, r4, #1
 455              	.LVL40:
 456 004a E4B2     		uxtb	r4, r4
 457              	.LVL41:
 458              	.L30:
 384:.\Generated_Source\PSoC5/cyfitter_cfg.c **** 		{
 459              		.loc 1 384 0 is_stmt 0 discriminator 1
 460 004c 002C     		cmp	r4, #0
 461 004e F1D0     		beq	.L31
 391:.\Generated_Source\PSoC5/cyfitter_cfg.c **** 		}
 392:.\Generated_Source\PSoC5/cyfitter_cfg.c **** 
 393:.\Generated_Source\PSoC5/cyfitter_cfg.c **** 		cfg_write_bytes32(cy_cfg_addr_table, cy_cfg_data_table);
 462              		.loc 1 393 0 is_stmt 1
 463 0050 4FF09040 		mov	r0, #1207959552
 464 0054 2349     		ldr	r1, .L33+8
 465 0056 FFF7FEFF 		bl	cfg_write_bytes32
 466              	.LVL42:
 394:.\Generated_Source\PSoC5/cyfitter_cfg.c **** 
 395:.\Generated_Source\PSoC5/cyfitter_cfg.c **** 		/* Enable digital routing */
 396:.\Generated_Source\PSoC5/cyfitter_cfg.c **** 		CY_SET_XTND_REG8((void CYFAR *)CYREG_BCTL0_BANK_CTL, CY_GET_XTND_REG8((void CYFAR *)CYREG_BCTL0_B
 467              		.loc 1 396 0
 468 005a 234A     		ldr	r2, .L33+12
 469 005c 1378     		ldrb	r3, [r2]	@ zero_extendqisi2
 470 005e 43F00203 		orr	r3, r3, #2
 471 0062 1370     		strb	r3, [r2]
 397:.\Generated_Source\PSoC5/cyfitter_cfg.c **** 		CY_SET_XTND_REG8((void CYFAR *)CYREG_BCTL1_BANK_CTL, CY_GET_XTND_REG8((void CYFAR *)CYREG_BCTL1_B
 472              		.loc 1 397 0
 473 0064 1032     		adds	r2, r2, #16
 474 0066 1378     		ldrb	r3, [r2]	@ zero_extendqisi2
 475 0068 43F00203 		orr	r3, r3, #2
 476 006c 1370     		strb	r3, [r2]
 398:.\Generated_Source\PSoC5/cyfitter_cfg.c **** 
ARM GAS  C:\Users\HANNAL~1\AppData\Local\Temp\ccMy6mI6.s 			page 17


 399:.\Generated_Source\PSoC5/cyfitter_cfg.c **** 		/* Enable UDB array */
 400:.\Generated_Source\PSoC5/cyfitter_cfg.c **** 		CY_SET_XTND_REG8((void CYFAR *)CYREG_PM_ACT_CFG0, CY_GET_XTND_REG8((void CYFAR *)CYREG_PM_ACT_CFG
 477              		.loc 1 400 0
 478 006e 1F4C     		ldr	r4, .L33+16
 479              	.LVL43:
 480 0070 2378     		ldrb	r3, [r4]	@ zero_extendqisi2
 481 0072 43F04003 		orr	r3, r3, #64
 482 0076 2370     		strb	r3, [r4]
 401:.\Generated_Source\PSoC5/cyfitter_cfg.c **** 		CY_SET_XTND_REG8((void CYFAR *)CYREG_PM_AVAIL_CR2, CY_GET_XTND_REG8((void CYFAR *)CYREG_PM_AVAIL_
 483              		.loc 1 401 0
 484 0078 A2F58632 		sub	r2, r2, #68608
 485 007c 513A     		subs	r2, r2, #81
 486 007e 1378     		ldrb	r3, [r2]	@ zero_extendqisi2
 487 0080 43F01003 		orr	r3, r3, #16
 488 0084 1370     		strb	r3, [r2]
 489              	.LBE3:
 402:.\Generated_Source\PSoC5/cyfitter_cfg.c **** 	}
 403:.\Generated_Source\PSoC5/cyfitter_cfg.c **** 
 404:.\Generated_Source\PSoC5/cyfitter_cfg.c **** 
 405:.\Generated_Source\PSoC5/cyfitter_cfg.c **** 	/* Perform second pass device configuration. These items must be configured in specific order afte
 406:.\Generated_Source\PSoC5/cyfitter_cfg.c **** 	CYCONFIGCPY((void CYFAR *)(CYREG_PRT12_DR), (const void CYFAR *)(BS_IOPINS0_7_VAL), 10u);
 490              		.loc 1 406 0
 491 0086 1A48     		ldr	r0, .L33+20
 492 0088 1A49     		ldr	r1, .L33+24
 493 008a 0A22     		movs	r2, #10
 494 008c FFF7FEFF 		bl	CYCONFIGCPY
 495              	.LVL44:
 407:.\Generated_Source\PSoC5/cyfitter_cfg.c **** 	CYCONFIGCPY((void CYFAR *)(CYREG_PRT2_DM0), (const void CYFAR *)(BS_IOPINS0_2_VAL), 8u);
 496              		.loc 1 407 0
 497 0090 1948     		ldr	r0, .L33+28
 498 0092 1A49     		ldr	r1, .L33+32
 499 0094 0822     		movs	r2, #8
 500 0096 FFF7FEFF 		bl	CYCONFIGCPY
 501              	.LVL45:
 408:.\Generated_Source\PSoC5/cyfitter_cfg.c **** 	CYCONFIGCPY((void CYFAR *)(CYREG_PRT5_DM0), (const void CYFAR *)(BS_IOPINS0_5_VAL), 8u);
 502              		.loc 1 408 0
 503 009a 1948     		ldr	r0, .L33+36
 504 009c 1949     		ldr	r1, .L33+40
 505 009e 0822     		movs	r2, #8
 506 00a0 FFF7FEFF 		bl	CYCONFIGCPY
 507              	.LVL46:
 409:.\Generated_Source\PSoC5/cyfitter_cfg.c **** 	CYCONFIGCPY((void CYFAR *)(CYREG_PRT6_DM0), (const void CYFAR *)(BS_IOPINS0_6_VAL), 8u);
 508              		.loc 1 409 0
 509 00a4 1848     		ldr	r0, .L33+44
 510 00a6 1949     		ldr	r1, .L33+48
 511 00a8 0822     		movs	r2, #8
 512 00aa FFF7FEFF 		bl	CYCONFIGCPY
 513              	.LVL47:
 410:.\Generated_Source\PSoC5/cyfitter_cfg.c **** 	/* Switch Boost to the precision bandgap reference from its internal reference */
 411:.\Generated_Source\PSoC5/cyfitter_cfg.c **** 	CY_SET_REG8((void CYXDATA *)CYREG_BOOST_CR2, (CY_GET_REG8((void CYXDATA *)CYREG_BOOST_CR2) | 0x08u
 514              		.loc 1 411 0
 515 00ae 184A     		ldr	r2, .L33+52
 516 00b0 1378     		ldrb	r3, [r2]	@ zero_extendqisi2
 517 00b2 43F00803 		orr	r3, r3, #8
 518 00b6 1370     		strb	r3, [r2]
 412:.\Generated_Source\PSoC5/cyfitter_cfg.c **** 
 413:.\Generated_Source\PSoC5/cyfitter_cfg.c **** 	/* Set Flash Cycles based on max possible frequency in case a glitch occurs during ClockSetup(). *
ARM GAS  C:\Users\HANNAL~1\AppData\Local\Temp\ccMy6mI6.s 			page 18


 414:.\Generated_Source\PSoC5/cyfitter_cfg.c **** 	CY_SET_XTND_REG8((void CYFAR *)(CYREG_CACHE_CC_CTL), (((CYDEV_INSTRUCT_CACHE_ENABLED) != 0) ? 0x01
 519              		.loc 1 414 0
 520 00b8 164E     		ldr	r6, .L33+56
 521 00ba 0125     		movs	r5, #1
 522 00bc 3570     		strb	r5, [r6]
 415:.\Generated_Source\PSoC5/cyfitter_cfg.c **** 	/* Setup clocks based on selections from Clock DWR */
 416:.\Generated_Source\PSoC5/cyfitter_cfg.c **** 	ClockSetup();
 523              		.loc 1 416 0
 524 00be FFF7FEFF 		bl	ClockSetup
 525              	.LVL48:
 417:.\Generated_Source\PSoC5/cyfitter_cfg.c **** 	/* Set Flash Cycles based on newly configured 48.00MHz Bus Clock. */
 418:.\Generated_Source\PSoC5/cyfitter_cfg.c **** 	CY_SET_XTND_REG8((void CYFAR *)(CYREG_CACHE_CC_CTL), (((CYDEV_INSTRUCT_CACHE_ENABLED) != 0) ? 0xC1
 526              		.loc 1 418 0
 527 00c2 C123     		movs	r3, #193
 528 00c4 3370     		strb	r3, [r6]
 419:.\Generated_Source\PSoC5/cyfitter_cfg.c **** 	CY_SET_XTND_REG8((void CYFAR *)(CYREG_PANTHER_WAITPIPE), 0x01u);
 529              		.loc 1 419 0
 530 00c6 144B     		ldr	r3, .L33+60
 531 00c8 1D70     		strb	r5, [r3]
 420:.\Generated_Source\PSoC5/cyfitter_cfg.c **** 
 421:.\Generated_Source\PSoC5/cyfitter_cfg.c **** 	/* Perform basic analog initialization to defaults */
 422:.\Generated_Source\PSoC5/cyfitter_cfg.c **** 	AnalogSetDefault();
 532              		.loc 1 422 0
 533 00ca FFF7FEFF 		bl	AnalogSetDefault
 534              	.LVL49:
 423:.\Generated_Source\PSoC5/cyfitter_cfg.c **** 
 424:.\Generated_Source\PSoC5/cyfitter_cfg.c **** 	/* Configure alternate active mode */
 425:.\Generated_Source\PSoC5/cyfitter_cfg.c **** 	CYCONFIGCPY((void CYFAR *)CYDEV_PM_STBY_BASE, (const void CYFAR *)CYDEV_PM_ACT_BASE, 14u);
 535              		.loc 1 425 0
 536 00ce 1348     		ldr	r0, .L33+64
 537 00d0 2146     		mov	r1, r4
 538 00d2 0E22     		movs	r2, #14
 539 00d4 FFF7FEFF 		bl	CYCONFIGCPY
 540              	.LVL50:
 541 00d8 70BD     		pop	{r4, r5, r6, pc}
 542              	.L34:
 543 00da 00BF     		.align	2
 544              	.L33:
 545 00dc E8460040 		.word	1073759976
 546 00e0 00000000 		.word	.LANCHOR0
 547 00e4 70000048 		.word	1207959664
 548 00e8 03500140 		.word	1073827843
 549 00ec A0430040 		.word	1073759136
 550 00f0 C0510040 		.word	1073762752
 551 00f4 B8050048 		.word	1207961016
 552 00f8 22510040 		.word	1073762594
 553 00fc C4050048 		.word	1207961028
 554 0100 52510040 		.word	1073762642
 555 0104 CC050048 		.word	1207961036
 556 0108 62510040 		.word	1073762658
 557 010c D4050048 		.word	1207961044
 558 0110 22430040 		.word	1073759010
 559 0114 00480040 		.word	1073760256
 560 0118 04000840 		.word	1074266116
 561 011c B0430040 		.word	1073759152
 562              		.cfi_endproc
 563              	.LFE8:
ARM GAS  C:\Users\HANNAL~1\AppData\Local\Temp\ccMy6mI6.s 			page 19


 564              		.size	cyfitter_cfg, .-cyfitter_cfg
 565              		.section	.rodata
 566              		.align	2
 567              		.set	.LANCHOR0,. + 0
 568              		.type	cfg_memset_list.4885, %object
 569              		.size	cfg_memset_list.4885, 54
 570              	cfg_memset_list.4885:
 571 0000 00510040 		.word	1073762560
 572 0004 2000     		.short	32
 573 0006 30510040 		.4byte	1073762608
 574 000a 2000     		.short	32
 575 000c F0510040 		.word	1073762800
 576 0010 1000     		.short	16
 577 0012 00000140 		.4byte	1073807360
 578 0016 000A     		.short	2560
 579 0018 800A0140 		.word	1073810048
 580 001c 8005     		.short	1408
 581 001e 00140140 		.4byte	1073812480
 582 0022 0008     		.short	2048
 583 0024 00400140 		.word	1073823744
 584 0028 000A     		.short	2560
 585 002a 004C0140 		.4byte	1073826816
 586 002e 0002     		.short	512
 587 0030 00500140 		.word	1073827840
 588 0034 2000     		.short	32
 589 0036 0000     		.space	2
 590              		.type	cfg_memcpy_list.4886, %object
 591              		.size	cfg_memcpy_list.4886, 10
 592              	cfg_memcpy_list.4886:
 593 0038 000A0140 		.word	1073809920
 594 003c 38050048 		.word	1207960888
 595 0040 8000     		.short	128
 596 0042 0000     		.text
 597              	.Letext0:
 598              		.file 2 "c:\\program files (x86)\\cypress\\psoc creator\\3.3\\psoc creator\\import\\gnu\\arm\\4.9.
 599              		.file 3 ".\\Generated_Source\\PSoC5\\cytypes.h"
 600              		.file 4 ".\\Generated_Source\\PSoC5\\CyLib.h"