ARM GAS  C:\Users\HANNAL~1\AppData\Local\Temp\ccQ1P14n.s 			page 1


   1              		.syntax unified
   2              		.cpu cortex-m3
   3              		.fpu softvfp
   4              		.eabi_attribute 20, 1
   5              		.eabi_attribute 21, 1
   6              		.eabi_attribute 23, 3
   7              		.eabi_attribute 24, 1
   8              		.eabi_attribute 25, 1
   9              		.eabi_attribute 26, 1
  10              		.eabi_attribute 30, 1
  11              		.eabi_attribute 34, 1
  12              		.eabi_attribute 18, 4
  13              		.thumb
  14              		.file	"main.c"
  15              		.text
  16              	.Ltext0:
  17              		.cfi_sections	.debug_frame
  18              		.section	.text.RX_INT,"ax",%progbits
  19              		.align	2
  20              		.global	RX_INT
  21              		.thumb
  22              		.thumb_func
  23              		.type	RX_INT, %function
  24              	RX_INT:
  25              	.LFB63:
  26              		.file 1 ".\\main.c"
   1:.\main.c      **** /* ========================================
   2:.\main.c      ****  *
   3:.\main.c      ****  * Copyright YOUR COMPANY, THE YEAR
   4:.\main.c      ****  * All Rights Reserved
   5:.\main.c      ****  * UNPUBLISHED, LICENSED SOFTWARE.
   6:.\main.c      ****  *
   7:.\main.c      ****  * CONFIDENTIAL AND PROPRIETARY INFORMATION
   8:.\main.c      ****  * WHICH IS THE PROPERTY OF your company.
   9:.\main.c      ****  *
  10:.\main.c      ****  * ========================================
  11:.\main.c      **** */
  12:.\main.c      **** 
  13:.\main.c      **** #include <project.h>
  14:.\main.c      **** #include <stdio.h>
  15:.\main.c      **** #include <stdbool.h>
  16:.\main.c      **** #include <nrf.h>
  17:.\main.c      **** 
  18:.\main.c      **** // Declare constants
  19:.\main.c      **** const uint8 rxMode = 11; // decimal 11 = binary 00001011
  20:.\main.c      **** const uint8 txMode = 10; // decimal 10 = binary 00001010
  21:.\main.c      **** uint8 txPipe[5] = {0xe1, 0xf0, 0xf0, 0xf0, 0xf0}; // LSByte first
  22:.\main.c      **** uint8 rxPipe[5] = {0xd2, 0xf0, 0xf0, 0xf0, 0xf0};
  23:.\main.c      **** 
  24:.\main.c      **** // Declare global variables
  25:.\main.c      **** uint8 psocByte;
  26:.\main.c      **** uint8 rfByte;
  27:.\main.c      **** uint8 statusByte;
  28:.\main.c      **** uint8 throwaway;
  29:.\main.c      **** uint8 clearRXDR = 0b10111111;
  30:.\main.c      **** char printbuf[8];
  31:.\main.c      **** 
ARM GAS  C:\Users\HANNAL~1\AppData\Local\Temp\ccQ1P14n.s 			page 2


  32:.\main.c      **** // Declare functions
  33:.\main.c      **** void setup();
  34:.\main.c      **** 
  35:.\main.c      **** void nrfInit();
  36:.\main.c      **** bool nrfDataAvailable();
  37:.\main.c      **** uint8 readRegister(uint8 reg);
  38:.\main.c      **** void writeRegister(uint8 reg, uint8 data);
  39:.\main.c      **** void writeRegisterLong(uint8 reg, uint8* data, int len);
  40:.\main.c      **** void nrfRegisterTest();
  41:.\main.c      **** void nrfReceiveTest(); // listens for transmissions and prints to UART
  42:.\main.c      **** uint8 nrfReadByte(); // configures NRF to RX mode and reads a byte out of FIFO queue
  43:.\main.c      **** void ce(uint8 byte);
  44:.\main.c      **** void csn(uint8 byte);
  45:.\main.c      **** 
  46:.\main.c      **** void spiWrite(uint8 byte);
  47:.\main.c      **** uint8 spiRead();
  48:.\main.c      **** 
  49:.\main.c      **** void blink();
  50:.\main.c      **** void stop();
  51:.\main.c      **** void printByte(uint8 byte);
  52:.\main.c      **** void print(char *string);
  53:.\main.c      **** void printRxBuffer();
  54:.\main.c      **** 
  55:.\main.c      **** void sendSquareWave();
  56:.\main.c      **** void echoR31JP();
  57:.\main.c      **** 
  58:.\main.c      **** // Interrupt received for new Rx data on UART
  59:.\main.c      **** // Won't work unless the line rx_int_StartEx(RX_INT) is uncommented in setup()
  60:.\main.c      **** CY_ISR(RX_INT)
  61:.\main.c      **** {
  27              		.loc 1 61 0
  28              		.cfi_startproc
  29              		@ args = 0, pretend = 0, frame = 0
  30              		@ frame_needed = 0, uses_anonymous_args = 0
  31 0000 08B5     		push	{r3, lr}
  32              		.cfi_def_cfa_offset 8
  33              		.cfi_offset 3, -8
  34              		.cfi_offset 14, -4
  62:.\main.c      ****     LCD_Char_1_PutChar(UART_1_ReadRxData());     // RX ISR
  35              		.loc 1 62 0
  36 0002 FFF7FEFF 		bl	UART_1_ReadRxData
  37              	.LVL0:
  38 0006 FFF7FEFF 		bl	LCD_Char_1_PutChar
  39              	.LVL1:
  40 000a 08BD     		pop	{r3, pc}
  41              		.cfi_endproc
  42              	.LFE63:
  43              		.size	RX_INT, .-RX_INT
  44              		.section	.text.spiWrite,"ax",%progbits
  45              		.align	2
  46              		.global	spiWrite
  47              		.thumb
  48              		.thumb_func
  49              		.type	spiWrite, %function
  50              	spiWrite:
  51              	.LFB74:
  63:.\main.c      **** }
ARM GAS  C:\Users\HANNAL~1\AppData\Local\Temp\ccQ1P14n.s 			page 3


  64:.\main.c      **** 
  65:.\main.c      **** // Main function
  66:.\main.c      **** // Sends bytes from PC -> PSOC -> NRF24L01 -> PSOC -> PC
  67:.\main.c      **** int main()
  68:.\main.c      **** {
  69:.\main.c      ****     
  70:.\main.c      ****     /* Place your initialization/startup code here (e.g. MyInst_Start()) */  
  71:.\main.c      ****     setup();
  72:.\main.c      ****     
  73:.\main.c      ****     for(;;)
  74:.\main.c      ****     {
  75:.\main.c      ****         /* R31JP Interaction Testing */
  76:.\main.c      ****         
  77:.\main.c      ****         // Send a square wave to the R31JP over UART
  78:.\main.c      ****         // sendSquareWave();
  79:.\main.c      ****         // Receive and echo bytes back to the R31JP
  80:.\main.c      ****         // echoR31JP();
  81:.\main.c      ****        
  82:.\main.c      ****         /* NRF TESTING */
  83:.\main.c      ****         
  84:.\main.c      ****         nrfReceiveTest();
  85:.\main.c      ****         
  86:.\main.c      ****         // Test reading and writing to registers in NRF24L01
  87:.\main.c      ****         // nrfRegisterTest();
  88:.\main.c      ****         
  89:.\main.c      ****     }
  90:.\main.c      **** }
  91:.\main.c      **** 
  92:.\main.c      **** void setup() {
  93:.\main.c      ****     CyGlobalIntEnable; /* Enable global interrupts. */
  94:.\main.c      ****     //rx_int_StartEx(RX_INT);
  95:.\main.c      ****     
  96:.\main.c      ****     // Initialize LCD, UART, and SPI Master
  97:.\main.c      ****     LCD_Char_1_Start();
  98:.\main.c      ****     LCD_Char_1_ClearDisplay();
  99:.\main.c      ****     UART_1_Start();
 100:.\main.c      ****     SPIM_1_Start();
 101:.\main.c      ****     // Clear buffers
 102:.\main.c      ****     UART_1_ClearRxBuffer();
 103:.\main.c      ****     UART_1_ClearTxBuffer();
 104:.\main.c      ****     SPIM_1_ClearRxBuffer();
 105:.\main.c      ****     SPIM_1_ClearTxBuffer();
 106:.\main.c      ****     
 107:.\main.c      ****     // Enable certain interrupts for UART so we can tell when
 108:.\main.c      ****     // we've received a byte or when a transmission is complete
 109:.\main.c      ****     UART_1_SetRxInterruptMode(UART_1_RX_STS_FIFO_NOTEMPTY);
 110:.\main.c      ****     UART_1_SetTxInterruptMode(UART_1_TX_STS_COMPLETE);
 111:.\main.c      ****     
 112:.\main.c      ****     nrfInit();
 113:.\main.c      ****     
 114:.\main.c      ****     // Turn on the LED, write to the LCD
 115:.\main.c      ****     Pin_1_Write(1);
 116:.\main.c      ****     LCD_Char_1_PrintString("Welcome!"); 
 117:.\main.c      ****     print("Initializing");
 118:.\main.c      **** }
 119:.\main.c      **** 
 120:.\main.c      **** void nrfInit() {
ARM GAS  C:\Users\HANNAL~1\AppData\Local\Temp\ccQ1P14n.s 			page 4


 121:.\main.c      ****     ce(0);
 122:.\main.c      ****     csn(1);
 123:.\main.c      ****     CyDelay(5);
 124:.\main.c      ****     // Enable RX pipe 0 and 1
 125:.\main.c      ****     // writeRegister(EN_RXADDR, 0x03);
 126:.\main.c      ****     // Set up RX pipe 1
 127:.\main.c      ****     writeRegisterLong(RX_ADDR_P1, rxPipe, 5);
 128:.\main.c      ****     // Set static payload length to 1 byte
 129:.\main.c      ****     writeRegister(RX_PW_P1, 0x01);
 130:.\main.c      ****     // Set up TX pipe
 131:.\main.c      ****     writeRegisterLong(RX_ADDR_P0, txPipe, 5);
 132:.\main.c      ****     writeRegisterLong(TX_ADDR, txPipe, 5);
 133:.\main.c      ****     writeRegister(RX_PW_P0, 0x01);
 134:.\main.c      ****     // Disable Auto-Acknowledge
 135:.\main.c      ****     // writeRegister(EN_AA, 0x00);
 136:.\main.c      ****     // Disable retransmission
 137:.\main.c      ****     writeRegister(SETUP_RETR, 0x00);
 138:.\main.c      ****     // Flush buffers
 139:.\main.c      ****     spiWrite(FLUSH_RX);
 140:.\main.c      ****     spiWrite(FLUSH_TX);
 141:.\main.c      **** }
 142:.\main.c      **** 
 143:.\main.c      **** 
 144:.\main.c      **** // Wait for transmission from the other NRF24L01, and then
 145:.\main.c      **** // echo that information to the screen
 146:.\main.c      **** void nrfReceiveTest() {
 147:.\main.c      ****     // Read status register to see if RX FIFO is not empty
 148:.\main.c      ****     uint8 statusByte;
 149:.\main.c      ****     uint8 receivedByte;
 150:.\main.c      ****     int count = 0;
 151:.\main.c      ****     // Go to RX mode
 152:.\main.c      ****     writeRegister(CONFIG, rxMode); // Enter RX mode
 153:.\main.c      ****     spiWrite(FLUSH_RX);
 154:.\main.c      ****     spiWrite(FLUSH_TX);
 155:.\main.c      ****     ce(1); // Go!
 156:.\main.c      ****     CyDelayUs(130);
 157:.\main.c      ****     while(1) {
 158:.\main.c      ****         if (nrfDataAvailable()) {
 159:.\main.c      ****             receivedByte = nrfReadByte();
 160:.\main.c      ****             print("received a byte!");
 161:.\main.c      ****             CyDelay(500);
 162:.\main.c      ****             printByte(receivedByte);
 163:.\main.c      ****             count ++;
 164:.\main.c      ****             if (count >= 6) {
 165:.\main.c      ****                 print("done!");   
 166:.\main.c      ****             }
 167:.\main.c      ****             //ce(1); // nrfReadByte() sets CE low (unless I commented it out),
 168:.\main.c      ****                    // so we need to reset it to high
 169:.\main.c      ****         }
 170:.\main.c      ****         else {
 171:.\main.c      ****             print("no data");   
 172:.\main.c      ****         }
 173:.\main.c      ****     }
 174:.\main.c      **** }
 175:.\main.c      **** 
 176:.\main.c      **** // Returns true if there's data, i.e. RX_DR was asserted in STATUS register
 177:.\main.c      **** bool nrfDataAvailable() {
ARM GAS  C:\Users\HANNAL~1\AppData\Local\Temp\ccQ1P14n.s 			page 5


 178:.\main.c      ****     statusByte = readRegister(STATUS);
 179:.\main.c      ****     bool result = statusByte & (1 << RX_DR);
 180:.\main.c      ****     if (result) {
 181:.\main.c      ****         // Clear the status byte
 182:.\main.c      ****         writeRegister(STATUS, (1 << RX_DR));
 183:.\main.c      ****         
 184:.\main.c      ****         // If TX_DS is asserted, clear that also
 185:.\main.c      ****         if (statusByte & (1 << TX_DS)) {
 186:.\main.c      ****             writeRegister(STATUS, (1 << TX_DS));   
 187:.\main.c      ****         }
 188:.\main.c      ****     }
 189:.\main.c      ****     return result;
 190:.\main.c      **** }
 191:.\main.c      **** 
 192:.\main.c      **** uint8 nrfReadByte() {
 193:.\main.c      ****     uint8 receivedByte;
 194:.\main.c      ****     uint8 cdByte;
 195:.\main.c      ****     // read CD register
 196:.\main.c      ****     cdByte = readRegister(CD);
 197:.\main.c      ****     print("cd");
 198:.\main.c      ****     printByte(cdByte);
 199:.\main.c      ****     // ce(0); // Set CE low to read packets
 200:.\main.c      ****     csn(0); // Write csn low to signal a new command
 201:.\main.c      ****     spiWrite(R_RX_PAYLOAD); // Tell NRF24L01 that we want to read RX payload
 202:.\main.c      ****     SPIM_1_WriteByte(0xff);
 203:.\main.c      ****     while((SPIM_1_ReadTxStatus() & SPIM_1_STS_SPI_DONE) != 1);
 204:.\main.c      ****     receivedByte = spiRead(); // Read the byte
 205:.\main.c      ****     csn(1); // Signal the end of the command
 206:.\main.c      ****     
 207:.\main.c      ****     return receivedByte;
 208:.\main.c      **** }
 209:.\main.c      **** 
 210:.\main.c      **** void nrfRegisterTest() {
 211:.\main.c      ****     uint8 nrfByte;
 212:.\main.c      ****     // Wait for Rx FIFO to be not empty
 213:.\main.c      ****     while(~UART_1_ReadRxStatus() & UART_1_RX_STS_FIFO_NOTEMPTY);
 214:.\main.c      ****     psocByte = UART_1_GetChar();
 215:.\main.c      ****     
 216:.\main.c      ****     // Read CONFIG register
 217:.\main.c      ****     print("Reading...");
 218:.\main.c      ****     nrfByte = readRegister(CONFIG);
 219:.\main.c      ****     printByte(nrfByte);
 220:.\main.c      ****     // Write to the CONFIG register
 221:.\main.c      ****     //print("Writing...");
 222:.\main.c      ****     writeRegister(CONFIG, 0x09);
 223:.\main.c      ****     // Read CONFIG register again
 224:.\main.c      ****     print("Reading again...");
 225:.\main.c      ****     nrfByte = readRegister(CONFIG);
 226:.\main.c      ****     printByte(nrfByte);
 227:.\main.c      ****     print("Echo...");
 228:.\main.c      ****     UART_1_PutChar(psocByte);
 229:.\main.c      ****     print("");
 230:.\main.c      ****     
 231:.\main.c      **** }
 232:.\main.c      **** 
 233:.\main.c      **** uint8 readRegister(uint8 reg) {
 234:.\main.c      ****     // Set CSN high to let NRF know we are starting a new command
ARM GAS  C:\Users\HANNAL~1\AppData\Local\Temp\ccQ1P14n.s 			page 6


 235:.\main.c      ****     csn(0);
 236:.\main.c      ****     // Write command to read given register from NRF24L01
 237:.\main.c      ****     spiWrite(R_REGISTER | (REGISTER_MASK & reg));
 238:.\main.c      ****     
 239:.\main.c      ****     // Write anything to signal to NRF24L01 to start sending the contents
 240:.\main.c      ****     SPIM_1_WriteByte(0xff);
 241:.\main.c      ****     while((SPIM_1_ReadTxStatus() & SPIM_1_STS_SPI_DONE) != 1);
 242:.\main.c      ****     
 243:.\main.c      ****     rfByte = spiRead();
 244:.\main.c      ****     
 245:.\main.c      ****     // Must set CSN high again so that when we call another command
 246:.\main.c      ****     // the NRF sees a high->low transition
 247:.\main.c      ****     csn(1);
 248:.\main.c      ****     return rfByte;
 249:.\main.c      **** }
 250:.\main.c      **** 
 251:.\main.c      **** void writeRegister(uint8 reg, uint8 data) {
 252:.\main.c      ****     // Pull chip select low to trigger a new command for NRF42L01
 253:.\main.c      ****     csn(0);
 254:.\main.c      ****     
 255:.\main.c      ****     // Write command to read a register
 256:.\main.c      ****     spiWrite(W_REGISTER | (REGISTER_MASK & reg));
 257:.\main.c      ****     
 258:.\main.c      ****     // Write the data to that register
 259:.\main.c      ****     spiWrite(data);
 260:.\main.c      ****     
 261:.\main.c      ****     // Set chip select high again so the next time we pull it low it triggers a command
 262:.\main.c      ****     csn(1);
 263:.\main.c      **** }
 264:.\main.c      **** 
 265:.\main.c      **** void writeRegisterLong(uint8 reg, uint8* data, int len) {
 266:.\main.c      ****     int i;
 267:.\main.c      ****     csn(0);
 268:.\main.c      ****     spiWrite(W_REGISTER | (REGISTER_MASK & reg));
 269:.\main.c      ****     for (i = 0; i < len; i ++) {
 270:.\main.c      ****         spiWrite(data[i]);
 271:.\main.c      ****     }
 272:.\main.c      ****     csn(1);
 273:.\main.c      ****     
 274:.\main.c      ****     print("written long");
 275:.\main.c      ****     
 276:.\main.c      ****     // echo it back
 277:.\main.c      ****     csn(0);
 278:.\main.c      ****     spiWrite(R_REGISTER | (REGISTER_MASK & reg));
 279:.\main.c      ****     print("echoing long register:");
 280:.\main.c      ****     for (i = 0; i < len; i++) {
 281:.\main.c      ****         SPIM_1_WriteByte(0xff);
 282:.\main.c      ****         while((SPIM_1_ReadTxStatus() & SPIM_1_STS_SPI_DONE) != 1);
 283:.\main.c      ****         printByte(spiRead());
 284:.\main.c      ****     }
 285:.\main.c      ****     csn(1);
 286:.\main.c      **** }
 287:.\main.c      **** 
 288:.\main.c      **** // Transmits something from SPI Master to the slave,
 289:.\main.c      **** // then waits for transission to complete
 290:.\main.c      **** // and throws away the automatically returned status byte
 291:.\main.c      **** void spiWrite(uint8 byte) {
ARM GAS  C:\Users\HANNAL~1\AppData\Local\Temp\ccQ1P14n.s 			page 7


  52              		.loc 1 291 0
  53              		.cfi_startproc
  54              		@ args = 0, pretend = 0, frame = 0
  55              		@ frame_needed = 0, uses_anonymous_args = 0
  56              	.LVL2:
  57 0000 08B5     		push	{r3, lr}
  58              		.cfi_def_cfa_offset 8
  59              		.cfi_offset 3, -8
  60              		.cfi_offset 14, -4
 292:.\main.c      ****     SPIM_1_WriteByte(byte);
  61              		.loc 1 292 0
  62 0002 FFF7FEFF 		bl	SPIM_1_WriteTxData
  63              	.LVL3:
  64              	.L4:
 293:.\main.c      ****     while((SPIM_1_ReadTxStatus() & SPIM_1_STS_SPI_DONE) != 1);
  65              		.loc 1 293 0 discriminator 1
  66 0006 FFF7FEFF 		bl	SPIM_1_ReadTxStatus
  67              	.LVL4:
  68 000a 10F0010F 		tst	r0, #1
  69 000e FAD0     		beq	.L4
  70              	.L5:
 294:.\main.c      ****     while (SPIM_1_GetRxBufferSize() < 1);
  71              		.loc 1 294 0 discriminator 1
  72 0010 FFF7FEFF 		bl	SPIM_1_GetRxBufferSize
  73              	.LVL5:
  74 0014 0028     		cmp	r0, #0
  75 0016 FBD0     		beq	.L5
 295:.\main.c      ****     throwaway = SPIM_1_ReadByte();
  76              		.loc 1 295 0
  77 0018 FFF7FEFF 		bl	SPIM_1_ReadRxData
  78              	.LVL6:
  79 001c 014B     		ldr	r3, .L7
  80 001e 1870     		strb	r0, [r3]
  81 0020 08BD     		pop	{r3, pc}
  82              	.L8:
  83 0022 00BF     		.align	2
  84              	.L7:
  85 0024 00000000 		.word	throwaway
  86              		.cfi_endproc
  87              	.LFE74:
  88              		.size	spiWrite, .-spiWrite
  89              		.section	.text.spiRead,"ax",%progbits
  90              		.align	2
  91              		.global	spiRead
  92              		.thumb
  93              		.thumb_func
  94              		.type	spiRead, %function
  95              	spiRead:
  96              	.LFB75:
 296:.\main.c      **** }
 297:.\main.c      **** 
 298:.\main.c      **** // Waits for RX buffer to be nonempty, then reads one byte and returns it
 299:.\main.c      **** uint8 spiRead() {
  97              		.loc 1 299 0
  98              		.cfi_startproc
  99              		@ args = 0, pretend = 0, frame = 0
 100              		@ frame_needed = 0, uses_anonymous_args = 0
ARM GAS  C:\Users\HANNAL~1\AppData\Local\Temp\ccQ1P14n.s 			page 8


 101 0000 08B5     		push	{r3, lr}
 102              		.cfi_def_cfa_offset 8
 103              		.cfi_offset 3, -8
 104              		.cfi_offset 14, -4
 105              	.L10:
 300:.\main.c      ****     while (SPIM_1_GetRxBufferSize() < 1);
 106              		.loc 1 300 0 discriminator 1
 107 0002 FFF7FEFF 		bl	SPIM_1_GetRxBufferSize
 108              	.LVL7:
 109 0006 0028     		cmp	r0, #0
 110 0008 FBD0     		beq	.L10
 301:.\main.c      ****     return SPIM_1_ReadByte();
 111              		.loc 1 301 0
 112 000a FFF7FEFF 		bl	SPIM_1_ReadRxData
 113              	.LVL8:
 302:.\main.c      **** }
 114              		.loc 1 302 0
 115 000e 08BD     		pop	{r3, pc}
 116              		.cfi_endproc
 117              	.LFE75:
 118              		.size	spiRead, .-spiRead
 119              		.section	.text.sendSquareWave,"ax",%progbits
 120              		.align	2
 121              		.global	sendSquareWave
 122              		.thumb
 123              		.thumb_func
 124              		.type	sendSquareWave, %function
 125              	sendSquareWave:
 126              	.LFB76:
 303:.\main.c      **** 
 304:.\main.c      **** /**************************/
 305:.\main.c      **** /* Interaction with R31JP */
 306:.\main.c      **** /**************************/
 307:.\main.c      **** 
 308:.\main.c      **** // Loops endlessly and sends a 255 and then a 0 over UART to the R31JP
 309:.\main.c      **** void sendSquareWave() {
 127              		.loc 1 309 0
 128              		.cfi_startproc
 129              		@ Volatile: function does not return.
 130              		@ args = 0, pretend = 0, frame = 0
 131              		@ frame_needed = 0, uses_anonymous_args = 0
 132 0000 08B5     		push	{r3, lr}
 133              		.cfi_def_cfa_offset 8
 134              		.cfi_offset 3, -8
 135              		.cfi_offset 14, -4
 136              	.L15:
 310:.\main.c      ****     while (1) {
 311:.\main.c      ****         UART_1_PutChar(255);
 137              		.loc 1 311 0
 138 0002 FF20     		movs	r0, #255
 139 0004 FFF7FEFF 		bl	UART_1_PutChar
 140              	.LVL9:
 141              	.L13:
 312:.\main.c      ****         // Wait for it to send
 313:.\main.c      ****         while(~UART_1_ReadTxStatus() & UART_1_TX_STS_COMPLETE);
 142              		.loc 1 313 0 discriminator 1
 143 0008 FFF7FEFF 		bl	UART_1_ReadTxStatus
ARM GAS  C:\Users\HANNAL~1\AppData\Local\Temp\ccQ1P14n.s 			page 9


 144              	.LVL10:
 145 000c 10F0010F 		tst	r0, #1
 146 0010 FAD0     		beq	.L13
 314:.\main.c      ****         CyDelay(1000);
 147              		.loc 1 314 0
 148 0012 4FF47A70 		mov	r0, #1000
 149 0016 FFF7FEFF 		bl	CyDelay
 150              	.LVL11:
 315:.\main.c      ****         UART_1_PutChar(0);
 151              		.loc 1 315 0
 152 001a 0020     		movs	r0, #0
 153 001c FFF7FEFF 		bl	UART_1_PutChar
 154              	.LVL12:
 155              	.L14:
 316:.\main.c      ****         while(~UART_1_ReadTxStatus() & UART_1_TX_STS_COMPLETE);
 156              		.loc 1 316 0 discriminator 1
 157 0020 FFF7FEFF 		bl	UART_1_ReadTxStatus
 158              	.LVL13:
 159 0024 10F0010F 		tst	r0, #1
 160 0028 FAD0     		beq	.L14
 317:.\main.c      ****         CyDelay(1000);
 161              		.loc 1 317 0
 162 002a 4FF47A70 		mov	r0, #1000
 163 002e FFF7FEFF 		bl	CyDelay
 164              	.LVL14:
 318:.\main.c      ****     }
 165              		.loc 1 318 0
 166 0032 E6E7     		b	.L15
 167              		.cfi_endproc
 168              	.LFE76:
 169              		.size	sendSquareWave, .-sendSquareWave
 170              		.section	.text.echoR31JP,"ax",%progbits
 171              		.align	2
 172              		.global	echoR31JP
 173              		.thumb
 174              		.thumb_func
 175              		.type	echoR31JP, %function
 176              	echoR31JP:
 177              	.LFB77:
 319:.\main.c      **** }
 320:.\main.c      **** 
 321:.\main.c      **** // Loops endlessly, echoing characters received from R31JP
 322:.\main.c      **** void echoR31JP() {
 178              		.loc 1 322 0
 179              		.cfi_startproc
 180              		@ args = 0, pretend = 0, frame = 0
 181              		@ frame_needed = 0, uses_anonymous_args = 0
 182 0000 10B5     		push	{r4, lr}
 183              		.cfi_def_cfa_offset 8
 184              		.cfi_offset 4, -8
 185              		.cfi_offset 14, -4
 186              	.L18:
 323:.\main.c      ****     uint8 r31jpByte;
 324:.\main.c      ****     uint8 maskedByte;
 325:.\main.c      ****     uint8 mask = 24; // arbitrary
 326:.\main.c      ****     while (1) {
 327:.\main.c      ****         // Wait for character
ARM GAS  C:\Users\HANNAL~1\AppData\Local\Temp\ccQ1P14n.s 			page 10


 328:.\main.c      ****         while(~UART_1_ReadRxStatus() & UART_1_RX_STS_FIFO_NOTEMPTY); 
 187              		.loc 1 328 0 discriminator 1
 188 0002 FFF7FEFF 		bl	UART_1_ReadRxStatus
 189              	.LVL15:
 190 0006 10F0200F 		tst	r0, #32
 191 000a FAD0     		beq	.L18
 329:.\main.c      ****         r31jpByte = UART_1_GetChar();
 192              		.loc 1 329 0
 193 000c FFF7FEFF 		bl	UART_1_GetChar
 194              	.LVL16:
 195 0010 0446     		mov	r4, r0
 196              	.LVL17:
 330:.\main.c      ****         // XOR it twice just to take up (a tiny bit of) time and fake the "encryption"
 331:.\main.c      ****         maskedByte = r31jpByte ^ mask ^ mask;
 332:.\main.c      ****         LCD_Char_1_ClearDisplay();
 197              		.loc 1 332 0
 198 0012 0120     		movs	r0, #1
 199 0014 FFF7FEFF 		bl	LCD_Char_1_WriteControl
 200              	.LVL18:
 333:.\main.c      ****         LCD_Char_1_PrintNumber(r31jpByte);
 201              		.loc 1 333 0
 202 0018 2046     		mov	r0, r4
 203 001a FFF7FEFF 		bl	LCD_Char_1_PrintU32Number
 204              	.LVL19:
 334:.\main.c      ****         LCD_Char_1_PrintString("  ");
 205              		.loc 1 334 0
 206 001e 0548     		ldr	r0, .L21
 207 0020 FFF7FEFF 		bl	LCD_Char_1_PrintString
 208              	.LVL20:
 335:.\main.c      ****         LCD_Char_1_PrintNumber(maskedByte);
 209              		.loc 1 335 0
 210 0024 2046     		mov	r0, r4
 211 0026 FFF7FEFF 		bl	LCD_Char_1_PrintU32Number
 212              	.LVL21:
 336:.\main.c      ****         UART_1_PutChar(maskedByte);
 213              		.loc 1 336 0
 214 002a 2046     		mov	r0, r4
 215 002c FFF7FEFF 		bl	UART_1_PutChar
 216              	.LVL22:
 337:.\main.c      ****     }
 217              		.loc 1 337 0
 218 0030 E7E7     		b	.L18
 219              	.L22:
 220 0032 00BF     		.align	2
 221              	.L21:
 222 0034 00000000 		.word	.LC0
 223              		.cfi_endproc
 224              	.LFE77:
 225              		.size	echoR31JP, .-echoR31JP
 226              		.section	.text.print,"ax",%progbits
 227              		.align	2
 228              		.global	print
 229              		.thumb
 230              		.thumb_func
 231              		.type	print, %function
 232              	print:
 233              	.LFB79:
ARM GAS  C:\Users\HANNAL~1\AppData\Local\Temp\ccQ1P14n.s 			page 11


 338:.\main.c      **** }
 339:.\main.c      **** 
 340:.\main.c      **** /***********/
 341:.\main.c      **** /* HELPERS */
 342:.\main.c      **** /***********/
 343:.\main.c      **** 
 344:.\main.c      **** // Prints everything in SPI Master's Rx buffer
 345:.\main.c      **** // Used for debugging to see what's there
 346:.\main.c      **** void printRxBuffer() {
 347:.\main.c      ****     print("printing rx buffer");
 348:.\main.c      ****     while (SPIM_1_GetRxBufferSize() > 0) {
 349:.\main.c      ****         print("received");
 350:.\main.c      ****         printByte(SPIM_1_ReadRxData());
 351:.\main.c      ****     }
 352:.\main.c      ****     print("done printing rx buffer");
 353:.\main.c      **** }
 354:.\main.c      **** 
 355:.\main.c      **** // Generic print function that prints a string
 356:.\main.c      **** void print(char* string) {
 234              		.loc 1 356 0
 235              		.cfi_startproc
 236              		@ args = 0, pretend = 0, frame = 0
 237              		@ frame_needed = 0, uses_anonymous_args = 0
 238              	.LVL23:
 239 0000 08B5     		push	{r3, lr}
 240              		.cfi_def_cfa_offset 8
 241              		.cfi_offset 3, -8
 242              		.cfi_offset 14, -4
 357:.\main.c      ****     UART_1_PutString(string);
 243              		.loc 1 357 0
 244 0002 FFF7FEFF 		bl	UART_1_PutString
 245              	.LVL24:
 358:.\main.c      ****     UART_1_PutString("\n\r");
 246              		.loc 1 358 0
 247 0006 0448     		ldr	r0, .L26
 248 0008 FFF7FEFF 		bl	UART_1_PutString
 249              	.LVL25:
 250              	.L24:
 359:.\main.c      ****     // Wait for it to finish sending
 360:.\main.c      ****     while(~UART_1_ReadTxStatus() & UART_1_TX_STS_COMPLETE);
 251              		.loc 1 360 0 discriminator 1
 252 000c FFF7FEFF 		bl	UART_1_ReadTxStatus
 253              	.LVL26:
 254 0010 10F0010F 		tst	r0, #1
 255 0014 FAD0     		beq	.L24
 361:.\main.c      **** }
 256              		.loc 1 361 0
 257 0016 08BD     		pop	{r3, pc}
 258              	.L27:
 259              		.align	2
 260              	.L26:
 261 0018 04000000 		.word	.LC1
 262              		.cfi_endproc
 263              	.LFE79:
 264              		.size	print, .-print
 265              		.section	.text.printByte,"ax",%progbits
 266              		.align	2
ARM GAS  C:\Users\HANNAL~1\AppData\Local\Temp\ccQ1P14n.s 			page 12


 267              		.global	printByte
 268              		.thumb
 269              		.thumb_func
 270              		.type	printByte, %function
 271              	printByte:
 272              	.LFB80:
 362:.\main.c      **** 
 363:.\main.c      **** // Prints a byte to the PC over serial
 364:.\main.c      **** void printByte(uint8 byte) {
 273              		.loc 1 364 0
 274              		.cfi_startproc
 275              		@ args = 0, pretend = 0, frame = 0
 276              		@ frame_needed = 0, uses_anonymous_args = 0
 277              	.LVL27:
 278 0000 10B5     		push	{r4, lr}
 279              		.cfi_def_cfa_offset 8
 280              		.cfi_offset 4, -8
 281              		.cfi_offset 14, -4
 282 0002 0346     		mov	r3, r0
 365:.\main.c      ****     snprintf(printbuf, 8, "%u", byte);
 283              		.loc 1 365 0
 284 0004 044C     		ldr	r4, .L30
 285 0006 2046     		mov	r0, r4
 286              	.LVL28:
 287 0008 0821     		movs	r1, #8
 288 000a 044A     		ldr	r2, .L30+4
 289 000c FFF7FEFF 		bl	snprintf
 290              	.LVL29:
 366:.\main.c      ****     print(printbuf);
 291              		.loc 1 366 0
 292 0010 2046     		mov	r0, r4
 293 0012 FFF7FEFF 		bl	print
 294              	.LVL30:
 295 0016 10BD     		pop	{r4, pc}
 296              	.L31:
 297              		.align	2
 298              	.L30:
 299 0018 00000000 		.word	printbuf
 300 001c 08000000 		.word	.LC2
 301              		.cfi_endproc
 302              	.LFE80:
 303              		.size	printByte, .-printByte
 304              		.section	.text.printRxBuffer,"ax",%progbits
 305              		.align	2
 306              		.global	printRxBuffer
 307              		.thumb
 308              		.thumb_func
 309              		.type	printRxBuffer, %function
 310              	printRxBuffer:
 311              	.LFB78:
 346:.\main.c      ****     print("printing rx buffer");
 312              		.loc 1 346 0
 313              		.cfi_startproc
 314              		@ args = 0, pretend = 0, frame = 0
 315              		@ frame_needed = 0, uses_anonymous_args = 0
 316 0000 08B5     		push	{r3, lr}
 317              		.cfi_def_cfa_offset 8
ARM GAS  C:\Users\HANNAL~1\AppData\Local\Temp\ccQ1P14n.s 			page 13


 318              		.cfi_offset 3, -8
 319              		.cfi_offset 14, -4
 347:.\main.c      ****     while (SPIM_1_GetRxBufferSize() > 0) {
 320              		.loc 1 347 0
 321 0002 0948     		ldr	r0, .L36
 322 0004 FFF7FEFF 		bl	print
 323              	.LVL31:
 348:.\main.c      ****         print("received");
 324              		.loc 1 348 0
 325 0008 06E0     		b	.L33
 326              	.L34:
 349:.\main.c      ****         printByte(SPIM_1_ReadRxData());
 327              		.loc 1 349 0
 328 000a 0848     		ldr	r0, .L36+4
 329 000c FFF7FEFF 		bl	print
 330              	.LVL32:
 350:.\main.c      ****     }
 331              		.loc 1 350 0
 332 0010 FFF7FEFF 		bl	SPIM_1_ReadRxData
 333              	.LVL33:
 334 0014 FFF7FEFF 		bl	printByte
 335              	.LVL34:
 336              	.L33:
 348:.\main.c      ****         print("received");
 337              		.loc 1 348 0
 338 0018 FFF7FEFF 		bl	SPIM_1_GetRxBufferSize
 339              	.LVL35:
 340 001c 0028     		cmp	r0, #0
 341 001e F4D1     		bne	.L34
 352:.\main.c      **** }
 342              		.loc 1 352 0
 343 0020 0348     		ldr	r0, .L36+8
 344 0022 FFF7FEFF 		bl	print
 345              	.LVL36:
 346 0026 08BD     		pop	{r3, pc}
 347              	.L37:
 348              		.align	2
 349              	.L36:
 350 0028 0C000000 		.word	.LC3
 351 002c 20000000 		.word	.LC4
 352 0030 2C000000 		.word	.LC5
 353              		.cfi_endproc
 354              	.LFE78:
 355              		.size	printRxBuffer, .-printRxBuffer
 356              		.section	.text.ce,"ax",%progbits
 357              		.align	2
 358              		.global	ce
 359              		.thumb
 360              		.thumb_func
 361              		.type	ce, %function
 362              	ce:
 363              	.LFB81:
 367:.\main.c      **** }
 368:.\main.c      **** 
 369:.\main.c      **** // Sets chip enable high or low for NRF24L01
 370:.\main.c      **** void ce(uint8 b) {
 364              		.loc 1 370 0
ARM GAS  C:\Users\HANNAL~1\AppData\Local\Temp\ccQ1P14n.s 			page 14


 365              		.cfi_startproc
 366              		@ args = 0, pretend = 0, frame = 0
 367              		@ frame_needed = 0, uses_anonymous_args = 0
 368              	.LVL37:
 369 0000 08B5     		push	{r3, lr}
 370              		.cfi_def_cfa_offset 8
 371              		.cfi_offset 3, -8
 372              		.cfi_offset 14, -4
 371:.\main.c      ****     // chip enable is Pin_6
 372:.\main.c      ****     Pin_6_Write(b);
 373              		.loc 1 372 0
 374 0002 FFF7FEFF 		bl	Pin_6_Write
 375              	.LVL38:
 376 0006 08BD     		pop	{r3, pc}
 377              		.cfi_endproc
 378              	.LFE81:
 379              		.size	ce, .-ce
 380              		.section	.text.csn,"ax",%progbits
 381              		.align	2
 382              		.global	csn
 383              		.thumb
 384              		.thumb_func
 385              		.type	csn, %function
 386              	csn:
 387              	.LFB82:
 373:.\main.c      **** }
 374:.\main.c      **** 
 375:.\main.c      **** // Sets chip select high or low for NRF24L01
 376:.\main.c      **** void csn(uint8 b) {
 388              		.loc 1 376 0
 389              		.cfi_startproc
 390              		@ args = 0, pretend = 0, frame = 0
 391              		@ frame_needed = 0, uses_anonymous_args = 0
 392              	.LVL39:
 393 0000 08B5     		push	{r3, lr}
 394              		.cfi_def_cfa_offset 8
 395              		.cfi_offset 3, -8
 396              		.cfi_offset 14, -4
 377:.\main.c      ****     // chip select is Pin_5
 378:.\main.c      ****     Pin_5_Write(b);
 397              		.loc 1 378 0
 398 0002 FFF7FEFF 		bl	Pin_5_Write
 399              	.LVL40:
 400 0006 08BD     		pop	{r3, pc}
 401              		.cfi_endproc
 402              	.LFE82:
 403              		.size	csn, .-csn
 404              		.section	.text.readRegister,"ax",%progbits
 405              		.align	2
 406              		.global	readRegister
 407              		.thumb
 408              		.thumb_func
 409              		.type	readRegister, %function
 410              	readRegister:
 411              	.LFB71:
 233:.\main.c      ****     // Set CSN high to let NRF know we are starting a new command
 412              		.loc 1 233 0
ARM GAS  C:\Users\HANNAL~1\AppData\Local\Temp\ccQ1P14n.s 			page 15


 413              		.cfi_startproc
 414              		@ args = 0, pretend = 0, frame = 0
 415              		@ frame_needed = 0, uses_anonymous_args = 0
 416              	.LVL41:
 417 0000 10B5     		push	{r4, lr}
 418              		.cfi_def_cfa_offset 8
 419              		.cfi_offset 4, -8
 420              		.cfi_offset 14, -4
 421 0002 0446     		mov	r4, r0
 235:.\main.c      ****     // Write command to read given register from NRF24L01
 422              		.loc 1 235 0
 423 0004 0020     		movs	r0, #0
 424              	.LVL42:
 425 0006 FFF7FEFF 		bl	csn
 426              	.LVL43:
 237:.\main.c      ****     
 427              		.loc 1 237 0
 428 000a 04F01F00 		and	r0, r4, #31
 429 000e FFF7FEFF 		bl	spiWrite
 430              	.LVL44:
 240:.\main.c      ****     while((SPIM_1_ReadTxStatus() & SPIM_1_STS_SPI_DONE) != 1);
 431              		.loc 1 240 0
 432 0012 FF20     		movs	r0, #255
 433 0014 FFF7FEFF 		bl	SPIM_1_WriteTxData
 434              	.LVL45:
 435              	.L43:
 241:.\main.c      ****     
 436              		.loc 1 241 0 discriminator 1
 437 0018 FFF7FEFF 		bl	SPIM_1_ReadTxStatus
 438              	.LVL46:
 439 001c 10F0010F 		tst	r0, #1
 440 0020 FAD0     		beq	.L43
 243:.\main.c      ****     
 441              		.loc 1 243 0
 442 0022 FFF7FEFF 		bl	spiRead
 443              	.LVL47:
 444 0026 034C     		ldr	r4, .L45
 445 0028 2070     		strb	r0, [r4]
 247:.\main.c      ****     return rfByte;
 446              		.loc 1 247 0
 447 002a 0120     		movs	r0, #1
 448 002c FFF7FEFF 		bl	csn
 449              	.LVL48:
 249:.\main.c      **** 
 450              		.loc 1 249 0
 451 0030 2078     		ldrb	r0, [r4]	@ zero_extendqisi2
 452 0032 10BD     		pop	{r4, pc}
 453              	.L46:
 454              		.align	2
 455              	.L45:
 456 0034 00000000 		.word	rfByte
 457              		.cfi_endproc
 458              	.LFE71:
 459              		.size	readRegister, .-readRegister
 460              		.section	.text.nrfReadByte,"ax",%progbits
 461              		.align	2
 462              		.global	nrfReadByte
ARM GAS  C:\Users\HANNAL~1\AppData\Local\Temp\ccQ1P14n.s 			page 16


 463              		.thumb
 464              		.thumb_func
 465              		.type	nrfReadByte, %function
 466              	nrfReadByte:
 467              	.LFB69:
 192:.\main.c      ****     uint8 receivedByte;
 468              		.loc 1 192 0
 469              		.cfi_startproc
 470              		@ args = 0, pretend = 0, frame = 0
 471              		@ frame_needed = 0, uses_anonymous_args = 0
 472 0000 10B5     		push	{r4, lr}
 473              		.cfi_def_cfa_offset 8
 474              		.cfi_offset 4, -8
 475              		.cfi_offset 14, -4
 196:.\main.c      ****     print("cd");
 476              		.loc 1 196 0
 477 0002 0920     		movs	r0, #9
 478 0004 FFF7FEFF 		bl	readRegister
 479              	.LVL49:
 480 0008 0446     		mov	r4, r0
 481              	.LVL50:
 197:.\main.c      ****     printByte(cdByte);
 482              		.loc 1 197 0
 483 000a 0E48     		ldr	r0, .L50
 484 000c FFF7FEFF 		bl	print
 485              	.LVL51:
 198:.\main.c      ****     // ce(0); // Set CE low to read packets
 486              		.loc 1 198 0
 487 0010 2046     		mov	r0, r4
 488 0012 FFF7FEFF 		bl	printByte
 489              	.LVL52:
 200:.\main.c      ****     spiWrite(R_RX_PAYLOAD); // Tell NRF24L01 that we want to read RX payload
 490              		.loc 1 200 0
 491 0016 0020     		movs	r0, #0
 492 0018 FFF7FEFF 		bl	csn
 493              	.LVL53:
 201:.\main.c      ****     SPIM_1_WriteByte(0xff);
 494              		.loc 1 201 0
 495 001c 6120     		movs	r0, #97
 496 001e FFF7FEFF 		bl	spiWrite
 497              	.LVL54:
 202:.\main.c      ****     while((SPIM_1_ReadTxStatus() & SPIM_1_STS_SPI_DONE) != 1);
 498              		.loc 1 202 0
 499 0022 FF20     		movs	r0, #255
 500 0024 FFF7FEFF 		bl	SPIM_1_WriteTxData
 501              	.LVL55:
 502              	.L48:
 203:.\main.c      ****     receivedByte = spiRead(); // Read the byte
 503              		.loc 1 203 0 discriminator 1
 504 0028 FFF7FEFF 		bl	SPIM_1_ReadTxStatus
 505              	.LVL56:
 506 002c 10F0010F 		tst	r0, #1
 507 0030 FAD0     		beq	.L48
 204:.\main.c      ****     csn(1); // Signal the end of the command
 508              		.loc 1 204 0
 509 0032 FFF7FEFF 		bl	spiRead
 510              	.LVL57:
ARM GAS  C:\Users\HANNAL~1\AppData\Local\Temp\ccQ1P14n.s 			page 17


 511 0036 0446     		mov	r4, r0
 512              	.LVL58:
 205:.\main.c      ****     
 513              		.loc 1 205 0
 514 0038 0120     		movs	r0, #1
 515 003a FFF7FEFF 		bl	csn
 516              	.LVL59:
 208:.\main.c      **** 
 517              		.loc 1 208 0
 518 003e 2046     		mov	r0, r4
 519 0040 10BD     		pop	{r4, pc}
 520              	.LVL60:
 521              	.L51:
 522 0042 00BF     		.align	2
 523              	.L50:
 524 0044 44000000 		.word	.LC6
 525              		.cfi_endproc
 526              	.LFE69:
 527              		.size	nrfReadByte, .-nrfReadByte
 528              		.section	.text.writeRegister,"ax",%progbits
 529              		.align	2
 530              		.global	writeRegister
 531              		.thumb
 532              		.thumb_func
 533              		.type	writeRegister, %function
 534              	writeRegister:
 535              	.LFB72:
 251:.\main.c      ****     // Pull chip select low to trigger a new command for NRF42L01
 536              		.loc 1 251 0
 537              		.cfi_startproc
 538              		@ args = 0, pretend = 0, frame = 0
 539              		@ frame_needed = 0, uses_anonymous_args = 0
 540              	.LVL61:
 541 0000 38B5     		push	{r3, r4, r5, lr}
 542              		.cfi_def_cfa_offset 16
 543              		.cfi_offset 3, -16
 544              		.cfi_offset 4, -12
 545              		.cfi_offset 5, -8
 546              		.cfi_offset 14, -4
 547 0002 0446     		mov	r4, r0
 548 0004 0D46     		mov	r5, r1
 253:.\main.c      ****     
 549              		.loc 1 253 0
 550 0006 0020     		movs	r0, #0
 551              	.LVL62:
 552 0008 FFF7FEFF 		bl	csn
 553              	.LVL63:
 256:.\main.c      ****     
 554              		.loc 1 256 0
 555 000c 04F01F00 		and	r0, r4, #31
 556 0010 40F02000 		orr	r0, r0, #32
 557 0014 FFF7FEFF 		bl	spiWrite
 558              	.LVL64:
 259:.\main.c      ****     
 559              		.loc 1 259 0
 560 0018 2846     		mov	r0, r5
 561 001a FFF7FEFF 		bl	spiWrite
ARM GAS  C:\Users\HANNAL~1\AppData\Local\Temp\ccQ1P14n.s 			page 18


 562              	.LVL65:
 262:.\main.c      **** }
 563              		.loc 1 262 0
 564 001e 0120     		movs	r0, #1
 565 0020 FFF7FEFF 		bl	csn
 566              	.LVL66:
 567 0024 38BD     		pop	{r3, r4, r5, pc}
 568              		.cfi_endproc
 569              	.LFE72:
 570              		.size	writeRegister, .-writeRegister
 571 0026 00BF     		.section	.text.nrfDataAvailable,"ax",%progbits
 572              		.align	2
 573              		.global	nrfDataAvailable
 574              		.thumb
 575              		.thumb_func
 576              		.type	nrfDataAvailable, %function
 577              	nrfDataAvailable:
 578              	.LFB68:
 177:.\main.c      ****     statusByte = readRegister(STATUS);
 579              		.loc 1 177 0
 580              		.cfi_startproc
 581              		@ args = 0, pretend = 0, frame = 0
 582              		@ frame_needed = 0, uses_anonymous_args = 0
 583 0000 10B5     		push	{r4, lr}
 584              		.cfi_def_cfa_offset 8
 585              		.cfi_offset 4, -8
 586              		.cfi_offset 14, -4
 178:.\main.c      ****     bool result = statusByte & (1 << RX_DR);
 587              		.loc 1 178 0
 588 0002 0720     		movs	r0, #7
 589 0004 FFF7FEFF 		bl	readRegister
 590              	.LVL67:
 591 0008 094B     		ldr	r3, .L57
 592 000a 1870     		strb	r0, [r3]
 179:.\main.c      ****     if (result) {
 593              		.loc 1 179 0
 594 000c C0F38014 		ubfx	r4, r0, #6, #1
 595              	.LVL68:
 180:.\main.c      ****         // Clear the status byte
 596              		.loc 1 180 0
 597 0010 64B1     		cbz	r4, .L55
 182:.\main.c      ****         
 598              		.loc 1 182 0
 599 0012 0720     		movs	r0, #7
 600 0014 4021     		movs	r1, #64
 601 0016 FFF7FEFF 		bl	writeRegister
 602              	.LVL69:
 185:.\main.c      ****             writeRegister(STATUS, (1 << TX_DS));   
 603              		.loc 1 185 0
 604 001a 054B     		ldr	r3, .L57
 605 001c 1B78     		ldrb	r3, [r3]	@ zero_extendqisi2
 606 001e 13F0200F 		tst	r3, #32
 607 0022 03D0     		beq	.L55
 186:.\main.c      ****         }
 608              		.loc 1 186 0
 609 0024 0720     		movs	r0, #7
 610 0026 2021     		movs	r1, #32
ARM GAS  C:\Users\HANNAL~1\AppData\Local\Temp\ccQ1P14n.s 			page 19


 611 0028 FFF7FEFF 		bl	writeRegister
 612              	.LVL70:
 613              	.L55:
 190:.\main.c      **** 
 614              		.loc 1 190 0
 615 002c 2046     		mov	r0, r4
 616 002e 10BD     		pop	{r4, pc}
 617              	.LVL71:
 618              	.L58:
 619              		.align	2
 620              	.L57:
 621 0030 00000000 		.word	statusByte
 622              		.cfi_endproc
 623              	.LFE68:
 624              		.size	nrfDataAvailable, .-nrfDataAvailable
 625              		.section	.text.nrfReceiveTest,"ax",%progbits
 626              		.align	2
 627              		.global	nrfReceiveTest
 628              		.thumb
 629              		.thumb_func
 630              		.type	nrfReceiveTest, %function
 631              	nrfReceiveTest:
 632              	.LFB67:
 146:.\main.c      ****     // Read status register to see if RX FIFO is not empty
 633              		.loc 1 146 0
 634              		.cfi_startproc
 635              		@ args = 0, pretend = 0, frame = 0
 636              		@ frame_needed = 0, uses_anonymous_args = 0
 637 0000 38B5     		push	{r3, r4, r5, lr}
 638              		.cfi_def_cfa_offset 16
 639              		.cfi_offset 3, -16
 640              		.cfi_offset 4, -12
 641              		.cfi_offset 5, -8
 642              		.cfi_offset 14, -4
 643              	.LVL72:
 152:.\main.c      ****     spiWrite(FLUSH_RX);
 644              		.loc 1 152 0
 645 0002 0020     		movs	r0, #0
 646 0004 0B21     		movs	r1, #11
 647 0006 FFF7FEFF 		bl	writeRegister
 648              	.LVL73:
 153:.\main.c      ****     spiWrite(FLUSH_TX);
 649              		.loc 1 153 0
 650 000a E220     		movs	r0, #226
 651 000c FFF7FEFF 		bl	spiWrite
 652              	.LVL74:
 154:.\main.c      ****     ce(1); // Go!
 653              		.loc 1 154 0
 654 0010 E120     		movs	r0, #225
 655 0012 FFF7FEFF 		bl	spiWrite
 656              	.LVL75:
 155:.\main.c      ****     CyDelayUs(130);
 657              		.loc 1 155 0
 658 0016 0120     		movs	r0, #1
 659 0018 FFF7FEFF 		bl	ce
 660              	.LVL76:
 156:.\main.c      ****     while(1) {
ARM GAS  C:\Users\HANNAL~1\AppData\Local\Temp\ccQ1P14n.s 			page 20


 661              		.loc 1 156 0
 662 001c 8220     		movs	r0, #130
 663 001e FFF7FEFF 		bl	CyDelayUs
 664              	.LVL77:
 150:.\main.c      ****     // Go to RX mode
 665              		.loc 1 150 0
 666 0022 0024     		movs	r4, #0
 667              	.LVL78:
 668              	.L60:
 158:.\main.c      ****             receivedByte = nrfReadByte();
 669              		.loc 1 158 0
 670 0024 FFF7FEFF 		bl	nrfDataAvailable
 671              	.LVL79:
 672 0028 98B1     		cbz	r0, .L61
 159:.\main.c      ****             print("received a byte!");
 673              		.loc 1 159 0
 674 002a FFF7FEFF 		bl	nrfReadByte
 675              	.LVL80:
 676 002e 0546     		mov	r5, r0
 677              	.LVL81:
 160:.\main.c      ****             CyDelay(500);
 678              		.loc 1 160 0
 679 0030 0A48     		ldr	r0, .L64
 680 0032 FFF7FEFF 		bl	print
 681              	.LVL82:
 161:.\main.c      ****             printByte(receivedByte);
 682              		.loc 1 161 0
 683 0036 4FF4FA70 		mov	r0, #500
 684 003a FFF7FEFF 		bl	CyDelay
 685              	.LVL83:
 162:.\main.c      ****             count ++;
 686              		.loc 1 162 0
 687 003e 2846     		mov	r0, r5
 688 0040 FFF7FEFF 		bl	printByte
 689              	.LVL84:
 163:.\main.c      ****             if (count >= 6) {
 690              		.loc 1 163 0
 691 0044 0134     		adds	r4, r4, #1
 692              	.LVL85:
 164:.\main.c      ****                 print("done!");   
 693              		.loc 1 164 0
 694 0046 052C     		cmp	r4, #5
 695 0048 ECDD     		ble	.L60
 165:.\main.c      ****             }
 696              		.loc 1 165 0
 697 004a 0548     		ldr	r0, .L64+4
 698 004c FFF7FEFF 		bl	print
 699              	.LVL86:
 700 0050 E8E7     		b	.L60
 701              	.LVL87:
 702              	.L61:
 171:.\main.c      ****         }
 703              		.loc 1 171 0
 704 0052 0448     		ldr	r0, .L64+8
 705 0054 FFF7FEFF 		bl	print
 706              	.LVL88:
 707 0058 E4E7     		b	.L60
ARM GAS  C:\Users\HANNAL~1\AppData\Local\Temp\ccQ1P14n.s 			page 21


 708              	.L65:
 709 005a 00BF     		.align	2
 710              	.L64:
 711 005c 48000000 		.word	.LC7
 712 0060 5C000000 		.word	.LC8
 713 0064 64000000 		.word	.LC9
 714              		.cfi_endproc
 715              	.LFE67:
 716              		.size	nrfReceiveTest, .-nrfReceiveTest
 717              		.section	.text.nrfRegisterTest,"ax",%progbits
 718              		.align	2
 719              		.global	nrfRegisterTest
 720              		.thumb
 721              		.thumb_func
 722              		.type	nrfRegisterTest, %function
 723              	nrfRegisterTest:
 724              	.LFB70:
 210:.\main.c      ****     uint8 nrfByte;
 725              		.loc 1 210 0
 726              		.cfi_startproc
 727              		@ args = 0, pretend = 0, frame = 0
 728              		@ frame_needed = 0, uses_anonymous_args = 0
 729 0000 10B5     		push	{r4, lr}
 730              		.cfi_def_cfa_offset 8
 731              		.cfi_offset 4, -8
 732              		.cfi_offset 14, -4
 733              	.L67:
 213:.\main.c      ****     psocByte = UART_1_GetChar();
 734              		.loc 1 213 0 discriminator 1
 735 0002 FFF7FEFF 		bl	UART_1_ReadRxStatus
 736              	.LVL89:
 737 0006 10F0200F 		tst	r0, #32
 738 000a FAD0     		beq	.L67
 214:.\main.c      ****     
 739              		.loc 1 214 0
 740 000c FFF7FEFF 		bl	UART_1_GetChar
 741              	.LVL90:
 742 0010 0F4C     		ldr	r4, .L69
 743 0012 2070     		strb	r0, [r4]
 217:.\main.c      ****     nrfByte = readRegister(CONFIG);
 744              		.loc 1 217 0
 745 0014 0F48     		ldr	r0, .L69+4
 746 0016 FFF7FEFF 		bl	print
 747              	.LVL91:
 218:.\main.c      ****     printByte(nrfByte);
 748              		.loc 1 218 0
 749 001a 0020     		movs	r0, #0
 750 001c FFF7FEFF 		bl	readRegister
 751              	.LVL92:
 219:.\main.c      ****     // Write to the CONFIG register
 752              		.loc 1 219 0
 753 0020 FFF7FEFF 		bl	printByte
 754              	.LVL93:
 222:.\main.c      ****     // Read CONFIG register again
 755              		.loc 1 222 0
 756 0024 0020     		movs	r0, #0
 757 0026 0921     		movs	r1, #9
ARM GAS  C:\Users\HANNAL~1\AppData\Local\Temp\ccQ1P14n.s 			page 22


 758 0028 FFF7FEFF 		bl	writeRegister
 759              	.LVL94:
 224:.\main.c      ****     nrfByte = readRegister(CONFIG);
 760              		.loc 1 224 0
 761 002c 0A48     		ldr	r0, .L69+8
 762 002e FFF7FEFF 		bl	print
 763              	.LVL95:
 225:.\main.c      ****     printByte(nrfByte);
 764              		.loc 1 225 0
 765 0032 0020     		movs	r0, #0
 766 0034 FFF7FEFF 		bl	readRegister
 767              	.LVL96:
 226:.\main.c      ****     print("Echo...");
 768              		.loc 1 226 0
 769 0038 FFF7FEFF 		bl	printByte
 770              	.LVL97:
 227:.\main.c      ****     UART_1_PutChar(psocByte);
 771              		.loc 1 227 0
 772 003c 0748     		ldr	r0, .L69+12
 773 003e FFF7FEFF 		bl	print
 774              	.LVL98:
 228:.\main.c      ****     print("");
 775              		.loc 1 228 0
 776 0042 2078     		ldrb	r0, [r4]	@ zero_extendqisi2
 777 0044 FFF7FEFF 		bl	UART_1_PutChar
 778              	.LVL99:
 229:.\main.c      ****     
 779              		.loc 1 229 0
 780 0048 0548     		ldr	r0, .L69+16
 781 004a FFF7FEFF 		bl	print
 782              	.LVL100:
 783 004e 10BD     		pop	{r4, pc}
 784              	.L70:
 785              		.align	2
 786              	.L69:
 787 0050 00000000 		.word	psocByte
 788 0054 6C000000 		.word	.LC10
 789 0058 78000000 		.word	.LC11
 790 005c 8C000000 		.word	.LC12
 791 0060 94000000 		.word	.LC13
 792              		.cfi_endproc
 793              	.LFE70:
 794              		.size	nrfRegisterTest, .-nrfRegisterTest
 795              		.section	.text.writeRegisterLong,"ax",%progbits
 796              		.align	2
 797              		.global	writeRegisterLong
 798              		.thumb
 799              		.thumb_func
 800              		.type	writeRegisterLong, %function
 801              	writeRegisterLong:
 802              	.LFB73:
 265:.\main.c      ****     int i;
 803              		.loc 1 265 0
 804              		.cfi_startproc
 805              		@ args = 0, pretend = 0, frame = 0
 806              		@ frame_needed = 0, uses_anonymous_args = 0
 807              	.LVL101:
ARM GAS  C:\Users\HANNAL~1\AppData\Local\Temp\ccQ1P14n.s 			page 23


 808 0000 F8B5     		push	{r3, r4, r5, r6, r7, lr}
 809              		.cfi_def_cfa_offset 24
 810              		.cfi_offset 3, -24
 811              		.cfi_offset 4, -20
 812              		.cfi_offset 5, -16
 813              		.cfi_offset 6, -12
 814              		.cfi_offset 7, -8
 815              		.cfi_offset 14, -4
 816 0002 0746     		mov	r7, r0
 817 0004 0E46     		mov	r6, r1
 818 0006 1546     		mov	r5, r2
 267:.\main.c      ****     spiWrite(W_REGISTER | (REGISTER_MASK & reg));
 819              		.loc 1 267 0
 820 0008 0020     		movs	r0, #0
 821              	.LVL102:
 822 000a FFF7FEFF 		bl	csn
 823              	.LVL103:
 268:.\main.c      ****     for (i = 0; i < len; i ++) {
 824              		.loc 1 268 0
 825 000e 07F01F07 		and	r7, r7, #31
 826 0012 47F02000 		orr	r0, r7, #32
 827 0016 FFF7FEFF 		bl	spiWrite
 828              	.LVL104:
 269:.\main.c      ****         spiWrite(data[i]);
 829              		.loc 1 269 0
 830 001a 0024     		movs	r4, #0
 831 001c 03E0     		b	.L72
 832              	.LVL105:
 833              	.L73:
 270:.\main.c      ****     }
 834              		.loc 1 270 0 discriminator 3
 835 001e 305D     		ldrb	r0, [r6, r4]	@ zero_extendqisi2
 836 0020 FFF7FEFF 		bl	spiWrite
 837              	.LVL106:
 269:.\main.c      ****         spiWrite(data[i]);
 838              		.loc 1 269 0 discriminator 3
 839 0024 0134     		adds	r4, r4, #1
 840              	.LVL107:
 841              	.L72:
 269:.\main.c      ****         spiWrite(data[i]);
 842              		.loc 1 269 0 is_stmt 0 discriminator 1
 843 0026 AC42     		cmp	r4, r5
 844 0028 F9DB     		blt	.L73
 272:.\main.c      ****     
 845              		.loc 1 272 0 is_stmt 1
 846 002a 0120     		movs	r0, #1
 847 002c FFF7FEFF 		bl	csn
 848              	.LVL108:
 274:.\main.c      ****     
 849              		.loc 1 274 0
 850 0030 1048     		ldr	r0, .L78
 851 0032 FFF7FEFF 		bl	print
 852              	.LVL109:
 277:.\main.c      ****     spiWrite(R_REGISTER | (REGISTER_MASK & reg));
 853              		.loc 1 277 0
 854 0036 0020     		movs	r0, #0
 855 0038 FFF7FEFF 		bl	csn
ARM GAS  C:\Users\HANNAL~1\AppData\Local\Temp\ccQ1P14n.s 			page 24


 856              	.LVL110:
 278:.\main.c      ****     print("echoing long register:");
 857              		.loc 1 278 0
 858 003c 3846     		mov	r0, r7
 859 003e FFF7FEFF 		bl	spiWrite
 860              	.LVL111:
 279:.\main.c      ****     for (i = 0; i < len; i++) {
 861              		.loc 1 279 0
 862 0042 0D48     		ldr	r0, .L78+4
 863 0044 FFF7FEFF 		bl	print
 864              	.LVL112:
 280:.\main.c      ****         SPIM_1_WriteByte(0xff);
 865              		.loc 1 280 0
 866 0048 0024     		movs	r4, #0
 867 004a 0CE0     		b	.L74
 868              	.LVL113:
 869              	.L76:
 281:.\main.c      ****         while((SPIM_1_ReadTxStatus() & SPIM_1_STS_SPI_DONE) != 1);
 870              		.loc 1 281 0
 871 004c FF20     		movs	r0, #255
 872 004e FFF7FEFF 		bl	SPIM_1_WriteTxData
 873              	.LVL114:
 874              	.L75:
 282:.\main.c      ****         printByte(spiRead());
 875              		.loc 1 282 0 discriminator 1
 876 0052 FFF7FEFF 		bl	SPIM_1_ReadTxStatus
 877              	.LVL115:
 878 0056 10F0010F 		tst	r0, #1
 879 005a FAD0     		beq	.L75
 283:.\main.c      ****     }
 880              		.loc 1 283 0 discriminator 2
 881 005c FFF7FEFF 		bl	spiRead
 882              	.LVL116:
 883 0060 FFF7FEFF 		bl	printByte
 884              	.LVL117:
 280:.\main.c      ****         SPIM_1_WriteByte(0xff);
 885              		.loc 1 280 0 discriminator 2
 886 0064 0134     		adds	r4, r4, #1
 887              	.LVL118:
 888              	.L74:
 280:.\main.c      ****         SPIM_1_WriteByte(0xff);
 889              		.loc 1 280 0 is_stmt 0 discriminator 1
 890 0066 AC42     		cmp	r4, r5
 891 0068 F0DB     		blt	.L76
 285:.\main.c      **** }
 892              		.loc 1 285 0 is_stmt 1
 893 006a 0120     		movs	r0, #1
 894 006c FFF7FEFF 		bl	csn
 895              	.LVL119:
 896 0070 F8BD     		pop	{r3, r4, r5, r6, r7, pc}
 897              	.LVL120:
 898              	.L79:
 899 0072 00BF     		.align	2
 900              	.L78:
 901 0074 98000000 		.word	.LC14
 902 0078 A8000000 		.word	.LC15
 903              		.cfi_endproc
ARM GAS  C:\Users\HANNAL~1\AppData\Local\Temp\ccQ1P14n.s 			page 25


 904              	.LFE73:
 905              		.size	writeRegisterLong, .-writeRegisterLong
 906              		.section	.text.nrfInit,"ax",%progbits
 907              		.align	2
 908              		.global	nrfInit
 909              		.thumb
 910              		.thumb_func
 911              		.type	nrfInit, %function
 912              	nrfInit:
 913              	.LFB66:
 120:.\main.c      ****     ce(0);
 914              		.loc 1 120 0
 915              		.cfi_startproc
 916              		@ args = 0, pretend = 0, frame = 0
 917              		@ frame_needed = 0, uses_anonymous_args = 0
 918 0000 10B5     		push	{r4, lr}
 919              		.cfi_def_cfa_offset 8
 920              		.cfi_offset 4, -8
 921              		.cfi_offset 14, -4
 121:.\main.c      ****     csn(1);
 922              		.loc 1 121 0
 923 0002 0020     		movs	r0, #0
 924 0004 FFF7FEFF 		bl	ce
 925              	.LVL121:
 122:.\main.c      ****     CyDelay(5);
 926              		.loc 1 122 0
 927 0008 0120     		movs	r0, #1
 928 000a FFF7FEFF 		bl	csn
 929              	.LVL122:
 123:.\main.c      ****     // Enable RX pipe 0 and 1
 930              		.loc 1 123 0
 931 000e 0520     		movs	r0, #5
 932 0010 FFF7FEFF 		bl	CyDelay
 933              	.LVL123:
 127:.\main.c      ****     // Set static payload length to 1 byte
 934              		.loc 1 127 0
 935 0014 114C     		ldr	r4, .L82
 936 0016 0B20     		movs	r0, #11
 937 0018 2146     		mov	r1, r4
 938 001a 0522     		movs	r2, #5
 939 001c FFF7FEFF 		bl	writeRegisterLong
 940              	.LVL124:
 129:.\main.c      ****     // Set up TX pipe
 941              		.loc 1 129 0
 942 0020 1220     		movs	r0, #18
 943 0022 0121     		movs	r1, #1
 944 0024 FFF7FEFF 		bl	writeRegister
 945              	.LVL125:
 131:.\main.c      ****     writeRegisterLong(TX_ADDR, txPipe, 5);
 946              		.loc 1 131 0
 947 0028 0834     		adds	r4, r4, #8
 948 002a 0A20     		movs	r0, #10
 949 002c 2146     		mov	r1, r4
 950 002e 0522     		movs	r2, #5
 951 0030 FFF7FEFF 		bl	writeRegisterLong
 952              	.LVL126:
 132:.\main.c      ****     writeRegister(RX_PW_P0, 0x01);
ARM GAS  C:\Users\HANNAL~1\AppData\Local\Temp\ccQ1P14n.s 			page 26


 953              		.loc 1 132 0
 954 0034 1020     		movs	r0, #16
 955 0036 2146     		mov	r1, r4
 956 0038 0522     		movs	r2, #5
 957 003a FFF7FEFF 		bl	writeRegisterLong
 958              	.LVL127:
 133:.\main.c      ****     // Disable Auto-Acknowledge
 959              		.loc 1 133 0
 960 003e 1120     		movs	r0, #17
 961 0040 0121     		movs	r1, #1
 962 0042 FFF7FEFF 		bl	writeRegister
 963              	.LVL128:
 137:.\main.c      ****     // Flush buffers
 964              		.loc 1 137 0
 965 0046 0420     		movs	r0, #4
 966 0048 0021     		movs	r1, #0
 967 004a FFF7FEFF 		bl	writeRegister
 968              	.LVL129:
 139:.\main.c      ****     spiWrite(FLUSH_TX);
 969              		.loc 1 139 0
 970 004e E220     		movs	r0, #226
 971 0050 FFF7FEFF 		bl	spiWrite
 972              	.LVL130:
 140:.\main.c      **** }
 973              		.loc 1 140 0
 974 0054 E120     		movs	r0, #225
 975 0056 FFF7FEFF 		bl	spiWrite
 976              	.LVL131:
 977 005a 10BD     		pop	{r4, pc}
 978              	.L83:
 979              		.align	2
 980              	.L82:
 981 005c 00000000 		.word	.LANCHOR0
 982              		.cfi_endproc
 983              	.LFE66:
 984              		.size	nrfInit, .-nrfInit
 985              		.section	.text.setup,"ax",%progbits
 986              		.align	2
 987              		.global	setup
 988              		.thumb
 989              		.thumb_func
 990              		.type	setup, %function
 991              	setup:
 992              	.LFB65:
  92:.\main.c      ****     CyGlobalIntEnable; /* Enable global interrupts. */
 993              		.loc 1 92 0
 994              		.cfi_startproc
 995              		@ args = 0, pretend = 0, frame = 0
 996              		@ frame_needed = 0, uses_anonymous_args = 0
 997 0000 08B5     		push	{r3, lr}
 998              		.cfi_def_cfa_offset 8
 999              		.cfi_offset 3, -8
 1000              		.cfi_offset 14, -4
  93:.\main.c      ****     //rx_int_StartEx(RX_INT);
 1001              		.loc 1 93 0
 1002              	@ 93 ".\main.c" 1
 1003 0002 62B6     		CPSIE   i
ARM GAS  C:\Users\HANNAL~1\AppData\Local\Temp\ccQ1P14n.s 			page 27


 1004              	@ 0 "" 2
  97:.\main.c      ****     LCD_Char_1_ClearDisplay();
 1005              		.loc 1 97 0
 1006              		.thumb
 1007 0004 FFF7FEFF 		bl	LCD_Char_1_Start
 1008              	.LVL132:
  98:.\main.c      ****     UART_1_Start();
 1009              		.loc 1 98 0
 1010 0008 0120     		movs	r0, #1
 1011 000a FFF7FEFF 		bl	LCD_Char_1_WriteControl
 1012              	.LVL133:
  99:.\main.c      ****     SPIM_1_Start();
 1013              		.loc 1 99 0
 1014 000e FFF7FEFF 		bl	UART_1_Start
 1015              	.LVL134:
 100:.\main.c      ****     // Clear buffers
 1016              		.loc 1 100 0
 1017 0012 FFF7FEFF 		bl	SPIM_1_Start
 1018              	.LVL135:
 102:.\main.c      ****     UART_1_ClearTxBuffer();
 1019              		.loc 1 102 0
 1020 0016 FFF7FEFF 		bl	UART_1_ClearRxBuffer
 1021              	.LVL136:
 103:.\main.c      ****     SPIM_1_ClearRxBuffer();
 1022              		.loc 1 103 0
 1023 001a FFF7FEFF 		bl	UART_1_ClearTxBuffer
 1024              	.LVL137:
 104:.\main.c      ****     SPIM_1_ClearTxBuffer();
 1025              		.loc 1 104 0
 1026 001e FFF7FEFF 		bl	SPIM_1_ClearRxBuffer
 1027              	.LVL138:
 105:.\main.c      ****     
 1028              		.loc 1 105 0
 1029 0022 FFF7FEFF 		bl	SPIM_1_ClearTxBuffer
 1030              	.LVL139:
 109:.\main.c      ****     UART_1_SetTxInterruptMode(UART_1_TX_STS_COMPLETE);
 1031              		.loc 1 109 0
 1032 0026 2020     		movs	r0, #32
 1033 0028 FFF7FEFF 		bl	UART_1_SetRxInterruptMode
 1034              	.LVL140:
 110:.\main.c      ****     
 1035              		.loc 1 110 0
 1036 002c 0120     		movs	r0, #1
 1037 002e FFF7FEFF 		bl	UART_1_SetTxInterruptMode
 1038              	.LVL141:
 112:.\main.c      ****     
 1039              		.loc 1 112 0
 1040 0032 FFF7FEFF 		bl	nrfInit
 1041              	.LVL142:
 115:.\main.c      ****     LCD_Char_1_PrintString("Welcome!"); 
 1042              		.loc 1 115 0
 1043 0036 0120     		movs	r0, #1
 1044 0038 FFF7FEFF 		bl	Pin_1_Write
 1045              	.LVL143:
 116:.\main.c      ****     print("Initializing");
 1046              		.loc 1 116 0
 1047 003c 0348     		ldr	r0, .L86
ARM GAS  C:\Users\HANNAL~1\AppData\Local\Temp\ccQ1P14n.s 			page 28


 1048 003e FFF7FEFF 		bl	LCD_Char_1_PrintString
 1049              	.LVL144:
 117:.\main.c      **** }
 1050              		.loc 1 117 0
 1051 0042 0348     		ldr	r0, .L86+4
 1052 0044 FFF7FEFF 		bl	print
 1053              	.LVL145:
 1054 0048 08BD     		pop	{r3, pc}
 1055              	.L87:
 1056 004a 00BF     		.align	2
 1057              	.L86:
 1058 004c C0000000 		.word	.LC16
 1059 0050 CC000000 		.word	.LC17
 1060              		.cfi_endproc
 1061              	.LFE65:
 1062              		.size	setup, .-setup
 1063              		.section	.text.main,"ax",%progbits
 1064              		.align	2
 1065              		.global	main
 1066              		.thumb
 1067              		.thumb_func
 1068              		.type	main, %function
 1069              	main:
 1070              	.LFB64:
  68:.\main.c      ****     
 1071              		.loc 1 68 0
 1072              		.cfi_startproc
 1073              		@ Volatile: function does not return.
 1074              		@ args = 0, pretend = 0, frame = 0
 1075              		@ frame_needed = 0, uses_anonymous_args = 0
 1076 0000 08B5     		push	{r3, lr}
 1077              		.cfi_def_cfa_offset 8
 1078              		.cfi_offset 3, -8
 1079              		.cfi_offset 14, -4
  71:.\main.c      ****     
 1080              		.loc 1 71 0
 1081 0002 FFF7FEFF 		bl	setup
 1082              	.LVL146:
  84:.\main.c      ****         
 1083              		.loc 1 84 0
 1084 0006 FFF7FEFF 		bl	nrfReceiveTest
 1085              	.LVL147:
 1086              		.cfi_endproc
 1087              	.LFE64:
 1088              		.size	main, .-main
 1089 000a 00BF     		.section	.text.blink,"ax",%progbits
 1090              		.align	2
 1091              		.global	blink
 1092              		.thumb
 1093              		.thumb_func
 1094              		.type	blink, %function
 1095              	blink:
 1096              	.LFB83:
 379:.\main.c      **** }
 380:.\main.c      **** 
 381:.\main.c      **** // Used for debugging
 382:.\main.c      **** // Makes LED blink once
ARM GAS  C:\Users\HANNAL~1\AppData\Local\Temp\ccQ1P14n.s 			page 29


 383:.\main.c      **** void blink() {
 1097              		.loc 1 383 0
 1098              		.cfi_startproc
 1099              		@ args = 0, pretend = 0, frame = 0
 1100              		@ frame_needed = 0, uses_anonymous_args = 0
 1101 0000 08B5     		push	{r3, lr}
 1102              		.cfi_def_cfa_offset 8
 1103              		.cfi_offset 3, -8
 1104              		.cfi_offset 14, -4
 384:.\main.c      ****     Pin_1_Write(0);
 1105              		.loc 1 384 0
 1106 0002 0020     		movs	r0, #0
 1107 0004 FFF7FEFF 		bl	Pin_1_Write
 1108              	.LVL148:
 385:.\main.c      ****     CyDelay(500);
 1109              		.loc 1 385 0
 1110 0008 4FF4FA70 		mov	r0, #500
 1111 000c FFF7FEFF 		bl	CyDelay
 1112              	.LVL149:
 386:.\main.c      ****     Pin_1_Write(1);
 1113              		.loc 1 386 0
 1114 0010 0120     		movs	r0, #1
 1115 0012 FFF7FEFF 		bl	Pin_1_Write
 1116              	.LVL150:
 387:.\main.c      ****     CyDelay(500);
 1117              		.loc 1 387 0
 1118 0016 4FF4FA70 		mov	r0, #500
 1119 001a FFF7FEFF 		bl	CyDelay
 1120              	.LVL151:
 388:.\main.c      ****     Pin_1_Write(0);
 1121              		.loc 1 388 0
 1122 001e 0020     		movs	r0, #0
 1123 0020 FFF7FEFF 		bl	Pin_1_Write
 1124              	.LVL152:
 1125 0024 08BD     		pop	{r3, pc}
 1126              		.cfi_endproc
 1127              	.LFE83:
 1128              		.size	blink, .-blink
 1129 0026 00BF     		.section	.text.stop,"ax",%progbits
 1130              		.align	2
 1131              		.global	stop
 1132              		.thumb
 1133              		.thumb_func
 1134              		.type	stop, %function
 1135              	stop:
 1136              	.LFB84:
 389:.\main.c      **** }
 390:.\main.c      **** 
 391:.\main.c      **** // Used for debugging
 392:.\main.c      **** // Stops program and blinks LED indefinitely
 393:.\main.c      **** void stop() {
 1137              		.loc 1 393 0
 1138              		.cfi_startproc
 1139              		@ Volatile: function does not return.
 1140              		@ args = 0, pretend = 0, frame = 0
 1141              		@ frame_needed = 0, uses_anonymous_args = 0
 1142 0000 08B5     		push	{r3, lr}
ARM GAS  C:\Users\HANNAL~1\AppData\Local\Temp\ccQ1P14n.s 			page 30


 1143              		.cfi_def_cfa_offset 8
 1144              		.cfi_offset 3, -8
 1145              		.cfi_offset 14, -4
 1146              	.L93:
 394:.\main.c      ****     for (;;) {
 395:.\main.c      ****         blink();
 1147              		.loc 1 395 0 discriminator 1
 1148 0002 FFF7FEFF 		bl	blink
 1149              	.LVL153:
 396:.\main.c      ****     }
 1150              		.loc 1 396 0 discriminator 1
 1151 0006 FCE7     		b	.L93
 1152              		.cfi_endproc
 1153              	.LFE84:
 1154              		.size	stop, .-stop
 1155              		.comm	printbuf,8,4
 1156              		.global	clearRXDR
 1157              		.comm	throwaway,1,1
 1158              		.comm	statusByte,1,1
 1159              		.comm	rfByte,1,1
 1160              		.comm	psocByte,1,1
 1161              		.global	rxPipe
 1162              		.global	txPipe
 1163              		.global	txMode
 1164              		.global	rxMode
 1165              		.section	.rodata
 1166              		.type	txMode, %object
 1167              		.size	txMode, 1
 1168              	txMode:
 1169 0000 0A       		.byte	10
 1170              		.type	rxMode, %object
 1171              		.size	rxMode, 1
 1172              	rxMode:
 1173 0001 0B       		.byte	11
 1174              		.data
 1175              		.align	2
 1176              		.set	.LANCHOR0,. + 0
 1177              		.type	rxPipe, %object
 1178              		.size	rxPipe, 5
 1179              	rxPipe:
 1180 0000 D2       		.byte	-46
 1181 0001 F0       		.byte	-16
 1182 0002 F0       		.byte	-16
 1183 0003 F0       		.byte	-16
 1184 0004 F0       		.byte	-16
 1185 0005 000000   		.space	3
 1186              		.type	txPipe, %object
 1187              		.size	txPipe, 5
 1188              	txPipe:
 1189 0008 E1       		.byte	-31
 1190 0009 F0       		.byte	-16
 1191 000a F0       		.byte	-16
 1192 000b F0       		.byte	-16
 1193 000c F0       		.byte	-16
 1194              		.type	clearRXDR, %object
 1195              		.size	clearRXDR, 1
 1196              	clearRXDR:
ARM GAS  C:\Users\HANNAL~1\AppData\Local\Temp\ccQ1P14n.s 			page 31


 1197 000d BF       		.byte	-65
 1198 000e 0000     		.section	.rodata.str1.4,"aMS",%progbits,1
 1199              		.align	2
 1200              	.LC0:
 1201 0000 202000   		.ascii	"  \000"
 1202 0003 00       		.space	1
 1203              	.LC1:
 1204 0004 0A0D00   		.ascii	"\012\015\000"
 1205 0007 00       		.space	1
 1206              	.LC2:
 1207 0008 257500   		.ascii	"%u\000"
 1208 000b 00       		.space	1
 1209              	.LC3:
 1210 000c 7072696E 		.ascii	"printing rx buffer\000"
 1210      74696E67 
 1210      20727820 
 1210      62756666 
 1210      657200
 1211 001f 00       		.space	1
 1212              	.LC4:
 1213 0020 72656365 		.ascii	"received\000"
 1213      69766564 
 1213      00
 1214 0029 000000   		.space	3
 1215              	.LC5:
 1216 002c 646F6E65 		.ascii	"done printing rx buffer\000"
 1216      20707269 
 1216      6E74696E 
 1216      67207278 
 1216      20627566 
 1217              	.LC6:
 1218 0044 636400   		.ascii	"cd\000"
 1219 0047 00       		.space	1
 1220              	.LC7:
 1221 0048 72656365 		.ascii	"received a byte!\000"
 1221      69766564 
 1221      20612062 
 1221      79746521 
 1221      00
 1222 0059 000000   		.space	3
 1223              	.LC8:
 1224 005c 646F6E65 		.ascii	"done!\000"
 1224      2100
 1225 0062 0000     		.space	2
 1226              	.LC9:
 1227 0064 6E6F2064 		.ascii	"no data\000"
 1227      61746100 
 1228              	.LC10:
 1229 006c 52656164 		.ascii	"Reading...\000"
 1229      696E672E 
 1229      2E2E00
 1230 0077 00       		.space	1
 1231              	.LC11:
 1232 0078 52656164 		.ascii	"Reading again...\000"
 1232      696E6720 
 1232      61676169 
 1232      6E2E2E2E 
ARM GAS  C:\Users\HANNAL~1\AppData\Local\Temp\ccQ1P14n.s 			page 32


 1232      00
 1233 0089 000000   		.space	3
 1234              	.LC12:
 1235 008c 4563686F 		.ascii	"Echo...\000"
 1235      2E2E2E00 
 1236              	.LC13:
 1237 0094 00       		.ascii	"\000"
 1238 0095 000000   		.space	3
 1239              	.LC14:
 1240 0098 77726974 		.ascii	"written long\000"
 1240      74656E20 
 1240      6C6F6E67 
 1240      00
 1241 00a5 000000   		.space	3
 1242              	.LC15:
 1243 00a8 6563686F 		.ascii	"echoing long register:\000"
 1243      696E6720 
 1243      6C6F6E67 
 1243      20726567 
 1243      69737465 
 1244 00bf 00       		.space	1
 1245              	.LC16:
 1246 00c0 57656C63 		.ascii	"Welcome!\000"
 1246      6F6D6521 
 1246      00
 1247 00c9 000000   		.space	3
 1248              	.LC17:
 1249 00cc 496E6974 		.ascii	"Initializing\000"
 1249      69616C69 
 1249      7A696E67 
 1249      00
 1250 00d9 000000   		.text
 1251              	.Letext0:
 1252              		.file 2 "c:\\program files (x86)\\cypress\\psoc creator\\3.3\\psoc creator\\import\\gnu\\arm\\4.9.
 1253              		.file 3 "c:\\program files (x86)\\cypress\\psoc creator\\3.3\\psoc creator\\import\\gnu\\arm\\4.9.
 1254              		.file 4 "Generated_Source\\PSoC5/cytypes.h"
 1255              		.file 5 "c:\\program files (x86)\\cypress\\psoc creator\\3.3\\psoc creator\\import\\gnu\\arm\\4.9.
 1256              		.file 6 "Generated_Source\\PSoC5/core_cm3.h"
 1257              		.file 7 "Generated_Source\\PSoC5/LCD_Char_1.h"
 1258              		.file 8 "Generated_Source\\PSoC5/SPIM_1.h"
 1259              		.file 9 "Generated_Source\\PSoC5/UART_1.h"
 1260              		.file 10 "Generated_Source\\PSoC5/CyLib.h"
 1261              		.file 11 "Generated_Source\\PSoC5/Pin_6.h"
 1262              		.file 12 "Generated_Source\\PSoC5/Pin_5.h"
 1263              		.file 13 "c:\\program files (x86)\\cypress\\psoc creator\\3.3\\psoc creator\\import\\gnu\\arm\\4.9
 1264              		.file 14 "Generated_Source\\PSoC5/Pin_1.h"