ARM GAS  C:\Users\HANNAL~1\AppData\Local\Temp\ccGbhEeb.s 			page 1


   1              		.syntax unified
   2              		.cpu cortex-m3
   3              		.fpu softvfp
   4              		.eabi_attribute 20, 1
   5              		.eabi_attribute 21, 1
   6              		.eabi_attribute 23, 3
   7              		.eabi_attribute 24, 1
   8              		.eabi_attribute 25, 1
   9              		.eabi_attribute 26, 1
  10              		.eabi_attribute 30, 1
  11              		.eabi_attribute 34, 1
  12              		.eabi_attribute 18, 4
  13              		.thumb
  14              		.file	"ADC_DelSig_1.c"
  15              		.text
  16              	.Ltext0:
  17              		.cfi_sections	.debug_frame
  18              		.section	.text.ADC_DelSig_1_GainCompensation,"ax",%progbits
  19              		.align	2
  20              		.thumb
  21              		.thumb_func
  22              		.type	ADC_DelSig_1_GainCompensation, %function
  23              	ADC_DelSig_1_GainCompensation:
  24              	.LFB21:
  25              		.file 1 ".\\Generated_Source\\PSoC5\\ADC_DelSig_1.c"
   1:.\Generated_Source\PSoC5/ADC_DelSig_1.c **** /*******************************************************************************
   2:.\Generated_Source\PSoC5/ADC_DelSig_1.c **** * File Name: ADC_DelSig_1.c
   3:.\Generated_Source\PSoC5/ADC_DelSig_1.c **** * Version 3.20
   4:.\Generated_Source\PSoC5/ADC_DelSig_1.c **** *
   5:.\Generated_Source\PSoC5/ADC_DelSig_1.c **** * Description:
   6:.\Generated_Source\PSoC5/ADC_DelSig_1.c **** *  This file provides the source code to the API for the Delta-Sigma ADC
   7:.\Generated_Source\PSoC5/ADC_DelSig_1.c **** *  Component.
   8:.\Generated_Source\PSoC5/ADC_DelSig_1.c **** *
   9:.\Generated_Source\PSoC5/ADC_DelSig_1.c **** * Note:
  10:.\Generated_Source\PSoC5/ADC_DelSig_1.c **** *
  11:.\Generated_Source\PSoC5/ADC_DelSig_1.c **** ********************************************************************************
  12:.\Generated_Source\PSoC5/ADC_DelSig_1.c **** * Copyright 2008-2015, Cypress Semiconductor Corporation.  All rights reserved.
  13:.\Generated_Source\PSoC5/ADC_DelSig_1.c **** * You may use this file only in accordance with the license, terms, conditions,
  14:.\Generated_Source\PSoC5/ADC_DelSig_1.c **** * disclaimers, and limitations in the end user license agreement accompanying
  15:.\Generated_Source\PSoC5/ADC_DelSig_1.c **** * the software package with which this file was provided.
  16:.\Generated_Source\PSoC5/ADC_DelSig_1.c **** *******************************************************************************/
  17:.\Generated_Source\PSoC5/ADC_DelSig_1.c **** 
  18:.\Generated_Source\PSoC5/ADC_DelSig_1.c **** #include "ADC_DelSig_1.h"
  19:.\Generated_Source\PSoC5/ADC_DelSig_1.c **** 
  20:.\Generated_Source\PSoC5/ADC_DelSig_1.c **** #if(ADC_DelSig_1_DEFAULT_INTERNAL_CLK)
  21:.\Generated_Source\PSoC5/ADC_DelSig_1.c ****     #include "ADC_DelSig_1_theACLK.h"
  22:.\Generated_Source\PSoC5/ADC_DelSig_1.c **** #endif /* ADC_DelSig_1_DEFAULT_INTERNAL_CLK */
  23:.\Generated_Source\PSoC5/ADC_DelSig_1.c **** 
  24:.\Generated_Source\PSoC5/ADC_DelSig_1.c **** #include "ADC_DelSig_1_Ext_CP_Clk.h"
  25:.\Generated_Source\PSoC5/ADC_DelSig_1.c **** 
  26:.\Generated_Source\PSoC5/ADC_DelSig_1.c **** #if(ADC_DelSig_1_DEFAULT_INPUT_MODE)
  27:.\Generated_Source\PSoC5/ADC_DelSig_1.c ****     #include "ADC_DelSig_1_AMux.h"
  28:.\Generated_Source\PSoC5/ADC_DelSig_1.c **** #endif /* ADC_DelSig_1_DEFAULT_INPUT_MODE */
  29:.\Generated_Source\PSoC5/ADC_DelSig_1.c **** 
  30:.\Generated_Source\PSoC5/ADC_DelSig_1.c **** 
  31:.\Generated_Source\PSoC5/ADC_DelSig_1.c **** /***************************************
  32:.\Generated_Source\PSoC5/ADC_DelSig_1.c **** * Global data allocation
ARM GAS  C:\Users\HANNAL~1\AppData\Local\Temp\ccGbhEeb.s 			page 2


  33:.\Generated_Source\PSoC5/ADC_DelSig_1.c **** ***************************************/
  34:.\Generated_Source\PSoC5/ADC_DelSig_1.c **** 
  35:.\Generated_Source\PSoC5/ADC_DelSig_1.c **** /* Software flag for checking conversion completed or not */
  36:.\Generated_Source\PSoC5/ADC_DelSig_1.c **** volatile uint8 ADC_DelSig_1_convDone = 0u;
  37:.\Generated_Source\PSoC5/ADC_DelSig_1.c **** 
  38:.\Generated_Source\PSoC5/ADC_DelSig_1.c **** /* Software flag to stop conversion for single sample conversion mode
  39:.\Generated_Source\PSoC5/ADC_DelSig_1.c **** *   with resolution above 16 bits 
  40:.\Generated_Source\PSoC5/ADC_DelSig_1.c **** */
  41:.\Generated_Source\PSoC5/ADC_DelSig_1.c **** volatile uint8 ADC_DelSig_1_stopConversion = 0u;
  42:.\Generated_Source\PSoC5/ADC_DelSig_1.c **** 
  43:.\Generated_Source\PSoC5/ADC_DelSig_1.c **** /* To run the initialization block only at the start up */
  44:.\Generated_Source\PSoC5/ADC_DelSig_1.c **** uint8 ADC_DelSig_1_initVar = 0u;
  45:.\Generated_Source\PSoC5/ADC_DelSig_1.c **** 
  46:.\Generated_Source\PSoC5/ADC_DelSig_1.c **** /* To check whether ADC started or not before switching the configuration */
  47:.\Generated_Source\PSoC5/ADC_DelSig_1.c **** volatile uint8 ADC_DelSig_1_started = 0u;
  48:.\Generated_Source\PSoC5/ADC_DelSig_1.c **** 
  49:.\Generated_Source\PSoC5/ADC_DelSig_1.c **** /* Flag to hold ADC config number. By default active config is 1. */
  50:.\Generated_Source\PSoC5/ADC_DelSig_1.c **** volatile uint8 ADC_DelSig_1_Config = 1u;
  51:.\Generated_Source\PSoC5/ADC_DelSig_1.c **** 
  52:.\Generated_Source\PSoC5/ADC_DelSig_1.c **** volatile int32 ADC_DelSig_1_Offset;
  53:.\Generated_Source\PSoC5/ADC_DelSig_1.c **** volatile int32 ADC_DelSig_1_CountsPerVolt;
  54:.\Generated_Source\PSoC5/ADC_DelSig_1.c **** 
  55:.\Generated_Source\PSoC5/ADC_DelSig_1.c **** 
  56:.\Generated_Source\PSoC5/ADC_DelSig_1.c **** /***************************************
  57:.\Generated_Source\PSoC5/ADC_DelSig_1.c **** * Local data allocation
  58:.\Generated_Source\PSoC5/ADC_DelSig_1.c **** ***************************************/
  59:.\Generated_Source\PSoC5/ADC_DelSig_1.c **** 
  60:.\Generated_Source\PSoC5/ADC_DelSig_1.c **** /* The array with precalculated gain compensation coefficients */
  61:.\Generated_Source\PSoC5/ADC_DelSig_1.c **** static ADC_DelSig_1_GCOR_STRUCT ADC_DelSig_1_gcor[ADC_DelSig_1_DEFAULT_NUM_CONFIGS];
  62:.\Generated_Source\PSoC5/ADC_DelSig_1.c **** 
  63:.\Generated_Source\PSoC5/ADC_DelSig_1.c **** 
  64:.\Generated_Source\PSoC5/ADC_DelSig_1.c **** 
  65:.\Generated_Source\PSoC5/ADC_DelSig_1.c **** /***************************************
  66:.\Generated_Source\PSoC5/ADC_DelSig_1.c **** * Forward function references
  67:.\Generated_Source\PSoC5/ADC_DelSig_1.c **** ***************************************/
  68:.\Generated_Source\PSoC5/ADC_DelSig_1.c **** static void ADC_DelSig_1_InitConfig(uint8 config) ;
  69:.\Generated_Source\PSoC5/ADC_DelSig_1.c **** static void ADC_DelSig_1_GainCompensation(uint8 inputRange, uint16 idealDecGain, uint16 idealOddDec
  70:.\Generated_Source\PSoC5/ADC_DelSig_1.c ****                             uint8 resolution, uint8 config) ;
  71:.\Generated_Source\PSoC5/ADC_DelSig_1.c **** static void ADC_DelSig_1_SetDSMRef0Reg(uint8 value) ;
  72:.\Generated_Source\PSoC5/ADC_DelSig_1.c **** 
  73:.\Generated_Source\PSoC5/ADC_DelSig_1.c **** 
  74:.\Generated_Source\PSoC5/ADC_DelSig_1.c **** /******************************************************************************
  75:.\Generated_Source\PSoC5/ADC_DelSig_1.c **** * Function Name: ADC_DelSig_1_Init
  76:.\Generated_Source\PSoC5/ADC_DelSig_1.c **** *******************************************************************************
  77:.\Generated_Source\PSoC5/ADC_DelSig_1.c **** *
  78:.\Generated_Source\PSoC5/ADC_DelSig_1.c **** * Summary:
  79:.\Generated_Source\PSoC5/ADC_DelSig_1.c **** *  Initialize component's parameters to the parameters set by user in the
  80:.\Generated_Source\PSoC5/ADC_DelSig_1.c **** *  customizer of the component placed onto schematic. Usually called in
  81:.\Generated_Source\PSoC5/ADC_DelSig_1.c **** * ADC_DelSig_1_Start().
  82:.\Generated_Source\PSoC5/ADC_DelSig_1.c **** *
  83:.\Generated_Source\PSoC5/ADC_DelSig_1.c **** *
  84:.\Generated_Source\PSoC5/ADC_DelSig_1.c **** * Parameters:
  85:.\Generated_Source\PSoC5/ADC_DelSig_1.c **** *  None
  86:.\Generated_Source\PSoC5/ADC_DelSig_1.c **** *
  87:.\Generated_Source\PSoC5/ADC_DelSig_1.c **** * Return:
  88:.\Generated_Source\PSoC5/ADC_DelSig_1.c **** *  None
  89:.\Generated_Source\PSoC5/ADC_DelSig_1.c **** *
ARM GAS  C:\Users\HANNAL~1\AppData\Local\Temp\ccGbhEeb.s 			page 3


  90:.\Generated_Source\PSoC5/ADC_DelSig_1.c **** *******************************************************************************/
  91:.\Generated_Source\PSoC5/ADC_DelSig_1.c **** void ADC_DelSig_1_Init(void) 
  92:.\Generated_Source\PSoC5/ADC_DelSig_1.c **** {
  93:.\Generated_Source\PSoC5/ADC_DelSig_1.c **** 
  94:.\Generated_Source\PSoC5/ADC_DelSig_1.c ****     ADC_DelSig_1_Config = 1u;
  95:.\Generated_Source\PSoC5/ADC_DelSig_1.c ****     ADC_DelSig_1_convDone = 0u;
  96:.\Generated_Source\PSoC5/ADC_DelSig_1.c **** 
  97:.\Generated_Source\PSoC5/ADC_DelSig_1.c ****     ADC_DelSig_1_Ext_CP_Clk_SetMode(CYCLK_DUTY);
  98:.\Generated_Source\PSoC5/ADC_DelSig_1.c **** 
  99:.\Generated_Source\PSoC5/ADC_DelSig_1.c ****     /* This is only valid if there is an internal clock */
 100:.\Generated_Source\PSoC5/ADC_DelSig_1.c ****     #if(ADC_DelSig_1_DEFAULT_INTERNAL_CLK)
 101:.\Generated_Source\PSoC5/ADC_DelSig_1.c ****         ADC_DelSig_1_theACLK_SetMode(CYCLK_DUTY);
 102:.\Generated_Source\PSoC5/ADC_DelSig_1.c ****     #endif /* ADC_DelSig_1_DEFAULT_INTERNAL_CLK */
 103:.\Generated_Source\PSoC5/ADC_DelSig_1.c **** 
 104:.\Generated_Source\PSoC5/ADC_DelSig_1.c ****     #if(ADC_DelSig_1_IRQ_REMOVE == 0u)
 105:.\Generated_Source\PSoC5/ADC_DelSig_1.c ****         /* Set interrupt priority */
 106:.\Generated_Source\PSoC5/ADC_DelSig_1.c ****         CyIntSetPriority(ADC_DelSig_1_INTC_NUMBER, ADC_DelSig_1_INTC_PRIOR_NUMBER);
 107:.\Generated_Source\PSoC5/ADC_DelSig_1.c ****     #endif   /* End ADC_DelSig_1_IRQ_REMOVE */
 108:.\Generated_Source\PSoC5/ADC_DelSig_1.c **** 
 109:.\Generated_Source\PSoC5/ADC_DelSig_1.c ****     /* Init static registers with common configuration */
 110:.\Generated_Source\PSoC5/ADC_DelSig_1.c ****     ADC_DelSig_1_DSM_DEM0_REG    = ADC_DelSig_1_CFG1_DSM_DEM0;
 111:.\Generated_Source\PSoC5/ADC_DelSig_1.c ****     ADC_DelSig_1_DSM_DEM1_REG    = ADC_DelSig_1_CFG1_DSM_DEM1;
 112:.\Generated_Source\PSoC5/ADC_DelSig_1.c ****     ADC_DelSig_1_DSM_MISC_REG    = ADC_DelSig_1_CFG1_DSM_MISC;
 113:.\Generated_Source\PSoC5/ADC_DelSig_1.c ****     ADC_DelSig_1_DSM_CLK_REG    |= ADC_DelSig_1_CFG1_DSM_CLK;
 114:.\Generated_Source\PSoC5/ADC_DelSig_1.c ****     ADC_DelSig_1_DSM_REF1_REG    = ADC_DelSig_1_CFG1_DSM_REF1;
 115:.\Generated_Source\PSoC5/ADC_DelSig_1.c **** 
 116:.\Generated_Source\PSoC5/ADC_DelSig_1.c ****     ADC_DelSig_1_DSM_OUT0_REG    = ADC_DelSig_1_CFG1_DSM_OUT0;
 117:.\Generated_Source\PSoC5/ADC_DelSig_1.c ****     ADC_DelSig_1_DSM_OUT1_REG    = ADC_DelSig_1_CFG1_DSM_OUT1;
 118:.\Generated_Source\PSoC5/ADC_DelSig_1.c **** 
 119:.\Generated_Source\PSoC5/ADC_DelSig_1.c ****     ADC_DelSig_1_DSM_CR0_REG     = ADC_DelSig_1_CFG1_DSM_CR0;
 120:.\Generated_Source\PSoC5/ADC_DelSig_1.c ****     ADC_DelSig_1_DSM_CR1_REG     = ADC_DelSig_1_CFG1_DSM_CR1;
 121:.\Generated_Source\PSoC5/ADC_DelSig_1.c **** #if(ADC_DelSig_1_MI_ENABLE != 0u) /* Enable Modulator Input */
 122:.\Generated_Source\PSoC5/ADC_DelSig_1.c ****     ADC_DelSig_1_DSM_CR3_REG     |= ADC_DelSig_1_DSM_MODBIT_EN;
 123:.\Generated_Source\PSoC5/ADC_DelSig_1.c **** #else
 124:.\Generated_Source\PSoC5/ADC_DelSig_1.c ****     ADC_DelSig_1_DSM_CR3_REG     = ADC_DelSig_1_CFG1_DSM_CR3;
 125:.\Generated_Source\PSoC5/ADC_DelSig_1.c **** #endif /* ADC_DelSig_1_MI_ENABLE != 0u*/    
 126:.\Generated_Source\PSoC5/ADC_DelSig_1.c ****     ADC_DelSig_1_DSM_CR8_REG     = ADC_DelSig_1_CFG1_DSM_CR8;
 127:.\Generated_Source\PSoC5/ADC_DelSig_1.c ****     ADC_DelSig_1_DSM_CR9_REG     = ADC_DelSig_1_CFG1_DSM_CR9;
 128:.\Generated_Source\PSoC5/ADC_DelSig_1.c ****     ADC_DelSig_1_DSM_CR13_REG    = ADC_DelSig_1_CFG1_DSM_CR13;
 129:.\Generated_Source\PSoC5/ADC_DelSig_1.c **** 
 130:.\Generated_Source\PSoC5/ADC_DelSig_1.c ****     ADC_DelSig_1_DEC_SR_REG      = ADC_DelSig_1_CFG1_DEC_SR;
 131:.\Generated_Source\PSoC5/ADC_DelSig_1.c **** 
 132:.\Generated_Source\PSoC5/ADC_DelSig_1.c ****     /* Calculate Gain compensation coefficients for all configurations */
 133:.\Generated_Source\PSoC5/ADC_DelSig_1.c ****     ADC_DelSig_1_GainCompensation(ADC_DelSig_1_CFG1_INPUT_RANGE,
 134:.\Generated_Source\PSoC5/ADC_DelSig_1.c ****                                       ADC_DelSig_1_CFG1_IDEAL_DEC_GAIN,
 135:.\Generated_Source\PSoC5/ADC_DelSig_1.c ****                                       ADC_DelSig_1_CFG1_IDEAL_ODDDEC_GAIN,
 136:.\Generated_Source\PSoC5/ADC_DelSig_1.c ****                                       ADC_DelSig_1_CFG1_RESOLUTION,
 137:.\Generated_Source\PSoC5/ADC_DelSig_1.c ****                                       ADC_DelSig_1_CFG1);
 138:.\Generated_Source\PSoC5/ADC_DelSig_1.c ****     #if(ADC_DelSig_1_DEFAULT_NUM_CONFIGS > 1)
 139:.\Generated_Source\PSoC5/ADC_DelSig_1.c ****         ADC_DelSig_1_GainCompensation(ADC_DelSig_1_CFG2_INPUT_RANGE,
 140:.\Generated_Source\PSoC5/ADC_DelSig_1.c ****                                           ADC_DelSig_1_CFG2_IDEAL_DEC_GAIN,
 141:.\Generated_Source\PSoC5/ADC_DelSig_1.c ****                                           ADC_DelSig_1_CFG2_IDEAL_ODDDEC_GAIN,
 142:.\Generated_Source\PSoC5/ADC_DelSig_1.c ****                                           ADC_DelSig_1_CFG2_RESOLUTION,
 143:.\Generated_Source\PSoC5/ADC_DelSig_1.c ****                                           ADC_DelSig_1_CFG2);
 144:.\Generated_Source\PSoC5/ADC_DelSig_1.c ****     #endif /* ADC_DelSig_1_DEFAULT_NUM_CONFIGS > 1 */
 145:.\Generated_Source\PSoC5/ADC_DelSig_1.c ****     #if(ADC_DelSig_1_DEFAULT_NUM_CONFIGS > 2)
 146:.\Generated_Source\PSoC5/ADC_DelSig_1.c ****         ADC_DelSig_1_GainCompensation(ADC_DelSig_1_CFG3_INPUT_RANGE,
ARM GAS  C:\Users\HANNAL~1\AppData\Local\Temp\ccGbhEeb.s 			page 4


 147:.\Generated_Source\PSoC5/ADC_DelSig_1.c ****                                           ADC_DelSig_1_CFG3_IDEAL_DEC_GAIN,
 148:.\Generated_Source\PSoC5/ADC_DelSig_1.c ****                                           ADC_DelSig_1_CFG3_IDEAL_ODDDEC_GAIN,
 149:.\Generated_Source\PSoC5/ADC_DelSig_1.c ****                                           ADC_DelSig_1_CFG3_RESOLUTION,
 150:.\Generated_Source\PSoC5/ADC_DelSig_1.c ****                                           ADC_DelSig_1_CFG3);
 151:.\Generated_Source\PSoC5/ADC_DelSig_1.c ****     #endif /* ADC_DelSig_1_DEFAULT_NUM_CONFIGS > 2 */
 152:.\Generated_Source\PSoC5/ADC_DelSig_1.c ****     #if(ADC_DelSig_1_DEFAULT_NUM_CONFIGS > 3)
 153:.\Generated_Source\PSoC5/ADC_DelSig_1.c ****         ADC_DelSig_1_GainCompensation(ADC_DelSig_1_CFG4_INPUT_RANGE,
 154:.\Generated_Source\PSoC5/ADC_DelSig_1.c ****                                           ADC_DelSig_1_CFG4_IDEAL_DEC_GAIN,
 155:.\Generated_Source\PSoC5/ADC_DelSig_1.c ****                                           ADC_DelSig_1_CFG4_IDEAL_ODDDEC_GAIN,
 156:.\Generated_Source\PSoC5/ADC_DelSig_1.c ****                                           ADC_DelSig_1_CFG4_RESOLUTION,
 157:.\Generated_Source\PSoC5/ADC_DelSig_1.c ****                                           ADC_DelSig_1_CFG4);
 158:.\Generated_Source\PSoC5/ADC_DelSig_1.c ****     #endif /* ADC_DelSig_1_DEFAULT_NUM_CONFIGS > 3 */
 159:.\Generated_Source\PSoC5/ADC_DelSig_1.c **** 
 160:.\Generated_Source\PSoC5/ADC_DelSig_1.c ****     /* Set GCOR register for config1 */
 161:.\Generated_Source\PSoC5/ADC_DelSig_1.c ****     ADC_DelSig_1_DEC_GVAL_REG = ADC_DelSig_1_gcor[ADC_DelSig_1_Config - 1u].gval;
 162:.\Generated_Source\PSoC5/ADC_DelSig_1.c ****     CY_SET_REG16(ADC_DelSig_1_DEC_GCOR_16B_PTR, ADC_DelSig_1_gcor[ADC_DelSig_1_Config - 1u].gcor);
 163:.\Generated_Source\PSoC5/ADC_DelSig_1.c **** 
 164:.\Generated_Source\PSoC5/ADC_DelSig_1.c ****     /* Initialize the registers with default customizer settings for config1 */
 165:.\Generated_Source\PSoC5/ADC_DelSig_1.c ****     ADC_DelSig_1_InitConfig(ADC_DelSig_1_Config);
 166:.\Generated_Source\PSoC5/ADC_DelSig_1.c **** }
 167:.\Generated_Source\PSoC5/ADC_DelSig_1.c **** 
 168:.\Generated_Source\PSoC5/ADC_DelSig_1.c **** 
 169:.\Generated_Source\PSoC5/ADC_DelSig_1.c **** /******************************************************************************
 170:.\Generated_Source\PSoC5/ADC_DelSig_1.c **** * Function Name: ADC_DelSig_1_Enable
 171:.\Generated_Source\PSoC5/ADC_DelSig_1.c **** *******************************************************************************
 172:.\Generated_Source\PSoC5/ADC_DelSig_1.c **** *
 173:.\Generated_Source\PSoC5/ADC_DelSig_1.c **** * Summary:
 174:.\Generated_Source\PSoC5/ADC_DelSig_1.c **** *  Enables the ADC DelSig block operation.
 175:.\Generated_Source\PSoC5/ADC_DelSig_1.c **** *
 176:.\Generated_Source\PSoC5/ADC_DelSig_1.c **** *
 177:.\Generated_Source\PSoC5/ADC_DelSig_1.c **** * Parameters:
 178:.\Generated_Source\PSoC5/ADC_DelSig_1.c **** *  None
 179:.\Generated_Source\PSoC5/ADC_DelSig_1.c **** *
 180:.\Generated_Source\PSoC5/ADC_DelSig_1.c **** * Return:
 181:.\Generated_Source\PSoC5/ADC_DelSig_1.c **** *  None
 182:.\Generated_Source\PSoC5/ADC_DelSig_1.c **** *
 183:.\Generated_Source\PSoC5/ADC_DelSig_1.c **** *******************************************************************************/
 184:.\Generated_Source\PSoC5/ADC_DelSig_1.c **** void ADC_DelSig_1_Enable(void) 
 185:.\Generated_Source\PSoC5/ADC_DelSig_1.c **** {
 186:.\Generated_Source\PSoC5/ADC_DelSig_1.c **** 	uint8 config;
 187:.\Generated_Source\PSoC5/ADC_DelSig_1.c ****     uint8 enableInterrupts;
 188:.\Generated_Source\PSoC5/ADC_DelSig_1.c ****     enableInterrupts = CyEnterCriticalSection();
 189:.\Generated_Source\PSoC5/ADC_DelSig_1.c **** 
 190:.\Generated_Source\PSoC5/ADC_DelSig_1.c ****     /* Read volatile variable to the local variable */
 191:.\Generated_Source\PSoC5/ADC_DelSig_1.c ****     config = ADC_DelSig_1_Config;
 192:.\Generated_Source\PSoC5/ADC_DelSig_1.c ****     
 193:.\Generated_Source\PSoC5/ADC_DelSig_1.c ****     /* Enable active mode power for ADC */
 194:.\Generated_Source\PSoC5/ADC_DelSig_1.c ****     ADC_DelSig_1_PWRMGR_DEC_REG |= ADC_DelSig_1_ACT_PWR_DEC_EN;
 195:.\Generated_Source\PSoC5/ADC_DelSig_1.c ****     ADC_DelSig_1_PWRMGR_DSM_REG |= ADC_DelSig_1_ACT_PWR_DSM_EN;
 196:.\Generated_Source\PSoC5/ADC_DelSig_1.c **** 
 197:.\Generated_Source\PSoC5/ADC_DelSig_1.c ****      /* Enable alternative active mode power for ADC */
 198:.\Generated_Source\PSoC5/ADC_DelSig_1.c ****     ADC_DelSig_1_STBY_PWRMGR_DEC_REG |= ADC_DelSig_1_STBY_PWR_DEC_EN;
 199:.\Generated_Source\PSoC5/ADC_DelSig_1.c ****     ADC_DelSig_1_STBY_PWRMGR_DSM_REG |= ADC_DelSig_1_STBY_PWR_DSM_EN;
 200:.\Generated_Source\PSoC5/ADC_DelSig_1.c **** 
 201:.\Generated_Source\PSoC5/ADC_DelSig_1.c ****     /* Disable PRES, Enable power to VCMBUF0, REFBUF0 and REFBUF1, enable PRES */
 202:.\Generated_Source\PSoC5/ADC_DelSig_1.c ****     ADC_DelSig_1_RESET_CR4_REG |= ADC_DelSig_1_IGNORE_PRESA1;
 203:.\Generated_Source\PSoC5/ADC_DelSig_1.c ****     ADC_DelSig_1_RESET_CR5_REG |= ADC_DelSig_1_IGNORE_PRESA2;
ARM GAS  C:\Users\HANNAL~1\AppData\Local\Temp\ccGbhEeb.s 			page 5


 204:.\Generated_Source\PSoC5/ADC_DelSig_1.c **** 
 205:.\Generated_Source\PSoC5/ADC_DelSig_1.c ****     ADC_DelSig_1_DSM_CR17_REG |= (ADC_DelSig_1_DSM_EN_BUF_VREF | ADC_DelSig_1_DSM_EN_BUF_VCM);
 206:.\Generated_Source\PSoC5/ADC_DelSig_1.c **** 
 207:.\Generated_Source\PSoC5/ADC_DelSig_1.c ****     /* Code to disable the REFBUF0 if reference chosen is External ref */
 208:.\Generated_Source\PSoC5/ADC_DelSig_1.c ****     #if (((ADC_DelSig_1_CFG1_REFERENCE == ADC_DelSig_1_EXT_REF_ON_P03) || \
 209:.\Generated_Source\PSoC5/ADC_DelSig_1.c ****           (ADC_DelSig_1_CFG1_REFERENCE == ADC_DelSig_1_EXT_REF_ON_P32)) || \
 210:.\Generated_Source\PSoC5/ADC_DelSig_1.c ****          ((ADC_DelSig_1_DEFAULT_NUM_CONFIGS > 1) && \
 211:.\Generated_Source\PSoC5/ADC_DelSig_1.c ****           ((ADC_DelSig_1_CFG2_REFERENCE == ADC_DelSig_1_EXT_REF_ON_P03) ||  \
 212:.\Generated_Source\PSoC5/ADC_DelSig_1.c ****            (ADC_DelSig_1_CFG2_REFERENCE == ADC_DelSig_1_EXT_REF_ON_P32))) || \
 213:.\Generated_Source\PSoC5/ADC_DelSig_1.c ****          ((ADC_DelSig_1_DEFAULT_NUM_CONFIGS > 2) && \
 214:.\Generated_Source\PSoC5/ADC_DelSig_1.c ****           ((ADC_DelSig_1_CFG3_REFERENCE == ADC_DelSig_1_EXT_REF_ON_P03) ||  \
 215:.\Generated_Source\PSoC5/ADC_DelSig_1.c ****            (ADC_DelSig_1_CFG3_REFERENCE == ADC_DelSig_1_EXT_REF_ON_P32))) || \
 216:.\Generated_Source\PSoC5/ADC_DelSig_1.c ****          ((ADC_DelSig_1_DEFAULT_NUM_CONFIGS > 3) && \
 217:.\Generated_Source\PSoC5/ADC_DelSig_1.c ****           ((ADC_DelSig_1_CFG4_REFERENCE == ADC_DelSig_1_EXT_REF_ON_P03) || \
 218:.\Generated_Source\PSoC5/ADC_DelSig_1.c ****            (ADC_DelSig_1_CFG4_REFERENCE == ADC_DelSig_1_EXT_REF_ON_P32))))
 219:.\Generated_Source\PSoC5/ADC_DelSig_1.c ****         if (((config == 1u) &&
 220:.\Generated_Source\PSoC5/ADC_DelSig_1.c ****             ((ADC_DelSig_1_CFG1_REFERENCE == ADC_DelSig_1_EXT_REF_ON_P03) ||
 221:.\Generated_Source\PSoC5/ADC_DelSig_1.c ****              (ADC_DelSig_1_CFG1_REFERENCE == ADC_DelSig_1_EXT_REF_ON_P32))) ||
 222:.\Generated_Source\PSoC5/ADC_DelSig_1.c ****             ((config == 2u) &&
 223:.\Generated_Source\PSoC5/ADC_DelSig_1.c ****             ((ADC_DelSig_1_CFG2_REFERENCE == ADC_DelSig_1_EXT_REF_ON_P03) ||
 224:.\Generated_Source\PSoC5/ADC_DelSig_1.c ****              (ADC_DelSig_1_CFG2_REFERENCE == ADC_DelSig_1_EXT_REF_ON_P32))) ||
 225:.\Generated_Source\PSoC5/ADC_DelSig_1.c ****             ((config == 3u) &&
 226:.\Generated_Source\PSoC5/ADC_DelSig_1.c ****             ((ADC_DelSig_1_CFG3_REFERENCE == ADC_DelSig_1_EXT_REF_ON_P03) ||
 227:.\Generated_Source\PSoC5/ADC_DelSig_1.c ****              (ADC_DelSig_1_CFG3_REFERENCE == ADC_DelSig_1_EXT_REF_ON_P32))) ||
 228:.\Generated_Source\PSoC5/ADC_DelSig_1.c ****             ((config == 4u) &&
 229:.\Generated_Source\PSoC5/ADC_DelSig_1.c ****             ((ADC_DelSig_1_CFG4_REFERENCE == ADC_DelSig_1_EXT_REF_ON_P03) ||
 230:.\Generated_Source\PSoC5/ADC_DelSig_1.c ****              (ADC_DelSig_1_CFG4_REFERENCE == ADC_DelSig_1_EXT_REF_ON_P32))))
 231:.\Generated_Source\PSoC5/ADC_DelSig_1.c ****         {
 232:.\Generated_Source\PSoC5/ADC_DelSig_1.c ****             /* Disable the REFBUF0 */
 233:.\Generated_Source\PSoC5/ADC_DelSig_1.c ****             ADC_DelSig_1_DSM_CR17_REG &= (uint8)~ADC_DelSig_1_DSM_EN_BUF_VREF;
 234:.\Generated_Source\PSoC5/ADC_DelSig_1.c ****         }
 235:.\Generated_Source\PSoC5/ADC_DelSig_1.c ****     #endif /* External ref */
 236:.\Generated_Source\PSoC5/ADC_DelSig_1.c **** 
 237:.\Generated_Source\PSoC5/ADC_DelSig_1.c ****     #if (((ADC_DelSig_1_CFG1_INPUT_RANGE == ADC_DelSig_1_IR_VSSA_TO_2VREF) || \
 238:.\Generated_Source\PSoC5/ADC_DelSig_1.c ****          ((ADC_DelSig_1_DEFAULT_NUM_CONFIGS > 1) && \
 239:.\Generated_Source\PSoC5/ADC_DelSig_1.c ****           (ADC_DelSig_1_CFG2_INPUT_RANGE == ADC_DelSig_1_IR_VSSA_TO_2VREF)) || \
 240:.\Generated_Source\PSoC5/ADC_DelSig_1.c ****          ((ADC_DelSig_1_DEFAULT_NUM_CONFIGS > 2) && \
 241:.\Generated_Source\PSoC5/ADC_DelSig_1.c ****           (ADC_DelSig_1_CFG3_INPUT_RANGE == ADC_DelSig_1_IR_VSSA_TO_2VREF)) || \
 242:.\Generated_Source\PSoC5/ADC_DelSig_1.c ****          ((ADC_DelSig_1_DEFAULT_NUM_CONFIGS > 3) && \
 243:.\Generated_Source\PSoC5/ADC_DelSig_1.c ****           (ADC_DelSig_1_CFG4_INPUT_RANGE == ADC_DelSig_1_IR_VSSA_TO_2VREF))))
 244:.\Generated_Source\PSoC5/ADC_DelSig_1.c ****         if(((config == 1u) &&
 245:.\Generated_Source\PSoC5/ADC_DelSig_1.c ****             (ADC_DelSig_1_CFG1_INPUT_RANGE == ADC_DelSig_1_IR_VSSA_TO_2VREF) &&
 246:.\Generated_Source\PSoC5/ADC_DelSig_1.c ****             ((ADC_DelSig_1_CFG1_REFERENCE != ADC_DelSig_1_EXT_REF_ON_P03) &&
 247:.\Generated_Source\PSoC5/ADC_DelSig_1.c ****              (ADC_DelSig_1_CFG1_REFERENCE != ADC_DelSig_1_EXT_REF_ON_P32))) ||
 248:.\Generated_Source\PSoC5/ADC_DelSig_1.c ****              ((config == 2u) &&
 249:.\Generated_Source\PSoC5/ADC_DelSig_1.c ****               (ADC_DelSig_1_CFG2_INPUT_RANGE == ADC_DelSig_1_IR_VSSA_TO_2VREF) &&
 250:.\Generated_Source\PSoC5/ADC_DelSig_1.c ****              ((ADC_DelSig_1_CFG2_REFERENCE != ADC_DelSig_1_EXT_REF_ON_P03) &&
 251:.\Generated_Source\PSoC5/ADC_DelSig_1.c ****              (ADC_DelSig_1_CFG2_REFERENCE != ADC_DelSig_1_EXT_REF_ON_P32))) ||
 252:.\Generated_Source\PSoC5/ADC_DelSig_1.c ****              ((config == 3u) &&
 253:.\Generated_Source\PSoC5/ADC_DelSig_1.c ****               (ADC_DelSig_1_CFG3_INPUT_RANGE == ADC_DelSig_1_IR_VSSA_TO_2VREF) &&
 254:.\Generated_Source\PSoC5/ADC_DelSig_1.c ****              ((ADC_DelSig_1_CFG3_REFERENCE != ADC_DelSig_1_EXT_REF_ON_P03) &&
 255:.\Generated_Source\PSoC5/ADC_DelSig_1.c ****              (ADC_DelSig_1_CFG3_REFERENCE != ADC_DelSig_1_EXT_REF_ON_P32))) ||
 256:.\Generated_Source\PSoC5/ADC_DelSig_1.c ****              ((config == 4u) &&
 257:.\Generated_Source\PSoC5/ADC_DelSig_1.c ****               (ADC_DelSig_1_CFG4_INPUT_RANGE == ADC_DelSig_1_IR_VSSA_TO_2VREF) &&
 258:.\Generated_Source\PSoC5/ADC_DelSig_1.c ****              ((ADC_DelSig_1_CFG4_REFERENCE != ADC_DelSig_1_EXT_REF_ON_P03) &&
 259:.\Generated_Source\PSoC5/ADC_DelSig_1.c ****              (ADC_DelSig_1_CFG4_REFERENCE != ADC_DelSig_1_EXT_REF_ON_P32))))
 260:.\Generated_Source\PSoC5/ADC_DelSig_1.c ****         {
ARM GAS  C:\Users\HANNAL~1\AppData\Local\Temp\ccGbhEeb.s 			page 6


 261:.\Generated_Source\PSoC5/ADC_DelSig_1.c ****             /* Enable the REFBUF1 */
 262:.\Generated_Source\PSoC5/ADC_DelSig_1.c ****             ADC_DelSig_1_DSM_REF0_REG |= ADC_DelSig_1_DSM_EN_BUF_VREF_INN;
 263:.\Generated_Source\PSoC5/ADC_DelSig_1.c ****         }
 264:.\Generated_Source\PSoC5/ADC_DelSig_1.c ****     #endif /* VSSA_TO_2VREF */
 265:.\Generated_Source\PSoC5/ADC_DelSig_1.c ****     if(config != 0u)
 266:.\Generated_Source\PSoC5/ADC_DelSig_1.c ****     {
 267:.\Generated_Source\PSoC5/ADC_DelSig_1.c ****         /* Suppress compiler warning */
 268:.\Generated_Source\PSoC5/ADC_DelSig_1.c ****     }
 269:.\Generated_Source\PSoC5/ADC_DelSig_1.c **** 
 270:.\Generated_Source\PSoC5/ADC_DelSig_1.c ****     /* Wait for 3 microseconds */
 271:.\Generated_Source\PSoC5/ADC_DelSig_1.c ****     CyDelayUs(ADC_DelSig_1_PRES_DELAY_TIME);
 272:.\Generated_Source\PSoC5/ADC_DelSig_1.c **** 
 273:.\Generated_Source\PSoC5/ADC_DelSig_1.c ****     /* Enable the press circuit */
 274:.\Generated_Source\PSoC5/ADC_DelSig_1.c ****     ADC_DelSig_1_RESET_CR4_REG &= (uint8)~ADC_DelSig_1_IGNORE_PRESA1;
 275:.\Generated_Source\PSoC5/ADC_DelSig_1.c ****     ADC_DelSig_1_RESET_CR5_REG &= (uint8)~ADC_DelSig_1_IGNORE_PRESA2;
 276:.\Generated_Source\PSoC5/ADC_DelSig_1.c **** 
 277:.\Generated_Source\PSoC5/ADC_DelSig_1.c ****     /* Enable negative pumps for DSM  */
 278:.\Generated_Source\PSoC5/ADC_DelSig_1.c ****     ADC_DelSig_1_PUMP_CR1_REG  |= ( ADC_DelSig_1_PUMP_CR1_CLKSEL | ADC_DelSig_1_PUMP_CR1_FORCE );
 279:.\Generated_Source\PSoC5/ADC_DelSig_1.c **** 
 280:.\Generated_Source\PSoC5/ADC_DelSig_1.c ****     /* Enable Modulator Chopping if required */
 281:.\Generated_Source\PSoC5/ADC_DelSig_1.c ****     ADC_DelSig_1_DSM_CR2_REG = ADC_DelSig_1_CFG1_DSM_CR2;
 282:.\Generated_Source\PSoC5/ADC_DelSig_1.c **** 
 283:.\Generated_Source\PSoC5/ADC_DelSig_1.c ****     /* This is only valid if there is an internal clock */
 284:.\Generated_Source\PSoC5/ADC_DelSig_1.c ****     #if(ADC_DelSig_1_DEFAULT_INTERNAL_CLK)
 285:.\Generated_Source\PSoC5/ADC_DelSig_1.c ****         ADC_DelSig_1_PWRMGR_CLK_REG |= ADC_DelSig_1_ACT_PWR_CLK_EN;
 286:.\Generated_Source\PSoC5/ADC_DelSig_1.c ****         ADC_DelSig_1_STBY_PWRMGR_CLK_REG |= ADC_DelSig_1_STBY_PWR_CLK_EN;
 287:.\Generated_Source\PSoC5/ADC_DelSig_1.c ****     #endif /* ADC_DelSig_1_DEFAULT_INTERNAL_CLK */
 288:.\Generated_Source\PSoC5/ADC_DelSig_1.c **** 
 289:.\Generated_Source\PSoC5/ADC_DelSig_1.c ****     /* Enable the active and alternate active power for charge pump clock */
 290:.\Generated_Source\PSoC5/ADC_DelSig_1.c ****     ADC_DelSig_1_PWRMGR_CHARGE_PUMP_CLK_REG |= ADC_DelSig_1_ACT_PWR_CHARGE_PUMP_CLK_EN;
 291:.\Generated_Source\PSoC5/ADC_DelSig_1.c ****     ADC_DelSig_1_STBY_PWRMGR_CHARGE_PUMP_CLK_REG |= ADC_DelSig_1_STBY_PWR_CHARGE_PUMP_CLK_EN;
 292:.\Generated_Source\PSoC5/ADC_DelSig_1.c **** 
 293:.\Generated_Source\PSoC5/ADC_DelSig_1.c ****     #if(ADC_DelSig_1_IRQ_REMOVE == 0u)
 294:.\Generated_Source\PSoC5/ADC_DelSig_1.c ****         /* Clear a pending interrupt */
 295:.\Generated_Source\PSoC5/ADC_DelSig_1.c ****         CyIntClearPending(ADC_DelSig_1_INTC_NUMBER);
 296:.\Generated_Source\PSoC5/ADC_DelSig_1.c ****         /* Enable interrupt */
 297:.\Generated_Source\PSoC5/ADC_DelSig_1.c ****         CyIntEnable(ADC_DelSig_1_INTC_NUMBER);
 298:.\Generated_Source\PSoC5/ADC_DelSig_1.c ****     #endif   /* End ADC_DelSig_1_IRQ_REMOVE */
 299:.\Generated_Source\PSoC5/ADC_DelSig_1.c **** 
 300:.\Generated_Source\PSoC5/ADC_DelSig_1.c ****     CyExitCriticalSection(enableInterrupts);
 301:.\Generated_Source\PSoC5/ADC_DelSig_1.c **** 
 302:.\Generated_Source\PSoC5/ADC_DelSig_1.c **** }
 303:.\Generated_Source\PSoC5/ADC_DelSig_1.c **** 
 304:.\Generated_Source\PSoC5/ADC_DelSig_1.c **** 
 305:.\Generated_Source\PSoC5/ADC_DelSig_1.c **** /*******************************************************************************
 306:.\Generated_Source\PSoC5/ADC_DelSig_1.c **** * Function Name: ADC_DelSig_1_Start
 307:.\Generated_Source\PSoC5/ADC_DelSig_1.c **** ********************************************************************************
 308:.\Generated_Source\PSoC5/ADC_DelSig_1.c **** *
 309:.\Generated_Source\PSoC5/ADC_DelSig_1.c **** * Summary:
 310:.\Generated_Source\PSoC5/ADC_DelSig_1.c **** *  Performs all required initialization for this component and enables
 311:.\Generated_Source\PSoC5/ADC_DelSig_1.c **** *  the power. It configure all the register the first time it is called.
 312:.\Generated_Source\PSoC5/ADC_DelSig_1.c **** *  Subsequent calls of the Start function only enable the ADC and turn
 313:.\Generated_Source\PSoC5/ADC_DelSig_1.c **** *  on the power. If multiple configurations are selected, it will
 314:.\Generated_Source\PSoC5/ADC_DelSig_1.c **** *  configure the ADC for configuration 1 by default, unless the
 315:.\Generated_Source\PSoC5/ADC_DelSig_1.c **** *  ADC_DelSig_1_SelectConfiguration( ) function has been called to change
 316:.\Generated_Source\PSoC5/ADC_DelSig_1.c **** *  the default setting.
 317:.\Generated_Source\PSoC5/ADC_DelSig_1.c **** *
ARM GAS  C:\Users\HANNAL~1\AppData\Local\Temp\ccGbhEeb.s 			page 7


 318:.\Generated_Source\PSoC5/ADC_DelSig_1.c **** * Parameters:
 319:.\Generated_Source\PSoC5/ADC_DelSig_1.c **** *  None
 320:.\Generated_Source\PSoC5/ADC_DelSig_1.c **** *
 321:.\Generated_Source\PSoC5/ADC_DelSig_1.c **** * Return:
 322:.\Generated_Source\PSoC5/ADC_DelSig_1.c **** *  None
 323:.\Generated_Source\PSoC5/ADC_DelSig_1.c **** *
 324:.\Generated_Source\PSoC5/ADC_DelSig_1.c **** * Global variables:
 325:.\Generated_Source\PSoC5/ADC_DelSig_1.c **** *  ADC_DelSig_1_initVar:  Used to check the initial configuration,
 326:.\Generated_Source\PSoC5/ADC_DelSig_1.c **** *  modified when this function is called for the first time.
 327:.\Generated_Source\PSoC5/ADC_DelSig_1.c **** *
 328:.\Generated_Source\PSoC5/ADC_DelSig_1.c **** *******************************************************************************/
 329:.\Generated_Source\PSoC5/ADC_DelSig_1.c **** void ADC_DelSig_1_Start(void) 
 330:.\Generated_Source\PSoC5/ADC_DelSig_1.c **** {
 331:.\Generated_Source\PSoC5/ADC_DelSig_1.c ****     if(ADC_DelSig_1_initVar == 0u)
 332:.\Generated_Source\PSoC5/ADC_DelSig_1.c ****     {
 333:.\Generated_Source\PSoC5/ADC_DelSig_1.c ****         if(ADC_DelSig_1_started == 0u)
 334:.\Generated_Source\PSoC5/ADC_DelSig_1.c ****         {
 335:.\Generated_Source\PSoC5/ADC_DelSig_1.c ****             ADC_DelSig_1_Init();
 336:.\Generated_Source\PSoC5/ADC_DelSig_1.c ****         }
 337:.\Generated_Source\PSoC5/ADC_DelSig_1.c ****         ADC_DelSig_1_initVar = 1u;
 338:.\Generated_Source\PSoC5/ADC_DelSig_1.c ****     }
 339:.\Generated_Source\PSoC5/ADC_DelSig_1.c **** 
 340:.\Generated_Source\PSoC5/ADC_DelSig_1.c ****     /* Enable the ADC */
 341:.\Generated_Source\PSoC5/ADC_DelSig_1.c ****     ADC_DelSig_1_Enable();
 342:.\Generated_Source\PSoC5/ADC_DelSig_1.c **** }
 343:.\Generated_Source\PSoC5/ADC_DelSig_1.c **** 
 344:.\Generated_Source\PSoC5/ADC_DelSig_1.c **** 
 345:.\Generated_Source\PSoC5/ADC_DelSig_1.c **** /*******************************************************************************
 346:.\Generated_Source\PSoC5/ADC_DelSig_1.c **** * Function Name: ADC_DelSig_1_Stop
 347:.\Generated_Source\PSoC5/ADC_DelSig_1.c **** ********************************************************************************
 348:.\Generated_Source\PSoC5/ADC_DelSig_1.c **** *
 349:.\Generated_Source\PSoC5/ADC_DelSig_1.c **** * Summary:
 350:.\Generated_Source\PSoC5/ADC_DelSig_1.c **** *  This function stops and powers down the ADC component and the internal
 351:.\Generated_Source\PSoC5/ADC_DelSig_1.c **** *  clock if the external clock is not selected. If an external clock is
 352:.\Generated_Source\PSoC5/ADC_DelSig_1.c **** *  used, it is up to the designer to power down the external clock it
 353:.\Generated_Source\PSoC5/ADC_DelSig_1.c **** *  required.
 354:.\Generated_Source\PSoC5/ADC_DelSig_1.c **** *
 355:.\Generated_Source\PSoC5/ADC_DelSig_1.c **** * Parameters:
 356:.\Generated_Source\PSoC5/ADC_DelSig_1.c **** *  None
 357:.\Generated_Source\PSoC5/ADC_DelSig_1.c **** *
 358:.\Generated_Source\PSoC5/ADC_DelSig_1.c **** * Return:
 359:.\Generated_Source\PSoC5/ADC_DelSig_1.c **** *  None
 360:.\Generated_Source\PSoC5/ADC_DelSig_1.c **** *
 361:.\Generated_Source\PSoC5/ADC_DelSig_1.c **** *******************************************************************************/
 362:.\Generated_Source\PSoC5/ADC_DelSig_1.c **** void ADC_DelSig_1_Stop(void) 
 363:.\Generated_Source\PSoC5/ADC_DelSig_1.c **** {
 364:.\Generated_Source\PSoC5/ADC_DelSig_1.c ****     uint8 enableInterrupts;
 365:.\Generated_Source\PSoC5/ADC_DelSig_1.c ****     enableInterrupts = CyEnterCriticalSection();
 366:.\Generated_Source\PSoC5/ADC_DelSig_1.c **** 
 367:.\Generated_Source\PSoC5/ADC_DelSig_1.c ****     /* Stop conversions */
 368:.\Generated_Source\PSoC5/ADC_DelSig_1.c ****     ADC_DelSig_1_DEC_CR_REG &= (uint8)~ADC_DelSig_1_DEC_START_CONV;
 369:.\Generated_Source\PSoC5/ADC_DelSig_1.c ****     ADC_DelSig_1_DEC_SR_REG |=  ADC_DelSig_1_DEC_INTR_CLEAR;
 370:.\Generated_Source\PSoC5/ADC_DelSig_1.c **** 
 371:.\Generated_Source\PSoC5/ADC_DelSig_1.c ****     /* Disable PRES, Disable power to VCMBUF0, REFBUF0 and REFBUF1,
 372:.\Generated_Source\PSoC5/ADC_DelSig_1.c ****        enable PRES */
 373:.\Generated_Source\PSoC5/ADC_DelSig_1.c ****     ADC_DelSig_1_RESET_CR4_REG |= ADC_DelSig_1_IGNORE_PRESA1;
 374:.\Generated_Source\PSoC5/ADC_DelSig_1.c ****     ADC_DelSig_1_RESET_CR5_REG |= ADC_DelSig_1_IGNORE_PRESA2;
ARM GAS  C:\Users\HANNAL~1\AppData\Local\Temp\ccGbhEeb.s 			page 8


 375:.\Generated_Source\PSoC5/ADC_DelSig_1.c **** 
 376:.\Generated_Source\PSoC5/ADC_DelSig_1.c ****     ADC_DelSig_1_DSM_CR17_REG &= (uint8)~(ADC_DelSig_1_DSM_EN_BUF_VREF | ADC_DelSig_1_DSM_EN_BUF_VC
 377:.\Generated_Source\PSoC5/ADC_DelSig_1.c ****     ADC_DelSig_1_DSM_REF0_REG &= (uint8)~ADC_DelSig_1_DSM_EN_BUF_VREF_INN;
 378:.\Generated_Source\PSoC5/ADC_DelSig_1.c **** 
 379:.\Generated_Source\PSoC5/ADC_DelSig_1.c ****     /* Wait for 3 microseconds. */
 380:.\Generated_Source\PSoC5/ADC_DelSig_1.c ****     CyDelayUs(ADC_DelSig_1_PRES_DELAY_TIME);
 381:.\Generated_Source\PSoC5/ADC_DelSig_1.c **** 
 382:.\Generated_Source\PSoC5/ADC_DelSig_1.c ****     /* Enable the press circuit */
 383:.\Generated_Source\PSoC5/ADC_DelSig_1.c ****     ADC_DelSig_1_RESET_CR4_REG &= (uint8)~ADC_DelSig_1_IGNORE_PRESA1;
 384:.\Generated_Source\PSoC5/ADC_DelSig_1.c ****     ADC_DelSig_1_RESET_CR5_REG &= (uint8)~ADC_DelSig_1_IGNORE_PRESA2;
 385:.\Generated_Source\PSoC5/ADC_DelSig_1.c **** 
 386:.\Generated_Source\PSoC5/ADC_DelSig_1.c ****     /* Disable power to the ADC */
 387:.\Generated_Source\PSoC5/ADC_DelSig_1.c ****     ADC_DelSig_1_PWRMGR_DSM_REG &= (uint8)~ADC_DelSig_1_ACT_PWR_DSM_EN;
 388:.\Generated_Source\PSoC5/ADC_DelSig_1.c **** 
 389:.\Generated_Source\PSoC5/ADC_DelSig_1.c ****     /* Disable power to Decimator block */
 390:.\Generated_Source\PSoC5/ADC_DelSig_1.c ****     ADC_DelSig_1_PWRMGR_DEC_REG &= (uint8)~ADC_DelSig_1_ACT_PWR_DEC_EN;
 391:.\Generated_Source\PSoC5/ADC_DelSig_1.c **** 
 392:.\Generated_Source\PSoC5/ADC_DelSig_1.c ****     /* Disable alternative active power to the ADC */
 393:.\Generated_Source\PSoC5/ADC_DelSig_1.c ****     ADC_DelSig_1_STBY_PWRMGR_DEC_REG &= (uint8)~ADC_DelSig_1_STBY_PWR_DEC_EN;
 394:.\Generated_Source\PSoC5/ADC_DelSig_1.c ****     ADC_DelSig_1_STBY_PWRMGR_DSM_REG &= (uint8)~ADC_DelSig_1_STBY_PWR_DSM_EN;
 395:.\Generated_Source\PSoC5/ADC_DelSig_1.c **** 
 396:.\Generated_Source\PSoC5/ADC_DelSig_1.c ****    /* Disable negative pumps for DSM  */
 397:.\Generated_Source\PSoC5/ADC_DelSig_1.c ****     ADC_DelSig_1_PUMP_CR1_REG &= (uint8)~(ADC_DelSig_1_PUMP_CR1_CLKSEL | ADC_DelSig_1_PUMP_CR1_FORC
 398:.\Generated_Source\PSoC5/ADC_DelSig_1.c **** 
 399:.\Generated_Source\PSoC5/ADC_DelSig_1.c ****     /* This is only valid if there is an internal clock */
 400:.\Generated_Source\PSoC5/ADC_DelSig_1.c ****     #if(ADC_DelSig_1_DEFAULT_INTERNAL_CLK)
 401:.\Generated_Source\PSoC5/ADC_DelSig_1.c ****         ADC_DelSig_1_PWRMGR_CLK_REG &= (uint8)~ADC_DelSig_1_ACT_PWR_CLK_EN;
 402:.\Generated_Source\PSoC5/ADC_DelSig_1.c ****         ADC_DelSig_1_STBY_PWRMGR_CLK_REG &= (uint8)~ADC_DelSig_1_STBY_PWR_CLK_EN;
 403:.\Generated_Source\PSoC5/ADC_DelSig_1.c ****     #endif /* ADC_DelSig_1_DEFAULT_INTERNAL_CLK */
 404:.\Generated_Source\PSoC5/ADC_DelSig_1.c **** 
 405:.\Generated_Source\PSoC5/ADC_DelSig_1.c ****     /* Disable Modulator Chopping */
 406:.\Generated_Source\PSoC5/ADC_DelSig_1.c ****     ADC_DelSig_1_DSM_CR2_REG &= (uint8)~ADC_DelSig_1_DSM_MOD_CHOP_EN;
 407:.\Generated_Source\PSoC5/ADC_DelSig_1.c ****     /* Disable power to charge pump clock */
 408:.\Generated_Source\PSoC5/ADC_DelSig_1.c ****     ADC_DelSig_1_PWRMGR_CHARGE_PUMP_CLK_REG &= (uint8)~ADC_DelSig_1_ACT_PWR_CHARGE_PUMP_CLK_EN;
 409:.\Generated_Source\PSoC5/ADC_DelSig_1.c ****     ADC_DelSig_1_STBY_PWRMGR_CHARGE_PUMP_CLK_REG &= (uint8)~ADC_DelSig_1_STBY_PWR_CHARGE_PUMP_CLK_E
 410:.\Generated_Source\PSoC5/ADC_DelSig_1.c ****     
 411:.\Generated_Source\PSoC5/ADC_DelSig_1.c ****     CyExitCriticalSection(enableInterrupts);
 412:.\Generated_Source\PSoC5/ADC_DelSig_1.c **** }
 413:.\Generated_Source\PSoC5/ADC_DelSig_1.c **** 
 414:.\Generated_Source\PSoC5/ADC_DelSig_1.c **** 
 415:.\Generated_Source\PSoC5/ADC_DelSig_1.c **** /*******************************************************************************
 416:.\Generated_Source\PSoC5/ADC_DelSig_1.c **** * Function Name: ADC_DelSig_1_SetBufferGain
 417:.\Generated_Source\PSoC5/ADC_DelSig_1.c **** ********************************************************************************
 418:.\Generated_Source\PSoC5/ADC_DelSig_1.c **** *
 419:.\Generated_Source\PSoC5/ADC_DelSig_1.c **** * Summary:
 420:.\Generated_Source\PSoC5/ADC_DelSig_1.c **** *  Sets input buffer gain.
 421:.\Generated_Source\PSoC5/ADC_DelSig_1.c **** *
 422:.\Generated_Source\PSoC5/ADC_DelSig_1.c **** * Parameters:
 423:.\Generated_Source\PSoC5/ADC_DelSig_1.c **** *  gain:  Two bit value to select a gain of 1, 2, 4, or 8.
 424:.\Generated_Source\PSoC5/ADC_DelSig_1.c **** *
 425:.\Generated_Source\PSoC5/ADC_DelSig_1.c **** * Return:
 426:.\Generated_Source\PSoC5/ADC_DelSig_1.c **** *  None
 427:.\Generated_Source\PSoC5/ADC_DelSig_1.c **** *
 428:.\Generated_Source\PSoC5/ADC_DelSig_1.c **** *******************************************************************************/
 429:.\Generated_Source\PSoC5/ADC_DelSig_1.c **** void ADC_DelSig_1_SetBufferGain(uint8 gain) 
 430:.\Generated_Source\PSoC5/ADC_DelSig_1.c **** {
 431:.\Generated_Source\PSoC5/ADC_DelSig_1.c ****     uint8 tmpReg;
ARM GAS  C:\Users\HANNAL~1\AppData\Local\Temp\ccGbhEeb.s 			page 9


 432:.\Generated_Source\PSoC5/ADC_DelSig_1.c ****     tmpReg = ADC_DelSig_1_DSM_BUF1_REG & (uint8)~ADC_DelSig_1_DSM_GAIN_MASK;
 433:.\Generated_Source\PSoC5/ADC_DelSig_1.c ****     tmpReg |= (uint8)(gain << ADC_DelSig_1_DSM_GAIN_SHIFT) & ADC_DelSig_1_DSM_GAIN_MASK;
 434:.\Generated_Source\PSoC5/ADC_DelSig_1.c ****     ADC_DelSig_1_DSM_BUF1_REG = tmpReg;
 435:.\Generated_Source\PSoC5/ADC_DelSig_1.c **** }
 436:.\Generated_Source\PSoC5/ADC_DelSig_1.c **** 
 437:.\Generated_Source\PSoC5/ADC_DelSig_1.c **** 
 438:.\Generated_Source\PSoC5/ADC_DelSig_1.c **** /*******************************************************************************
 439:.\Generated_Source\PSoC5/ADC_DelSig_1.c **** * Function Name: ADC_DelSig_1_SetCoherency
 440:.\Generated_Source\PSoC5/ADC_DelSig_1.c **** ********************************************************************************
 441:.\Generated_Source\PSoC5/ADC_DelSig_1.c **** *
 442:.\Generated_Source\PSoC5/ADC_DelSig_1.c **** * Summary:
 443:.\Generated_Source\PSoC5/ADC_DelSig_1.c **** *  This function allows the user to change which of the ADC's 3 word
 444:.\Generated_Source\PSoC5/ADC_DelSig_1.c **** *  result will trigger a coherency unlock. The ADC's result will not be
 445:.\Generated_Source\PSoC5/ADC_DelSig_1.c **** *  updated until the set byte is read either by the ADC or DMA. 
 446:.\Generated_Source\PSoC5/ADC_DelSig_1.c **** *  By default the LSB is the coherency byte for right alignment data format. 
 447:.\Generated_Source\PSoC5/ADC_DelSig_1.c **** *  The middle or high byte is set automatically depend on left alignment 
 448:.\Generated_Source\PSoC5/ADC_DelSig_1.c **** *  configuration for DMA data transfer.
 449:.\Generated_Source\PSoC5/ADC_DelSig_1.c **** *  If DMA or if a custom API requires different byte to be read the last,
 450:.\Generated_Source\PSoC5/ADC_DelSig_1.c **** *  this API should be used to set the last byte of the ADC result that is read. 
 451:.\Generated_Source\PSoC5/ADC_DelSig_1.c **** *  If a multibyte read is performed either by DMA or the ARM processor, the
 452:.\Generated_Source\PSoC5/ADC_DelSig_1.c **** *  coherency can be set to any byte in the last word read.
 453:.\Generated_Source\PSoC5/ADC_DelSig_1.c **** *
 454:.\Generated_Source\PSoC5/ADC_DelSig_1.c **** * Parameters:
 455:.\Generated_Source\PSoC5/ADC_DelSig_1.c **** *  coherency:  Two bit value to set the coherency bit.
 456:.\Generated_Source\PSoC5/ADC_DelSig_1.c **** *           00-Coherency checking off
 457:.\Generated_Source\PSoC5/ADC_DelSig_1.c **** *           01-low byte is key byte
 458:.\Generated_Source\PSoC5/ADC_DelSig_1.c **** *           02-middle byte is the key byte
 459:.\Generated_Source\PSoC5/ADC_DelSig_1.c **** *           03-high byte is the key byte
 460:.\Generated_Source\PSoC5/ADC_DelSig_1.c **** *
 461:.\Generated_Source\PSoC5/ADC_DelSig_1.c **** * Return:
 462:.\Generated_Source\PSoC5/ADC_DelSig_1.c **** *  None
 463:.\Generated_Source\PSoC5/ADC_DelSig_1.c **** *
 464:.\Generated_Source\PSoC5/ADC_DelSig_1.c **** *******************************************************************************/
 465:.\Generated_Source\PSoC5/ADC_DelSig_1.c **** void ADC_DelSig_1_SetCoherency(uint8 coherency) 
 466:.\Generated_Source\PSoC5/ADC_DelSig_1.c **** {
 467:.\Generated_Source\PSoC5/ADC_DelSig_1.c ****     uint8 tmpReg;
 468:.\Generated_Source\PSoC5/ADC_DelSig_1.c **** 
 469:.\Generated_Source\PSoC5/ADC_DelSig_1.c ****     tmpReg = ADC_DelSig_1_DEC_COHER_REG & (uint8)~ADC_DelSig_1_DEC_SAMP_KEY_MASK;
 470:.\Generated_Source\PSoC5/ADC_DelSig_1.c ****     tmpReg |= coherency & ADC_DelSig_1_DEC_SAMP_KEY_MASK;
 471:.\Generated_Source\PSoC5/ADC_DelSig_1.c ****     ADC_DelSig_1_DEC_COHER_REG = tmpReg;
 472:.\Generated_Source\PSoC5/ADC_DelSig_1.c **** }
 473:.\Generated_Source\PSoC5/ADC_DelSig_1.c **** 
 474:.\Generated_Source\PSoC5/ADC_DelSig_1.c **** 
 475:.\Generated_Source\PSoC5/ADC_DelSig_1.c **** /*******************************************************************************
 476:.\Generated_Source\PSoC5/ADC_DelSig_1.c **** * Function Name: ADC_DelSig_1_SetGCOR
 477:.\Generated_Source\PSoC5/ADC_DelSig_1.c **** ********************************************************************************
 478:.\Generated_Source\PSoC5/ADC_DelSig_1.c **** *
 479:.\Generated_Source\PSoC5/ADC_DelSig_1.c **** * Summary:
 480:.\Generated_Source\PSoC5/ADC_DelSig_1.c **** *  Calculates a new GCOR value and writes it into the GCOR register. 
 481:.\Generated_Source\PSoC5/ADC_DelSig_1.c **** *  The GCOR value is a 16-bit value that represents a gain of 0 to 2. 
 482:.\Generated_Source\PSoC5/ADC_DelSig_1.c **** *  The ADC result is multiplied by this value before it is placed in the ADC 
 483:.\Generated_Source\PSoC5/ADC_DelSig_1.c **** *  output registers. The numerical format for the GCOR value is:
 484:.\Generated_Source\PSoC5/ADC_DelSig_1.c **** *  0x0000 -> 0.000
 485:.\Generated_Source\PSoC5/ADC_DelSig_1.c **** *  0x8000 -> 1.000
 486:.\Generated_Source\PSoC5/ADC_DelSig_1.c **** *  0xFFFF -> 1.99997
 487:.\Generated_Source\PSoC5/ADC_DelSig_1.c **** *  When executing the function, the old GCOR value is multiplied by
 488:.\Generated_Source\PSoC5/ADC_DelSig_1.c **** *  gainAdjust and reloaded into the GCOR register.
ARM GAS  C:\Users\HANNAL~1\AppData\Local\Temp\ccGbhEeb.s 			page 10


 489:.\Generated_Source\PSoC5/ADC_DelSig_1.c **** *
 490:.\Generated_Source\PSoC5/ADC_DelSig_1.c **** * Parameters:
 491:.\Generated_Source\PSoC5/ADC_DelSig_1.c **** *  gainAdjust:  floating point value to set GCOR registers.
 492:.\Generated_Source\PSoC5/ADC_DelSig_1.c **** *
 493:.\Generated_Source\PSoC5/ADC_DelSig_1.c **** * Return:
 494:.\Generated_Source\PSoC5/ADC_DelSig_1.c **** *  uint8: 0 - if GCOR value is within the expected range.
 495:.\Generated_Source\PSoC5/ADC_DelSig_1.c **** *         1 - the correction value is outside GCOR value range of
 496:.\Generated_Source\PSoC5/ADC_DelSig_1.c **** *             0.00 to 1.9999.
 497:.\Generated_Source\PSoC5/ADC_DelSig_1.c **** *
 498:.\Generated_Source\PSoC5/ADC_DelSig_1.c **** * Side Effects:  The GVAL register is set to the amount of valid bits in the
 499:.\Generated_Source\PSoC5/ADC_DelSig_1.c **** *                GCOR  register minus one. If GVAL is 15 (0x0F), all 16 bits
 500:.\Generated_Source\PSoC5/ADC_DelSig_1.c **** *                of the GCOR registers will be valid. If for example GVAL is
 501:.\Generated_Source\PSoC5/ADC_DelSig_1.c **** *                11 (0x0B) only 12 bits will be valid. The least 4 bits will
 502:.\Generated_Source\PSoC5/ADC_DelSig_1.c **** *                be lost when the GCOR value is shifted 4 places to the right.
 503:.\Generated_Source\PSoC5/ADC_DelSig_1.c **** *
 504:.\Generated_Source\PSoC5/ADC_DelSig_1.c **** ******************************************************************************/
 505:.\Generated_Source\PSoC5/ADC_DelSig_1.c **** uint8 ADC_DelSig_1_SetGCOR(float32 gainAdjust) 
 506:.\Generated_Source\PSoC5/ADC_DelSig_1.c **** {
 507:.\Generated_Source\PSoC5/ADC_DelSig_1.c ****     uint16 tmpReg;
 508:.\Generated_Source\PSoC5/ADC_DelSig_1.c ****     uint8 status;
 509:.\Generated_Source\PSoC5/ADC_DelSig_1.c ****     float32 tmpValue;
 510:.\Generated_Source\PSoC5/ADC_DelSig_1.c **** 
 511:.\Generated_Source\PSoC5/ADC_DelSig_1.c ****     tmpReg = ADC_DelSig_1_gcor[ADC_DelSig_1_Config - 1u].gcor;
 512:.\Generated_Source\PSoC5/ADC_DelSig_1.c ****     tmpValue = ((float32)tmpReg / (float32)ADC_DelSig_1_IDEAL_GAIN_CONST);
 513:.\Generated_Source\PSoC5/ADC_DelSig_1.c ****     tmpValue = tmpValue * gainAdjust;
 514:.\Generated_Source\PSoC5/ADC_DelSig_1.c **** 
 515:.\Generated_Source\PSoC5/ADC_DelSig_1.c ****     if (tmpValue > 1.9999)
 516:.\Generated_Source\PSoC5/ADC_DelSig_1.c ****     {
 517:.\Generated_Source\PSoC5/ADC_DelSig_1.c ****         status = 1u;
 518:.\Generated_Source\PSoC5/ADC_DelSig_1.c ****     }
 519:.\Generated_Source\PSoC5/ADC_DelSig_1.c ****     else
 520:.\Generated_Source\PSoC5/ADC_DelSig_1.c ****     {
 521:.\Generated_Source\PSoC5/ADC_DelSig_1.c ****         tmpValue *= (float32)ADC_DelSig_1_IDEAL_GAIN_CONST;
 522:.\Generated_Source\PSoC5/ADC_DelSig_1.c **** 		tmpReg = (uint16)tmpValue;
 523:.\Generated_Source\PSoC5/ADC_DelSig_1.c ****         CY_SET_REG16(ADC_DelSig_1_DEC_GCOR_16B_PTR, tmpReg);
 524:.\Generated_Source\PSoC5/ADC_DelSig_1.c ****         /* Update gain array to be used by SelectConfiguration() API */
 525:.\Generated_Source\PSoC5/ADC_DelSig_1.c ****        ADC_DelSig_1_gcor[ADC_DelSig_1_Config - 1u].gcor = tmpReg;
 526:.\Generated_Source\PSoC5/ADC_DelSig_1.c **** 
 527:.\Generated_Source\PSoC5/ADC_DelSig_1.c ****         status = 0u;
 528:.\Generated_Source\PSoC5/ADC_DelSig_1.c **** 
 529:.\Generated_Source\PSoC5/ADC_DelSig_1.c ****     }
 530:.\Generated_Source\PSoC5/ADC_DelSig_1.c ****     return(status);
 531:.\Generated_Source\PSoC5/ADC_DelSig_1.c **** }
 532:.\Generated_Source\PSoC5/ADC_DelSig_1.c **** 
 533:.\Generated_Source\PSoC5/ADC_DelSig_1.c **** 
 534:.\Generated_Source\PSoC5/ADC_DelSig_1.c **** /******************************************************************************
 535:.\Generated_Source\PSoC5/ADC_DelSig_1.c **** * Function Name: ADC_DelSig_1_ReadGCOR
 536:.\Generated_Source\PSoC5/ADC_DelSig_1.c **** *******************************************************************************
 537:.\Generated_Source\PSoC5/ADC_DelSig_1.c **** *
 538:.\Generated_Source\PSoC5/ADC_DelSig_1.c **** * Summary:
 539:.\Generated_Source\PSoC5/ADC_DelSig_1.c **** *  This API returns the current GCOR register value, normalized based on the
 540:.\Generated_Source\PSoC5/ADC_DelSig_1.c **** *  GVAL register settings.
 541:.\Generated_Source\PSoC5/ADC_DelSig_1.c **** *  For example, if the GCOR value is 0x0812 and the GVAL register is set to 
 542:.\Generated_Source\PSoC5/ADC_DelSig_1.c **** *  11 (0x0B) then the returned value will be shifted by for bits to the left.
 543:.\Generated_Source\PSoC5/ADC_DelSig_1.c **** *  (Actual GCOR value = 0x0812, returned value = 0x8120)
 544:.\Generated_Source\PSoC5/ADC_DelSig_1.c **** *
 545:.\Generated_Source\PSoC5/ADC_DelSig_1.c **** * Parameters:
ARM GAS  C:\Users\HANNAL~1\AppData\Local\Temp\ccGbhEeb.s 			page 11


 546:.\Generated_Source\PSoC5/ADC_DelSig_1.c **** *  None
 547:.\Generated_Source\PSoC5/ADC_DelSig_1.c **** *
 548:.\Generated_Source\PSoC5/ADC_DelSig_1.c **** * Return:
 549:.\Generated_Source\PSoC5/ADC_DelSig_1.c **** *  uint16:  Normalized GCOR value.
 550:.\Generated_Source\PSoC5/ADC_DelSig_1.c **** *
 551:.\Generated_Source\PSoC5/ADC_DelSig_1.c **** *******************************************************************************/
 552:.\Generated_Source\PSoC5/ADC_DelSig_1.c **** uint16 ADC_DelSig_1_ReadGCOR(void) 
 553:.\Generated_Source\PSoC5/ADC_DelSig_1.c **** {
 554:.\Generated_Source\PSoC5/ADC_DelSig_1.c ****     uint8 gValue;
 555:.\Generated_Source\PSoC5/ADC_DelSig_1.c ****     uint16 gcorValue;
 556:.\Generated_Source\PSoC5/ADC_DelSig_1.c **** 
 557:.\Generated_Source\PSoC5/ADC_DelSig_1.c ****     gValue = ADC_DelSig_1_DEC_GVAL_REG;
 558:.\Generated_Source\PSoC5/ADC_DelSig_1.c ****     gcorValue = CY_GET_REG16(ADC_DelSig_1_DEC_GCOR_16B_PTR);
 559:.\Generated_Source\PSoC5/ADC_DelSig_1.c **** 
 560:.\Generated_Source\PSoC5/ADC_DelSig_1.c ****     if (gValue < ADC_DelSig_1_MAX_GVAL)
 561:.\Generated_Source\PSoC5/ADC_DelSig_1.c ****     {
 562:.\Generated_Source\PSoC5/ADC_DelSig_1.c ****         gcorValue <<= ADC_DelSig_1_MAX_GVAL - gValue;
 563:.\Generated_Source\PSoC5/ADC_DelSig_1.c ****     }
 564:.\Generated_Source\PSoC5/ADC_DelSig_1.c **** 
 565:.\Generated_Source\PSoC5/ADC_DelSig_1.c ****     return gcorValue;
 566:.\Generated_Source\PSoC5/ADC_DelSig_1.c **** }
 567:.\Generated_Source\PSoC5/ADC_DelSig_1.c **** 
 568:.\Generated_Source\PSoC5/ADC_DelSig_1.c **** 
 569:.\Generated_Source\PSoC5/ADC_DelSig_1.c **** /*******************************************************************************
 570:.\Generated_Source\PSoC5/ADC_DelSig_1.c **** * Function Name: ADC_DelSig_1_StartConvert
 571:.\Generated_Source\PSoC5/ADC_DelSig_1.c **** ********************************************************************************
 572:.\Generated_Source\PSoC5/ADC_DelSig_1.c **** *
 573:.\Generated_Source\PSoC5/ADC_DelSig_1.c **** * Summary:
 574:.\Generated_Source\PSoC5/ADC_DelSig_1.c **** *  Forces the ADC to initiate a conversion. If in the "Single Sample"
 575:.\Generated_Source\PSoC5/ADC_DelSig_1.c **** *  mode, one conversion will be performed then the ADC will halt. If in
 576:.\Generated_Source\PSoC5/ADC_DelSig_1.c **** *  one of the other three conversion modes, the ADC will run
 577:.\Generated_Source\PSoC5/ADC_DelSig_1.c **** *  continuously until the ADC_Stop() or ADC_StopConvert() is called.
 578:.\Generated_Source\PSoC5/ADC_DelSig_1.c **** *
 579:.\Generated_Source\PSoC5/ADC_DelSig_1.c **** * Parameters:
 580:.\Generated_Source\PSoC5/ADC_DelSig_1.c **** *  None
 581:.\Generated_Source\PSoC5/ADC_DelSig_1.c **** *
 582:.\Generated_Source\PSoC5/ADC_DelSig_1.c **** * Return:
 583:.\Generated_Source\PSoC5/ADC_DelSig_1.c **** *  None
 584:.\Generated_Source\PSoC5/ADC_DelSig_1.c **** *
 585:.\Generated_Source\PSoC5/ADC_DelSig_1.c **** *******************************************************************************/
 586:.\Generated_Source\PSoC5/ADC_DelSig_1.c **** void ADC_DelSig_1_StartConvert(void) 
 587:.\Generated_Source\PSoC5/ADC_DelSig_1.c **** {
 588:.\Generated_Source\PSoC5/ADC_DelSig_1.c ****     /* Start the conversion */
 589:.\Generated_Source\PSoC5/ADC_DelSig_1.c ****     ADC_DelSig_1_DEC_CR_REG |= ADC_DelSig_1_DEC_START_CONV;
 590:.\Generated_Source\PSoC5/ADC_DelSig_1.c **** }
 591:.\Generated_Source\PSoC5/ADC_DelSig_1.c **** 
 592:.\Generated_Source\PSoC5/ADC_DelSig_1.c **** 
 593:.\Generated_Source\PSoC5/ADC_DelSig_1.c **** /*******************************************************************************
 594:.\Generated_Source\PSoC5/ADC_DelSig_1.c **** * Function Name: ADC_DelSig_1_StopConvert
 595:.\Generated_Source\PSoC5/ADC_DelSig_1.c **** ********************************************************************************
 596:.\Generated_Source\PSoC5/ADC_DelSig_1.c **** *
 597:.\Generated_Source\PSoC5/ADC_DelSig_1.c **** * Summary:
 598:.\Generated_Source\PSoC5/ADC_DelSig_1.c **** *  Forces the ADC to stop all conversions. If the ADC is in the middle of a
 599:.\Generated_Source\PSoC5/ADC_DelSig_1.c **** *  conversion, the ADC will be reset and not provide a result for that partial
 600:.\Generated_Source\PSoC5/ADC_DelSig_1.c **** *  conversion.
 601:.\Generated_Source\PSoC5/ADC_DelSig_1.c **** *
 602:.\Generated_Source\PSoC5/ADC_DelSig_1.c **** * Parameters:
ARM GAS  C:\Users\HANNAL~1\AppData\Local\Temp\ccGbhEeb.s 			page 12


 603:.\Generated_Source\PSoC5/ADC_DelSig_1.c **** *  None
 604:.\Generated_Source\PSoC5/ADC_DelSig_1.c **** *
 605:.\Generated_Source\PSoC5/ADC_DelSig_1.c **** * Return:
 606:.\Generated_Source\PSoC5/ADC_DelSig_1.c **** *  None
 607:.\Generated_Source\PSoC5/ADC_DelSig_1.c **** *
 608:.\Generated_Source\PSoC5/ADC_DelSig_1.c **** *******************************************************************************/
 609:.\Generated_Source\PSoC5/ADC_DelSig_1.c **** void ADC_DelSig_1_StopConvert(void) 
 610:.\Generated_Source\PSoC5/ADC_DelSig_1.c **** {
 611:.\Generated_Source\PSoC5/ADC_DelSig_1.c ****     /* Stop all conversions */
 612:.\Generated_Source\PSoC5/ADC_DelSig_1.c ****     ADC_DelSig_1_DEC_CR_REG &= (uint8)~ADC_DelSig_1_DEC_START_CONV;
 613:.\Generated_Source\PSoC5/ADC_DelSig_1.c **** }
 614:.\Generated_Source\PSoC5/ADC_DelSig_1.c **** 
 615:.\Generated_Source\PSoC5/ADC_DelSig_1.c **** 
 616:.\Generated_Source\PSoC5/ADC_DelSig_1.c **** /*******************************************************************************
 617:.\Generated_Source\PSoC5/ADC_DelSig_1.c **** * Function Name: ADC_DelSig_1_IsEndConversion
 618:.\Generated_Source\PSoC5/ADC_DelSig_1.c **** ********************************************************************************
 619:.\Generated_Source\PSoC5/ADC_DelSig_1.c **** *
 620:.\Generated_Source\PSoC5/ADC_DelSig_1.c **** * Summary:
 621:.\Generated_Source\PSoC5/ADC_DelSig_1.c **** *  Checks the status that the most recently started conversion has completed.
 622:.\Generated_Source\PSoC5/ADC_DelSig_1.c **** *  The status is cleared by any of ADC_GetResult8(), ADC_GetResult16() or 
 623:.\Generated_Source\PSoC5/ADC_DelSig_1.c **** *  ADC_GetResult32() API.
 624:.\Generated_Source\PSoC5/ADC_DelSig_1.c **** *  This function provides the programmer with two options. In one mode this 
 625:.\Generated_Source\PSoC5/ADC_DelSig_1.c **** *  function immediately returns with the conversion status. In the other mode,
 626:.\Generated_Source\PSoC5/ADC_DelSig_1.c **** *  the function does not return (blocking) until the conversion has completed.
 627:.\Generated_Source\PSoC5/ADC_DelSig_1.c **** *
 628:.\Generated_Source\PSoC5/ADC_DelSig_1.c **** * Parameters:
 629:.\Generated_Source\PSoC5/ADC_DelSig_1.c **** *  retMode: Check conversion return mode. See the following table for options.
 630:.\Generated_Source\PSoC5/ADC_DelSig_1.c **** *   ADC_DelSig_1_RETURN_STATUS -   Immediately returns conversion result
 631:.\Generated_Source\PSoC5/ADC_DelSig_1.c **** *                                      status.
 632:.\Generated_Source\PSoC5/ADC_DelSig_1.c **** *   ADC_DelSig_1_WAIT_FOR_RESULT - Does not return until ADC conversion
 633:.\Generated_Source\PSoC5/ADC_DelSig_1.c **** *                                      is complete.
 634:.\Generated_Source\PSoC5/ADC_DelSig_1.c **** *
 635:.\Generated_Source\PSoC5/ADC_DelSig_1.c **** * Return:
 636:.\Generated_Source\PSoC5/ADC_DelSig_1.c **** *  If a nonzero value is returned, the last conversion has completed.
 637:.\Generated_Source\PSoC5/ADC_DelSig_1.c **** *  If the returned value is zero, the ADC is still calculating the last result.
 638:.\Generated_Source\PSoC5/ADC_DelSig_1.c **** *
 639:.\Generated_Source\PSoC5/ADC_DelSig_1.c **** * Global variables:
 640:.\Generated_Source\PSoC5/ADC_DelSig_1.c **** *  ADC_DelSig_1_convDone:  Used to check whether conversion is complete
 641:.\Generated_Source\PSoC5/ADC_DelSig_1.c **** *  or not for single sample mode with resolution is above 16
 642:.\Generated_Source\PSoC5/ADC_DelSig_1.c **** *
 643:.\Generated_Source\PSoC5/ADC_DelSig_1.c **** *******************************************************************************/
 644:.\Generated_Source\PSoC5/ADC_DelSig_1.c **** uint8 ADC_DelSig_1_IsEndConversion(uint8 retMode) 
 645:.\Generated_Source\PSoC5/ADC_DelSig_1.c **** {
 646:.\Generated_Source\PSoC5/ADC_DelSig_1.c ****     uint8 status;
 647:.\Generated_Source\PSoC5/ADC_DelSig_1.c **** 
 648:.\Generated_Source\PSoC5/ADC_DelSig_1.c ****     do
 649:.\Generated_Source\PSoC5/ADC_DelSig_1.c ****     {
 650:.\Generated_Source\PSoC5/ADC_DelSig_1.c ****         /* Check for stop convert if conversion mode is Single Sample with
 651:.\Generated_Source\PSoC5/ADC_DelSig_1.c ****         *   resolution above 16 bit
 652:.\Generated_Source\PSoC5/ADC_DelSig_1.c ****         */
 653:.\Generated_Source\PSoC5/ADC_DelSig_1.c ****         if(ADC_DelSig_1_stopConversion != 0u)
 654:.\Generated_Source\PSoC5/ADC_DelSig_1.c ****         {
 655:.\Generated_Source\PSoC5/ADC_DelSig_1.c ****             status = ADC_DelSig_1_convDone;
 656:.\Generated_Source\PSoC5/ADC_DelSig_1.c ****         }
 657:.\Generated_Source\PSoC5/ADC_DelSig_1.c ****         else
 658:.\Generated_Source\PSoC5/ADC_DelSig_1.c ****         {
 659:.\Generated_Source\PSoC5/ADC_DelSig_1.c ****             status = ADC_DelSig_1_DEC_SR_REG & ADC_DelSig_1_DEC_CONV_DONE;
ARM GAS  C:\Users\HANNAL~1\AppData\Local\Temp\ccGbhEeb.s 			page 13


 660:.\Generated_Source\PSoC5/ADC_DelSig_1.c ****         }
 661:.\Generated_Source\PSoC5/ADC_DelSig_1.c ****     }while((status != ADC_DelSig_1_DEC_CONV_DONE) && (retMode == ADC_DelSig_1_WAIT_FOR_RESULT));
 662:.\Generated_Source\PSoC5/ADC_DelSig_1.c **** 
 663:.\Generated_Source\PSoC5/ADC_DelSig_1.c ****     return(status);
 664:.\Generated_Source\PSoC5/ADC_DelSig_1.c **** }
 665:.\Generated_Source\PSoC5/ADC_DelSig_1.c **** 
 666:.\Generated_Source\PSoC5/ADC_DelSig_1.c **** 
 667:.\Generated_Source\PSoC5/ADC_DelSig_1.c **** /*******************************************************************************
 668:.\Generated_Source\PSoC5/ADC_DelSig_1.c **** * Function Name: ADC_DelSig_1_GetResult8
 669:.\Generated_Source\PSoC5/ADC_DelSig_1.c **** ********************************************************************************
 670:.\Generated_Source\PSoC5/ADC_DelSig_1.c **** *
 671:.\Generated_Source\PSoC5/ADC_DelSig_1.c **** * Summary:
 672:.\Generated_Source\PSoC5/ADC_DelSig_1.c **** *  This function returns the result of an 8-bit conversion. If the
 673:.\Generated_Source\PSoC5/ADC_DelSig_1.c **** *  resolution is set greater than 8-bits, the LSB of the result will be
 674:.\Generated_Source\PSoC5/ADC_DelSig_1.c **** *  returned. When the ADC is configured for 8-bit single ended mode,
 675:.\Generated_Source\PSoC5/ADC_DelSig_1.c **** *  the ADC_GetResult16() function should be used instead. This
 676:.\Generated_Source\PSoC5/ADC_DelSig_1.c **** *  function returns only signed 8-bit values. The maximum positive
 677:.\Generated_Source\PSoC5/ADC_DelSig_1.c **** *  signed 8-bit value is 127, but in singled ended 8-bit mode, the
 678:.\Generated_Source\PSoC5/ADC_DelSig_1.c **** *  maximum positive value is 255.
 679:.\Generated_Source\PSoC5/ADC_DelSig_1.c **** *
 680:.\Generated_Source\PSoC5/ADC_DelSig_1.c **** * Parameters:
 681:.\Generated_Source\PSoC5/ADC_DelSig_1.c **** *  None
 682:.\Generated_Source\PSoC5/ADC_DelSig_1.c **** *
 683:.\Generated_Source\PSoC5/ADC_DelSig_1.c **** * Return:
 684:.\Generated_Source\PSoC5/ADC_DelSig_1.c **** *  int8: The LSB of the last ADC conversion.
 685:.\Generated_Source\PSoC5/ADC_DelSig_1.c **** *
 686:.\Generated_Source\PSoC5/ADC_DelSig_1.c **** * Global variables:
 687:.\Generated_Source\PSoC5/ADC_DelSig_1.c **** *  ADC_DelSig_1_convDone:  Cleared in single sample mode with resolution
 688:.\Generated_Source\PSoC5/ADC_DelSig_1.c **** *                              above 16 bits
 689:.\Generated_Source\PSoC5/ADC_DelSig_1.c **** *
 690:.\Generated_Source\PSoC5/ADC_DelSig_1.c **** *******************************************************************************/
 691:.\Generated_Source\PSoC5/ADC_DelSig_1.c **** int8 ADC_DelSig_1_GetResult8( void ) 
 692:.\Generated_Source\PSoC5/ADC_DelSig_1.c **** {
 693:.\Generated_Source\PSoC5/ADC_DelSig_1.c ****     int8 result;
 694:.\Generated_Source\PSoC5/ADC_DelSig_1.c ****     uint8 coherency;
 695:.\Generated_Source\PSoC5/ADC_DelSig_1.c **** 
 696:.\Generated_Source\PSoC5/ADC_DelSig_1.c ****     /* Read active coherency configuration */
 697:.\Generated_Source\PSoC5/ADC_DelSig_1.c ****     coherency = ADC_DelSig_1_DEC_COHER_REG & ADC_DelSig_1_DEC_SAMP_KEY_MASK;
 698:.\Generated_Source\PSoC5/ADC_DelSig_1.c **** 
 699:.\Generated_Source\PSoC5/ADC_DelSig_1.c ****     result = (int8)ADC_DelSig_1_DEC_SAMP_REG;
 700:.\Generated_Source\PSoC5/ADC_DelSig_1.c **** 
 701:.\Generated_Source\PSoC5/ADC_DelSig_1.c ****     if(coherency == ADC_DelSig_1_DEC_SAMP_KEY_MID)
 702:.\Generated_Source\PSoC5/ADC_DelSig_1.c ****     {   /* Dummy read of the middle byte to unlock the coherency */
 703:.\Generated_Source\PSoC5/ADC_DelSig_1.c ****         (void)ADC_DelSig_1_DEC_SAMPM_REG;
 704:.\Generated_Source\PSoC5/ADC_DelSig_1.c ****     }
 705:.\Generated_Source\PSoC5/ADC_DelSig_1.c ****     else  if(coherency == ADC_DelSig_1_DEC_SAMP_KEY_HIGH)
 706:.\Generated_Source\PSoC5/ADC_DelSig_1.c ****     {   /* Dummy read of the MSB byte to unlock the coherency */
 707:.\Generated_Source\PSoC5/ADC_DelSig_1.c ****         (void)ADC_DelSig_1_DEC_SAMPH_REG;
 708:.\Generated_Source\PSoC5/ADC_DelSig_1.c ****     }
 709:.\Generated_Source\PSoC5/ADC_DelSig_1.c ****     else /*No action required for other coherency */
 710:.\Generated_Source\PSoC5/ADC_DelSig_1.c ****     {
 711:.\Generated_Source\PSoC5/ADC_DelSig_1.c ****     }
 712:.\Generated_Source\PSoC5/ADC_DelSig_1.c ****     /* Clear conversion complete status in Single Sample mode with resolution above 16 bit */
 713:.\Generated_Source\PSoC5/ADC_DelSig_1.c ****     if(ADC_DelSig_1_stopConversion != 0u)
 714:.\Generated_Source\PSoC5/ADC_DelSig_1.c ****     {
 715:.\Generated_Source\PSoC5/ADC_DelSig_1.c ****         ADC_DelSig_1_convDone = 0u;
 716:.\Generated_Source\PSoC5/ADC_DelSig_1.c ****     }
ARM GAS  C:\Users\HANNAL~1\AppData\Local\Temp\ccGbhEeb.s 			page 14


 717:.\Generated_Source\PSoC5/ADC_DelSig_1.c ****     return (result);
 718:.\Generated_Source\PSoC5/ADC_DelSig_1.c **** }
 719:.\Generated_Source\PSoC5/ADC_DelSig_1.c **** 
 720:.\Generated_Source\PSoC5/ADC_DelSig_1.c **** 
 721:.\Generated_Source\PSoC5/ADC_DelSig_1.c **** /*******************************************************************************
 722:.\Generated_Source\PSoC5/ADC_DelSig_1.c **** * Function Name: ADC_DelSig_1_GetResult16
 723:.\Generated_Source\PSoC5/ADC_DelSig_1.c **** ********************************************************************************
 724:.\Generated_Source\PSoC5/ADC_DelSig_1.c **** *
 725:.\Generated_Source\PSoC5/ADC_DelSig_1.c **** * Summary:
 726:.\Generated_Source\PSoC5/ADC_DelSig_1.c **** *  Returns a 16-bit result for a conversion with a result that has a
 727:.\Generated_Source\PSoC5/ADC_DelSig_1.c **** *  resolution of 8 to 16 bits. If the resolution is set greater than 16-bits,
 728:.\Generated_Source\PSoC5/ADC_DelSig_1.c **** *  it will return the 16 least significant bits of the result. When the ADC
 729:.\Generated_Source\PSoC5/ADC_DelSig_1.c **** *  is configured for 16-bit single ended mode, the ADC_GetResult32()
 730:.\Generated_Source\PSoC5/ADC_DelSig_1.c **** *  function should be used instead. This function returns only signed
 731:.\Generated_Source\PSoC5/ADC_DelSig_1.c **** *  16-bit result, which allows a maximum positive value of 32767, not 65535.
 732:.\Generated_Source\PSoC5/ADC_DelSig_1.c **** *  This function supports different coherency settings.
 733:.\Generated_Source\PSoC5/ADC_DelSig_1.c **** *
 734:.\Generated_Source\PSoC5/ADC_DelSig_1.c **** * Parameters:
 735:.\Generated_Source\PSoC5/ADC_DelSig_1.c **** *   void
 736:.\Generated_Source\PSoC5/ADC_DelSig_1.c **** *
 737:.\Generated_Source\PSoC5/ADC_DelSig_1.c **** * Return:
 738:.\Generated_Source\PSoC5/ADC_DelSig_1.c **** *  int16:  ADC result.
 739:.\Generated_Source\PSoC5/ADC_DelSig_1.c **** *
 740:.\Generated_Source\PSoC5/ADC_DelSig_1.c **** * Global variables:
 741:.\Generated_Source\PSoC5/ADC_DelSig_1.c **** *  ADC_DelSig_1_convDone:  Cleared in single sample mode with resolution
 742:.\Generated_Source\PSoC5/ADC_DelSig_1.c **** *                              above 16 bits
 743:.\Generated_Source\PSoC5/ADC_DelSig_1.c **** *
 744:.\Generated_Source\PSoC5/ADC_DelSig_1.c **** *******************************************************************************/
 745:.\Generated_Source\PSoC5/ADC_DelSig_1.c **** int16 ADC_DelSig_1_GetResult16(void) 
 746:.\Generated_Source\PSoC5/ADC_DelSig_1.c **** {
 747:.\Generated_Source\PSoC5/ADC_DelSig_1.c ****     uint16 result;
 748:.\Generated_Source\PSoC5/ADC_DelSig_1.c ****     uint8 coherency;
 749:.\Generated_Source\PSoC5/ADC_DelSig_1.c **** 
 750:.\Generated_Source\PSoC5/ADC_DelSig_1.c ****     /* Read active coherency configuration */
 751:.\Generated_Source\PSoC5/ADC_DelSig_1.c ****     coherency = ADC_DelSig_1_DEC_COHER_REG & ADC_DelSig_1_DEC_SAMP_KEY_MASK;
 752:.\Generated_Source\PSoC5/ADC_DelSig_1.c **** 
 753:.\Generated_Source\PSoC5/ADC_DelSig_1.c ****     if(coherency <= ADC_DelSig_1_DEC_SAMP_KEY_LOW)
 754:.\Generated_Source\PSoC5/ADC_DelSig_1.c ****     {   /*  Use default method to read result registers i.e. LSB byte read at the end*/
 755:.\Generated_Source\PSoC5/ADC_DelSig_1.c ****         #if (CY_PSOC3)
 756:.\Generated_Source\PSoC5/ADC_DelSig_1.c ****             result = ADC_DelSig_1_DEC_SAMPM_REG;
 757:.\Generated_Source\PSoC5/ADC_DelSig_1.c ****             result = (result << 8u) | ADC_DelSig_1_DEC_SAMP_REG;
 758:.\Generated_Source\PSoC5/ADC_DelSig_1.c ****         #else
 759:.\Generated_Source\PSoC5/ADC_DelSig_1.c ****             result = (CY_GET_REG16(ADC_DelSig_1_DEC_SAMP_16B_PTR));
 760:.\Generated_Source\PSoC5/ADC_DelSig_1.c ****         #endif /* CY_PSOC3 */
 761:.\Generated_Source\PSoC5/ADC_DelSig_1.c ****     }
 762:.\Generated_Source\PSoC5/ADC_DelSig_1.c ****     else /* MID or HIGH */
 763:.\Generated_Source\PSoC5/ADC_DelSig_1.c ****     {   /* Read middle byte at the end */
 764:.\Generated_Source\PSoC5/ADC_DelSig_1.c ****         #if (CY_PSOC3)
 765:.\Generated_Source\PSoC5/ADC_DelSig_1.c ****             result = (CY_GET_REG16(ADC_DelSig_1_DEC_SAMP_16B_PTR));
 766:.\Generated_Source\PSoC5/ADC_DelSig_1.c ****         #else
 767:.\Generated_Source\PSoC5/ADC_DelSig_1.c ****             result = ADC_DelSig_1_DEC_SAMP_REG;
 768:.\Generated_Source\PSoC5/ADC_DelSig_1.c ****             result |=  (uint16)((uint16)ADC_DelSig_1_DEC_SAMPM_REG << 8u);
 769:.\Generated_Source\PSoC5/ADC_DelSig_1.c ****         #endif /* CY_PSOC3 */
 770:.\Generated_Source\PSoC5/ADC_DelSig_1.c ****         if(coherency == ADC_DelSig_1_DEC_SAMP_KEY_HIGH)
 771:.\Generated_Source\PSoC5/ADC_DelSig_1.c ****         {   /* Dummy read of the MSB byte to unlock the coherency */
 772:.\Generated_Source\PSoC5/ADC_DelSig_1.c ****             (void)ADC_DelSig_1_DEC_SAMPH_REG;
 773:.\Generated_Source\PSoC5/ADC_DelSig_1.c ****         }
ARM GAS  C:\Users\HANNAL~1\AppData\Local\Temp\ccGbhEeb.s 			page 15


 774:.\Generated_Source\PSoC5/ADC_DelSig_1.c ****     }
 775:.\Generated_Source\PSoC5/ADC_DelSig_1.c ****     /* Clear conversion complete status in Single Sample mode with resolution above 16 bit */
 776:.\Generated_Source\PSoC5/ADC_DelSig_1.c ****     if(ADC_DelSig_1_stopConversion != 0u)
 777:.\Generated_Source\PSoC5/ADC_DelSig_1.c ****     {
 778:.\Generated_Source\PSoC5/ADC_DelSig_1.c ****         ADC_DelSig_1_convDone = 0u;
 779:.\Generated_Source\PSoC5/ADC_DelSig_1.c ****     }
 780:.\Generated_Source\PSoC5/ADC_DelSig_1.c **** 
 781:.\Generated_Source\PSoC5/ADC_DelSig_1.c ****     return ((int16)result);
 782:.\Generated_Source\PSoC5/ADC_DelSig_1.c **** }
 783:.\Generated_Source\PSoC5/ADC_DelSig_1.c **** 
 784:.\Generated_Source\PSoC5/ADC_DelSig_1.c **** 
 785:.\Generated_Source\PSoC5/ADC_DelSig_1.c **** /*******************************************************************************
 786:.\Generated_Source\PSoC5/ADC_DelSig_1.c **** * Function Name: ADC_DelSig_1_GetResult32
 787:.\Generated_Source\PSoC5/ADC_DelSig_1.c **** ********************************************************************************
 788:.\Generated_Source\PSoC5/ADC_DelSig_1.c **** *
 789:.\Generated_Source\PSoC5/ADC_DelSig_1.c **** * Summary:
 790:.\Generated_Source\PSoC5/ADC_DelSig_1.c **** *  Returns a 32-bit result for a conversion with a result that has a
 791:.\Generated_Source\PSoC5/ADC_DelSig_1.c **** *  resolution of 8 to 20 bits.
 792:.\Generated_Source\PSoC5/ADC_DelSig_1.c **** *  This function supports different coherency settings.
 793:.\Generated_Source\PSoC5/ADC_DelSig_1.c **** *
 794:.\Generated_Source\PSoC5/ADC_DelSig_1.c **** * Parameters:
 795:.\Generated_Source\PSoC5/ADC_DelSig_1.c **** *  None
 796:.\Generated_Source\PSoC5/ADC_DelSig_1.c **** *
 797:.\Generated_Source\PSoC5/ADC_DelSig_1.c **** * Return:
 798:.\Generated_Source\PSoC5/ADC_DelSig_1.c **** *  int32: Result of the last ADC conversion.
 799:.\Generated_Source\PSoC5/ADC_DelSig_1.c **** *
 800:.\Generated_Source\PSoC5/ADC_DelSig_1.c **** * Global variables:
 801:.\Generated_Source\PSoC5/ADC_DelSig_1.c **** *  ADC_DelSig_1_convDone:  Cleared in single sample mode with resolution
 802:.\Generated_Source\PSoC5/ADC_DelSig_1.c **** *                              above 16 bits
 803:.\Generated_Source\PSoC5/ADC_DelSig_1.c **** *
 804:.\Generated_Source\PSoC5/ADC_DelSig_1.c **** *******************************************************************************/
 805:.\Generated_Source\PSoC5/ADC_DelSig_1.c **** int32 ADC_DelSig_1_GetResult32(void) 
 806:.\Generated_Source\PSoC5/ADC_DelSig_1.c **** {
 807:.\Generated_Source\PSoC5/ADC_DelSig_1.c ****     uint32 result;
 808:.\Generated_Source\PSoC5/ADC_DelSig_1.c ****     uint8 coherency;
 809:.\Generated_Source\PSoC5/ADC_DelSig_1.c ****     #if (CY_PSOC3)
 810:.\Generated_Source\PSoC5/ADC_DelSig_1.c **** 	    uint16 tmp;
 811:.\Generated_Source\PSoC5/ADC_DelSig_1.c ****     #endif /* CY_PSOC3 */
 812:.\Generated_Source\PSoC5/ADC_DelSig_1.c **** 
 813:.\Generated_Source\PSoC5/ADC_DelSig_1.c ****     /* Read active coherency configuration */
 814:.\Generated_Source\PSoC5/ADC_DelSig_1.c ****     coherency = ADC_DelSig_1_DEC_COHER_REG & ADC_DelSig_1_DEC_SAMP_KEY_MASK;
 815:.\Generated_Source\PSoC5/ADC_DelSig_1.c **** 
 816:.\Generated_Source\PSoC5/ADC_DelSig_1.c ****     if(coherency <= ADC_DelSig_1_DEC_SAMP_KEY_LOW)
 817:.\Generated_Source\PSoC5/ADC_DelSig_1.c ****     {   /*  Use default method to read result registers i.e. LSB byte read at the end*/
 818:.\Generated_Source\PSoC5/ADC_DelSig_1.c ****         #if (CY_PSOC3)
 819:.\Generated_Source\PSoC5/ADC_DelSig_1.c ****             result = ADC_DelSig_1_DEC_SAMPH_REG;
 820:.\Generated_Source\PSoC5/ADC_DelSig_1.c ****             if((result & 0x80u) != 0u)
 821:.\Generated_Source\PSoC5/ADC_DelSig_1.c ****             {   /* Sign extend */
 822:.\Generated_Source\PSoC5/ADC_DelSig_1.c ****                 result |= 0xFF00u;
 823:.\Generated_Source\PSoC5/ADC_DelSig_1.c ****             }
 824:.\Generated_Source\PSoC5/ADC_DelSig_1.c ****             result = (result << 8u) | ADC_DelSig_1_DEC_SAMPM_REG;
 825:.\Generated_Source\PSoC5/ADC_DelSig_1.c ****             result = (result << 8u) | ADC_DelSig_1_DEC_SAMP_REG;
 826:.\Generated_Source\PSoC5/ADC_DelSig_1.c ****         #else
 827:.\Generated_Source\PSoC5/ADC_DelSig_1.c ****             result = CY_GET_REG16(ADC_DelSig_1_DEC_SAMPH_16B_PTR);
 828:.\Generated_Source\PSoC5/ADC_DelSig_1.c ****             result = (result << 16u) | (CY_GET_REG16(ADC_DelSig_1_DEC_SAMP_16B_PTR));
 829:.\Generated_Source\PSoC5/ADC_DelSig_1.c ****         #endif /* CY_PSOC3 */
 830:.\Generated_Source\PSoC5/ADC_DelSig_1.c ****     }
ARM GAS  C:\Users\HANNAL~1\AppData\Local\Temp\ccGbhEeb.s 			page 16


 831:.\Generated_Source\PSoC5/ADC_DelSig_1.c ****     else if(coherency == ADC_DelSig_1_DEC_SAMP_KEY_MID)
 832:.\Generated_Source\PSoC5/ADC_DelSig_1.c ****     {   /* Read middle byte at the end */
 833:.\Generated_Source\PSoC5/ADC_DelSig_1.c ****         #if (CY_PSOC3)
 834:.\Generated_Source\PSoC5/ADC_DelSig_1.c ****             result = ADC_DelSig_1_DEC_SAMPH_REG;
 835:.\Generated_Source\PSoC5/ADC_DelSig_1.c ****             if((result & 0x80u) != 0u)
 836:.\Generated_Source\PSoC5/ADC_DelSig_1.c ****             {   /* Sign extend */
 837:.\Generated_Source\PSoC5/ADC_DelSig_1.c ****                 result |= 0xFF00u;
 838:.\Generated_Source\PSoC5/ADC_DelSig_1.c ****             }
 839:.\Generated_Source\PSoC5/ADC_DelSig_1.c ****             result = (result << 16u) | (CY_GET_REG16(ADC_DelSig_1_DEC_SAMP_16B_PTR));
 840:.\Generated_Source\PSoC5/ADC_DelSig_1.c ****         #else
 841:.\Generated_Source\PSoC5/ADC_DelSig_1.c ****             result = CY_GET_REG16(ADC_DelSig_1_DEC_SAMPH_16B_PTR);
 842:.\Generated_Source\PSoC5/ADC_DelSig_1.c ****             result = (result << 16u) | ADC_DelSig_1_DEC_SAMP_REG;
 843:.\Generated_Source\PSoC5/ADC_DelSig_1.c ****             result |=  (uint32)((uint32)ADC_DelSig_1_DEC_SAMPM_REG << 8u);
 844:.\Generated_Source\PSoC5/ADC_DelSig_1.c ****         #endif /* CY_PSOC3 */
 845:.\Generated_Source\PSoC5/ADC_DelSig_1.c ****     }
 846:.\Generated_Source\PSoC5/ADC_DelSig_1.c ****     else /*ADC_DelSig_1_DEC_SAMP_KEY_HIGH */
 847:.\Generated_Source\PSoC5/ADC_DelSig_1.c ****     {
 848:.\Generated_Source\PSoC5/ADC_DelSig_1.c ****         /* Read MSB byte at the end */
 849:.\Generated_Source\PSoC5/ADC_DelSig_1.c ****         #if (CY_PSOC3)
 850:.\Generated_Source\PSoC5/ADC_DelSig_1.c ****             result = CY_GET_REG16(ADC_DelSig_1_DEC_SAMP_16B_PTR);
 851:.\Generated_Source\PSoC5/ADC_DelSig_1.c **** 			tmp = ADC_DelSig_1_DEC_SAMPH_REG;
 852:.\Generated_Source\PSoC5/ADC_DelSig_1.c ****             if((tmp & 0x80u) != 0u)
 853:.\Generated_Source\PSoC5/ADC_DelSig_1.c ****             {   /* Sign extend */
 854:.\Generated_Source\PSoC5/ADC_DelSig_1.c ****                 tmp |= 0xFF00u;
 855:.\Generated_Source\PSoC5/ADC_DelSig_1.c ****             }
 856:.\Generated_Source\PSoC5/ADC_DelSig_1.c ****             result |= (uint32)tmp << 16u;
 857:.\Generated_Source\PSoC5/ADC_DelSig_1.c ****         #else
 858:.\Generated_Source\PSoC5/ADC_DelSig_1.c ****             result = CY_GET_REG16(ADC_DelSig_1_DEC_SAMP_16B_PTR);
 859:.\Generated_Source\PSoC5/ADC_DelSig_1.c ****             result |= (uint32)((uint32)CY_GET_REG16(ADC_DelSig_1_DEC_SAMPH_16B_PTR) << 16u);
 860:.\Generated_Source\PSoC5/ADC_DelSig_1.c ****         #endif /* CY_PSOC3 */
 861:.\Generated_Source\PSoC5/ADC_DelSig_1.c ****     }
 862:.\Generated_Source\PSoC5/ADC_DelSig_1.c ****     /* Clear conversion complete status in Single Sample mode with resolution above 16 bit */
 863:.\Generated_Source\PSoC5/ADC_DelSig_1.c ****     if(ADC_DelSig_1_stopConversion != 0u)
 864:.\Generated_Source\PSoC5/ADC_DelSig_1.c ****     {
 865:.\Generated_Source\PSoC5/ADC_DelSig_1.c ****         ADC_DelSig_1_convDone = 0u;
 866:.\Generated_Source\PSoC5/ADC_DelSig_1.c ****     }
 867:.\Generated_Source\PSoC5/ADC_DelSig_1.c **** 
 868:.\Generated_Source\PSoC5/ADC_DelSig_1.c ****     return ((int32)result);
 869:.\Generated_Source\PSoC5/ADC_DelSig_1.c **** }
 870:.\Generated_Source\PSoC5/ADC_DelSig_1.c **** 
 871:.\Generated_Source\PSoC5/ADC_DelSig_1.c **** 
 872:.\Generated_Source\PSoC5/ADC_DelSig_1.c **** /*******************************************************************************
 873:.\Generated_Source\PSoC5/ADC_DelSig_1.c **** * Function Name: ADC_DelSig_1_SetOffset
 874:.\Generated_Source\PSoC5/ADC_DelSig_1.c **** ********************************************************************************
 875:.\Generated_Source\PSoC5/ADC_DelSig_1.c **** *
 876:.\Generated_Source\PSoC5/ADC_DelSig_1.c **** * Summary:
 877:.\Generated_Source\PSoC5/ADC_DelSig_1.c **** *  Sets the ADC offset which is used by the functions ADC_CountsTo_uVolts, 
 878:.\Generated_Source\PSoC5/ADC_DelSig_1.c **** *  ADC_CountsTo_mVolts, and ADC_CountsTo_Volts to subtract the offset from the 
 879:.\Generated_Source\PSoC5/ADC_DelSig_1.c **** *  given reading before calculating the voltage conversion.
 880:.\Generated_Source\PSoC5/ADC_DelSig_1.c **** *
 881:.\Generated_Source\PSoC5/ADC_DelSig_1.c **** * Parameters:
 882:.\Generated_Source\PSoC5/ADC_DelSig_1.c **** *  int32:  This value is a measured value when the inputs are shorted or 
 883:.\Generated_Source\PSoC5/ADC_DelSig_1.c **** *          connected to the same input voltage.
 884:.\Generated_Source\PSoC5/ADC_DelSig_1.c **** *
 885:.\Generated_Source\PSoC5/ADC_DelSig_1.c **** * Return:
 886:.\Generated_Source\PSoC5/ADC_DelSig_1.c **** *  None
 887:.\Generated_Source\PSoC5/ADC_DelSig_1.c **** *
ARM GAS  C:\Users\HANNAL~1\AppData\Local\Temp\ccGbhEeb.s 			page 17


 888:.\Generated_Source\PSoC5/ADC_DelSig_1.c **** * Global variables:
 889:.\Generated_Source\PSoC5/ADC_DelSig_1.c **** *  ADC_DelSig_1_Offset:  Modified to set the user provided offset. This
 890:.\Generated_Source\PSoC5/ADC_DelSig_1.c **** *  variable is used for offset calibration purpose.
 891:.\Generated_Source\PSoC5/ADC_DelSig_1.c **** *
 892:.\Generated_Source\PSoC5/ADC_DelSig_1.c **** * Side Effects:
 893:.\Generated_Source\PSoC5/ADC_DelSig_1.c **** *  Affects the ADC_DelSig_1_CountsTo_Volts,
 894:.\Generated_Source\PSoC5/ADC_DelSig_1.c **** *  ADC_DelSig_1_CountsTo_mVolts, ADC_DelSig_1_CountsTo_uVolts functions
 895:.\Generated_Source\PSoC5/ADC_DelSig_1.c **** *  by subtracting the given offset.
 896:.\Generated_Source\PSoC5/ADC_DelSig_1.c **** *
 897:.\Generated_Source\PSoC5/ADC_DelSig_1.c **** *******************************************************************************/
 898:.\Generated_Source\PSoC5/ADC_DelSig_1.c **** void ADC_DelSig_1_SetOffset(int32 offset) 
 899:.\Generated_Source\PSoC5/ADC_DelSig_1.c **** {
 900:.\Generated_Source\PSoC5/ADC_DelSig_1.c **** 
 901:.\Generated_Source\PSoC5/ADC_DelSig_1.c ****     ADC_DelSig_1_Offset = offset;
 902:.\Generated_Source\PSoC5/ADC_DelSig_1.c **** }
 903:.\Generated_Source\PSoC5/ADC_DelSig_1.c **** 
 904:.\Generated_Source\PSoC5/ADC_DelSig_1.c **** 
 905:.\Generated_Source\PSoC5/ADC_DelSig_1.c **** /*******************************************************************************
 906:.\Generated_Source\PSoC5/ADC_DelSig_1.c **** * Function Name: ADC_DelSig_1_SetGain
 907:.\Generated_Source\PSoC5/ADC_DelSig_1.c **** ********************************************************************************
 908:.\Generated_Source\PSoC5/ADC_DelSig_1.c **** *
 909:.\Generated_Source\PSoC5/ADC_DelSig_1.c **** * Summary:
 910:.\Generated_Source\PSoC5/ADC_DelSig_1.c **** *  Sets the ADC gain in counts per volt for the voltage conversion
 911:.\Generated_Source\PSoC5/ADC_DelSig_1.c **** *  functions below. This value is set by default by the reference and
 912:.\Generated_Source\PSoC5/ADC_DelSig_1.c **** *  input range settings. It should only be used to further calibrate the
 913:.\Generated_Source\PSoC5/ADC_DelSig_1.c **** *  ADC with a known input or if an external reference is used. This
 914:.\Generated_Source\PSoC5/ADC_DelSig_1.c **** *  function may also be used to calibrate an entire signal chain, not
 915:.\Generated_Source\PSoC5/ADC_DelSig_1.c **** *  just the ADC.
 916:.\Generated_Source\PSoC5/ADC_DelSig_1.c **** *
 917:.\Generated_Source\PSoC5/ADC_DelSig_1.c **** * Parameters:
 918:.\Generated_Source\PSoC5/ADC_DelSig_1.c **** *  int32: ADC gain in counts per volt.
 919:.\Generated_Source\PSoC5/ADC_DelSig_1.c **** *
 920:.\Generated_Source\PSoC5/ADC_DelSig_1.c **** * Return:
 921:.\Generated_Source\PSoC5/ADC_DelSig_1.c **** *  None
 922:.\Generated_Source\PSoC5/ADC_DelSig_1.c **** *
 923:.\Generated_Source\PSoC5/ADC_DelSig_1.c **** * Global variables:
 924:.\Generated_Source\PSoC5/ADC_DelSig_1.c **** *  ADC_DelSig_1_CountsPerVolt:  modified to set the ADC gain in counts
 925:.\Generated_Source\PSoC5/ADC_DelSig_1.c **** *   per volt.
 926:.\Generated_Source\PSoC5/ADC_DelSig_1.c **** *
 927:.\Generated_Source\PSoC5/ADC_DelSig_1.c **** * Side Effects:
 928:.\Generated_Source\PSoC5/ADC_DelSig_1.c **** *  Affects the ADC_DelSig_1_CountsTo_Volts,
 929:.\Generated_Source\PSoC5/ADC_DelSig_1.c **** *  ADC_DelSig_1_CountsTo_mVolts, ADC_DelSig_1_CountsTo_uVolts functions
 930:.\Generated_Source\PSoC5/ADC_DelSig_1.c **** *  supplying the correct conversion between ADC counts and voltage.
 931:.\Generated_Source\PSoC5/ADC_DelSig_1.c **** *
 932:.\Generated_Source\PSoC5/ADC_DelSig_1.c **** *******************************************************************************/
 933:.\Generated_Source\PSoC5/ADC_DelSig_1.c **** void ADC_DelSig_1_SetGain(int32 adcGain) 
 934:.\Generated_Source\PSoC5/ADC_DelSig_1.c **** {
 935:.\Generated_Source\PSoC5/ADC_DelSig_1.c ****     ADC_DelSig_1_CountsPerVolt = adcGain;
 936:.\Generated_Source\PSoC5/ADC_DelSig_1.c **** }
 937:.\Generated_Source\PSoC5/ADC_DelSig_1.c **** 
 938:.\Generated_Source\PSoC5/ADC_DelSig_1.c **** 
 939:.\Generated_Source\PSoC5/ADC_DelSig_1.c **** /*******************************************************************************
 940:.\Generated_Source\PSoC5/ADC_DelSig_1.c **** * Function Name: ADC_DelSig_1_CountsTo_mVolts
 941:.\Generated_Source\PSoC5/ADC_DelSig_1.c **** ********************************************************************************
 942:.\Generated_Source\PSoC5/ADC_DelSig_1.c **** *
 943:.\Generated_Source\PSoC5/ADC_DelSig_1.c **** * Summary:
 944:.\Generated_Source\PSoC5/ADC_DelSig_1.c **** *  Converts the ADC counts output to mVolts as a 16-bit integer. For
ARM GAS  C:\Users\HANNAL~1\AppData\Local\Temp\ccGbhEeb.s 			page 18


 945:.\Generated_Source\PSoC5/ADC_DelSig_1.c **** *  example, if the ADC measured 0.534 volts, the return value would
 946:.\Generated_Source\PSoC5/ADC_DelSig_1.c **** *  be 534 mVolts.
 947:.\Generated_Source\PSoC5/ADC_DelSig_1.c **** *
 948:.\Generated_Source\PSoC5/ADC_DelSig_1.c **** * Parameters:
 949:.\Generated_Source\PSoC5/ADC_DelSig_1.c **** *  int32: adcCounts Result from the ADC conversion.
 950:.\Generated_Source\PSoC5/ADC_DelSig_1.c **** *
 951:.\Generated_Source\PSoC5/ADC_DelSig_1.c **** * Return:
 952:.\Generated_Source\PSoC5/ADC_DelSig_1.c **** *  int16:  Result in mVolts
 953:.\Generated_Source\PSoC5/ADC_DelSig_1.c **** *
 954:.\Generated_Source\PSoC5/ADC_DelSig_1.c **** * Global variables:
 955:.\Generated_Source\PSoC5/ADC_DelSig_1.c **** *  ADC_DelSig_1_CountsPerVolt:  used to convert ADC counts to mVolts.
 956:.\Generated_Source\PSoC5/ADC_DelSig_1.c **** *  ADC_DelSig_1_Offset:  Used as the offset while converting ADC counts
 957:.\Generated_Source\PSoC5/ADC_DelSig_1.c **** *   to mVolts.
 958:.\Generated_Source\PSoC5/ADC_DelSig_1.c **** *
 959:.\Generated_Source\PSoC5/ADC_DelSig_1.c **** *******************************************************************************/
 960:.\Generated_Source\PSoC5/ADC_DelSig_1.c **** int16 ADC_DelSig_1_CountsTo_mVolts(int32 adcCounts) 
 961:.\Generated_Source\PSoC5/ADC_DelSig_1.c **** {
 962:.\Generated_Source\PSoC5/ADC_DelSig_1.c **** 
 963:.\Generated_Source\PSoC5/ADC_DelSig_1.c ****     int16 mVolts;
 964:.\Generated_Source\PSoC5/ADC_DelSig_1.c **** 
 965:.\Generated_Source\PSoC5/ADC_DelSig_1.c ****     /* Convert adcCounts to the right align if left option selected */
 966:.\Generated_Source\PSoC5/ADC_DelSig_1.c ****     #if(ADC_DelSig_1_CFG1_DEC_DIV != 0)
 967:.\Generated_Source\PSoC5/ADC_DelSig_1.c ****         if(ADC_DelSig_1_Config == ADC_DelSig_1_CFG1)
 968:.\Generated_Source\PSoC5/ADC_DelSig_1.c ****         {
 969:.\Generated_Source\PSoC5/ADC_DelSig_1.c ****             adcCounts /= ADC_DelSig_1_CFG1_DEC_DIV;
 970:.\Generated_Source\PSoC5/ADC_DelSig_1.c ****         }
 971:.\Generated_Source\PSoC5/ADC_DelSig_1.c ****     #endif /* ADC_DelSig_1_CFG1_DEC_DIV */
 972:.\Generated_Source\PSoC5/ADC_DelSig_1.c ****     #if((ADC_DelSig_1_CFG2_DEC_DIV != 0) && (ADC_DelSig_1_DEFAULT_NUM_CONFIGS > 1))
 973:.\Generated_Source\PSoC5/ADC_DelSig_1.c ****         if(ADC_DelSig_1_Config == ADC_DelSig_1_CFG2)
 974:.\Generated_Source\PSoC5/ADC_DelSig_1.c ****         {
 975:.\Generated_Source\PSoC5/ADC_DelSig_1.c ****             adcCounts /= ADC_DelSig_1_CFG2_DEC_DIV;
 976:.\Generated_Source\PSoC5/ADC_DelSig_1.c ****         }
 977:.\Generated_Source\PSoC5/ADC_DelSig_1.c ****     #endif /* ADC_DelSig_1_CFG2_DEC_DIV */
 978:.\Generated_Source\PSoC5/ADC_DelSig_1.c ****     #if((ADC_DelSig_1_CFG3_DEC_DIV != 0) && (ADC_DelSig_1_DEFAULT_NUM_CONFIGS > 2))
 979:.\Generated_Source\PSoC5/ADC_DelSig_1.c ****         if(ADC_DelSig_1_Config == ADC_DelSig_1_CFG3)
 980:.\Generated_Source\PSoC5/ADC_DelSig_1.c ****         {
 981:.\Generated_Source\PSoC5/ADC_DelSig_1.c ****             adcCounts /= ADC_DelSig_1_CFG3_DEC_DIV;
 982:.\Generated_Source\PSoC5/ADC_DelSig_1.c ****         }
 983:.\Generated_Source\PSoC5/ADC_DelSig_1.c ****     #endif /* ADC_DelSig_1_CFG2_DEC_DIV */
 984:.\Generated_Source\PSoC5/ADC_DelSig_1.c ****     #if((ADC_DelSig_1_CFG4_DEC_DIV != 0) && (ADC_DelSig_1_DEFAULT_NUM_CONFIGS > 3))
 985:.\Generated_Source\PSoC5/ADC_DelSig_1.c ****         if(ADC_DelSig_1_Config == ADC_DelSig_1_CFG4)
 986:.\Generated_Source\PSoC5/ADC_DelSig_1.c ****         {
 987:.\Generated_Source\PSoC5/ADC_DelSig_1.c ****             adcCounts /= ADC_DelSig_1_CFG4_DEC_DIV;
 988:.\Generated_Source\PSoC5/ADC_DelSig_1.c ****         }
 989:.\Generated_Source\PSoC5/ADC_DelSig_1.c ****     #endif /* ADC_DelSig_1_CFG2_DEC_DIV */
 990:.\Generated_Source\PSoC5/ADC_DelSig_1.c **** 
 991:.\Generated_Source\PSoC5/ADC_DelSig_1.c ****     /* Subtract ADC offset */
 992:.\Generated_Source\PSoC5/ADC_DelSig_1.c ****     adcCounts -= ADC_DelSig_1_Offset;
 993:.\Generated_Source\PSoC5/ADC_DelSig_1.c **** 
 994:.\Generated_Source\PSoC5/ADC_DelSig_1.c ****     mVolts = (int16)(( adcCounts * ADC_DelSig_1_1MV_COUNTS ) / ADC_DelSig_1_CountsPerVolt) ;
 995:.\Generated_Source\PSoC5/ADC_DelSig_1.c **** 
 996:.\Generated_Source\PSoC5/ADC_DelSig_1.c ****     return(mVolts);
 997:.\Generated_Source\PSoC5/ADC_DelSig_1.c **** }
 998:.\Generated_Source\PSoC5/ADC_DelSig_1.c **** 
 999:.\Generated_Source\PSoC5/ADC_DelSig_1.c **** 
1000:.\Generated_Source\PSoC5/ADC_DelSig_1.c **** /*******************************************************************************
1001:.\Generated_Source\PSoC5/ADC_DelSig_1.c **** * Function Name: ADC_DelSig_1_CountsTo_Volts
ARM GAS  C:\Users\HANNAL~1\AppData\Local\Temp\ccGbhEeb.s 			page 19


1002:.\Generated_Source\PSoC5/ADC_DelSig_1.c **** ********************************************************************************
1003:.\Generated_Source\PSoC5/ADC_DelSig_1.c **** *
1004:.\Generated_Source\PSoC5/ADC_DelSig_1.c **** * Summary:
1005:.\Generated_Source\PSoC5/ADC_DelSig_1.c **** *  Converts the ADC output to Volts as a floating point number. For
1006:.\Generated_Source\PSoC5/ADC_DelSig_1.c **** *  example, if the ADC measure a voltage of 1.2345 Volts, the
1007:.\Generated_Source\PSoC5/ADC_DelSig_1.c **** *  returned result would be +1.2345 Volts.
1008:.\Generated_Source\PSoC5/ADC_DelSig_1.c **** *
1009:.\Generated_Source\PSoC5/ADC_DelSig_1.c **** * Parameters:
1010:.\Generated_Source\PSoC5/ADC_DelSig_1.c **** *  int32 adcCounts:  Result from the ADC conversion.
1011:.\Generated_Source\PSoC5/ADC_DelSig_1.c **** *
1012:.\Generated_Source\PSoC5/ADC_DelSig_1.c **** * Return:
1013:.\Generated_Source\PSoC5/ADC_DelSig_1.c **** *  float32: Result in Volts
1014:.\Generated_Source\PSoC5/ADC_DelSig_1.c **** *
1015:.\Generated_Source\PSoC5/ADC_DelSig_1.c **** * Global variables:
1016:.\Generated_Source\PSoC5/ADC_DelSig_1.c **** *  ADC_DelSig_1_CountsPerVolt:  used to convert to Volts.
1017:.\Generated_Source\PSoC5/ADC_DelSig_1.c **** *  ADC_DelSig_1_Offset:  Used as the offset while converting ADC counts
1018:.\Generated_Source\PSoC5/ADC_DelSig_1.c **** *   to Volts.
1019:.\Generated_Source\PSoC5/ADC_DelSig_1.c **** *
1020:.\Generated_Source\PSoC5/ADC_DelSig_1.c **** *******************************************************************************/
1021:.\Generated_Source\PSoC5/ADC_DelSig_1.c **** float32 ADC_DelSig_1_CountsTo_Volts(int32 adcCounts) 
1022:.\Generated_Source\PSoC5/ADC_DelSig_1.c **** {
1023:.\Generated_Source\PSoC5/ADC_DelSig_1.c **** 
1024:.\Generated_Source\PSoC5/ADC_DelSig_1.c ****     float32 Volts;
1025:.\Generated_Source\PSoC5/ADC_DelSig_1.c **** 
1026:.\Generated_Source\PSoC5/ADC_DelSig_1.c ****     /* Convert adcCounts to the right align if left option selected */
1027:.\Generated_Source\PSoC5/ADC_DelSig_1.c ****     #if(ADC_DelSig_1_CFG1_DEC_DIV != 0)
1028:.\Generated_Source\PSoC5/ADC_DelSig_1.c ****         if(ADC_DelSig_1_Config == ADC_DelSig_1_CFG1)
1029:.\Generated_Source\PSoC5/ADC_DelSig_1.c ****         {
1030:.\Generated_Source\PSoC5/ADC_DelSig_1.c ****             adcCounts /= ADC_DelSig_1_CFG1_DEC_DIV;
1031:.\Generated_Source\PSoC5/ADC_DelSig_1.c ****         }
1032:.\Generated_Source\PSoC5/ADC_DelSig_1.c ****     #endif /* ADC_DelSig_1_CFG1_DEC_DIV */
1033:.\Generated_Source\PSoC5/ADC_DelSig_1.c ****     #if((ADC_DelSig_1_CFG2_DEC_DIV != 0) && (ADC_DelSig_1_DEFAULT_NUM_CONFIGS > 1))
1034:.\Generated_Source\PSoC5/ADC_DelSig_1.c ****         if(ADC_DelSig_1_Config == ADC_DelSig_1_CFG2)
1035:.\Generated_Source\PSoC5/ADC_DelSig_1.c ****         {
1036:.\Generated_Source\PSoC5/ADC_DelSig_1.c ****             adcCounts /= ADC_DelSig_1_CFG2_DEC_DIV;
1037:.\Generated_Source\PSoC5/ADC_DelSig_1.c ****         }
1038:.\Generated_Source\PSoC5/ADC_DelSig_1.c ****     #endif /* ADC_DelSig_1_CFG2_DEC_DIV */
1039:.\Generated_Source\PSoC5/ADC_DelSig_1.c ****     #if((ADC_DelSig_1_CFG3_DEC_DIV != 0) && (ADC_DelSig_1_DEFAULT_NUM_CONFIGS > 2))
1040:.\Generated_Source\PSoC5/ADC_DelSig_1.c ****         if(ADC_DelSig_1_Config == ADC_DelSig_1_CFG3)
1041:.\Generated_Source\PSoC5/ADC_DelSig_1.c ****         {
1042:.\Generated_Source\PSoC5/ADC_DelSig_1.c ****             adcCounts /= ADC_DelSig_1_CFG3_DEC_DIV;
1043:.\Generated_Source\PSoC5/ADC_DelSig_1.c ****         }
1044:.\Generated_Source\PSoC5/ADC_DelSig_1.c ****     #endif /* ADC_DelSig_1_CFG2_DEC_DIV */
1045:.\Generated_Source\PSoC5/ADC_DelSig_1.c ****     #if((ADC_DelSig_1_CFG4_DEC_DIV != 0) && (ADC_DelSig_1_DEFAULT_NUM_CONFIGS > 3))
1046:.\Generated_Source\PSoC5/ADC_DelSig_1.c ****         if(ADC_DelSig_1_Config == ADC_DelSig_1_CFG4)
1047:.\Generated_Source\PSoC5/ADC_DelSig_1.c ****         {
1048:.\Generated_Source\PSoC5/ADC_DelSig_1.c ****             adcCounts /= ADC_DelSig_1_CFG4_DEC_DIV;
1049:.\Generated_Source\PSoC5/ADC_DelSig_1.c ****         }
1050:.\Generated_Source\PSoC5/ADC_DelSig_1.c ****     #endif /* ADC_DelSig_1_CFG2_DEC_DIV */
1051:.\Generated_Source\PSoC5/ADC_DelSig_1.c **** 
1052:.\Generated_Source\PSoC5/ADC_DelSig_1.c ****     /* Subtract ADC offset */
1053:.\Generated_Source\PSoC5/ADC_DelSig_1.c ****     adcCounts -= ADC_DelSig_1_Offset;
1054:.\Generated_Source\PSoC5/ADC_DelSig_1.c **** 
1055:.\Generated_Source\PSoC5/ADC_DelSig_1.c ****     Volts = (float32)adcCounts / (float32)ADC_DelSig_1_CountsPerVolt;
1056:.\Generated_Source\PSoC5/ADC_DelSig_1.c **** 
1057:.\Generated_Source\PSoC5/ADC_DelSig_1.c ****     return( Volts );
1058:.\Generated_Source\PSoC5/ADC_DelSig_1.c **** }
ARM GAS  C:\Users\HANNAL~1\AppData\Local\Temp\ccGbhEeb.s 			page 20


1059:.\Generated_Source\PSoC5/ADC_DelSig_1.c **** 
1060:.\Generated_Source\PSoC5/ADC_DelSig_1.c **** 
1061:.\Generated_Source\PSoC5/ADC_DelSig_1.c **** /*******************************************************************************
1062:.\Generated_Source\PSoC5/ADC_DelSig_1.c **** * Function Name: ADC_DelSig_1_CountsTo_uVolts
1063:.\Generated_Source\PSoC5/ADC_DelSig_1.c **** ********************************************************************************
1064:.\Generated_Source\PSoC5/ADC_DelSig_1.c **** *
1065:.\Generated_Source\PSoC5/ADC_DelSig_1.c **** * Summary:
1066:.\Generated_Source\PSoC5/ADC_DelSig_1.c **** *  Converts the ADC output to uVolts as a 32-bit integer. For example,
1067:.\Generated_Source\PSoC5/ADC_DelSig_1.c **** *  if the ADC measured -0.02345 Volts, the return value would be -23450 uVolts.
1068:.\Generated_Source\PSoC5/ADC_DelSig_1.c **** *
1069:.\Generated_Source\PSoC5/ADC_DelSig_1.c **** * Parameters:
1070:.\Generated_Source\PSoC5/ADC_DelSig_1.c **** *  int32 adcCounts: Result from the ADC conversion.
1071:.\Generated_Source\PSoC5/ADC_DelSig_1.c **** *
1072:.\Generated_Source\PSoC5/ADC_DelSig_1.c **** * Return:
1073:.\Generated_Source\PSoC5/ADC_DelSig_1.c **** *  int32:  Result in uVolts
1074:.\Generated_Source\PSoC5/ADC_DelSig_1.c **** *
1075:.\Generated_Source\PSoC5/ADC_DelSig_1.c **** * Global variables:
1076:.\Generated_Source\PSoC5/ADC_DelSig_1.c **** *  ADC_DelSig_1_CountsPerVolt:  used to convert ADC counts to mVolts.
1077:.\Generated_Source\PSoC5/ADC_DelSig_1.c **** *  ADC_DelSig_1_Offset:  Used as the offset while converting ADC counts
1078:.\Generated_Source\PSoC5/ADC_DelSig_1.c **** *   to mVolts.
1079:.\Generated_Source\PSoC5/ADC_DelSig_1.c **** *
1080:.\Generated_Source\PSoC5/ADC_DelSig_1.c **** * Theory:
1081:.\Generated_Source\PSoC5/ADC_DelSig_1.c **** *  Care must be taken to not exceed the maximum value for a 31 bit signed
1082:.\Generated_Source\PSoC5/ADC_DelSig_1.c **** *  number in the conversion to uVolts and at the same time not lose resolution.
1083:.\Generated_Source\PSoC5/ADC_DelSig_1.c **** *
1084:.\Generated_Source\PSoC5/ADC_DelSig_1.c **** *  uVolts = ((A * adcCounts) / ((int32)ADC_DelSig_1_CountsPerVolt / B));
1085:.\Generated_Source\PSoC5/ADC_DelSig_1.c **** *
1086:.\Generated_Source\PSoC5/ADC_DelSig_1.c **** *******************************************************************************/
1087:.\Generated_Source\PSoC5/ADC_DelSig_1.c **** int32 ADC_DelSig_1_CountsTo_uVolts(int32 adcCounts) 
1088:.\Generated_Source\PSoC5/ADC_DelSig_1.c **** {
1089:.\Generated_Source\PSoC5/ADC_DelSig_1.c **** 
1090:.\Generated_Source\PSoC5/ADC_DelSig_1.c ****     int32 uVolts;
1091:.\Generated_Source\PSoC5/ADC_DelSig_1.c ****     int32 coefA;
1092:.\Generated_Source\PSoC5/ADC_DelSig_1.c ****     int32 coefB;
1093:.\Generated_Source\PSoC5/ADC_DelSig_1.c ****     uint8 resolution;
1094:.\Generated_Source\PSoC5/ADC_DelSig_1.c **** 
1095:.\Generated_Source\PSoC5/ADC_DelSig_1.c ****     /* Set the resolution based on the configuration */
1096:.\Generated_Source\PSoC5/ADC_DelSig_1.c ****     /* Convert adcCounts to the right align if left option selected */
1097:.\Generated_Source\PSoC5/ADC_DelSig_1.c ****     if (ADC_DelSig_1_Config == ADC_DelSig_1_CFG1)
1098:.\Generated_Source\PSoC5/ADC_DelSig_1.c ****     {
1099:.\Generated_Source\PSoC5/ADC_DelSig_1.c ****         resolution = ADC_DelSig_1_CFG1_RESOLUTION;
1100:.\Generated_Source\PSoC5/ADC_DelSig_1.c ****         #if(ADC_DelSig_1_CFG1_DEC_DIV != 0)
1101:.\Generated_Source\PSoC5/ADC_DelSig_1.c ****             adcCounts /= ADC_DelSig_1_CFG1_DEC_DIV;
1102:.\Generated_Source\PSoC5/ADC_DelSig_1.c ****         #endif /* ADC_DelSig_1_CFG1_DEC_DIV */
1103:.\Generated_Source\PSoC5/ADC_DelSig_1.c ****     }
1104:.\Generated_Source\PSoC5/ADC_DelSig_1.c ****     else if (ADC_DelSig_1_Config == ADC_DelSig_1_CFG2)
1105:.\Generated_Source\PSoC5/ADC_DelSig_1.c ****     {
1106:.\Generated_Source\PSoC5/ADC_DelSig_1.c ****         resolution = ADC_DelSig_1_CFG2_RESOLUTION;
1107:.\Generated_Source\PSoC5/ADC_DelSig_1.c ****         #if(ADC_DelSig_1_CFG2_DEC_DIV != 0)
1108:.\Generated_Source\PSoC5/ADC_DelSig_1.c ****             adcCounts /= ADC_DelSig_1_CFG2_DEC_DIV;
1109:.\Generated_Source\PSoC5/ADC_DelSig_1.c ****         #endif /* ADC_DelSig_1_CFG2_DEC_DIV */
1110:.\Generated_Source\PSoC5/ADC_DelSig_1.c ****     }
1111:.\Generated_Source\PSoC5/ADC_DelSig_1.c ****     else if (ADC_DelSig_1_Config == ADC_DelSig_1_CFG3)
1112:.\Generated_Source\PSoC5/ADC_DelSig_1.c ****     {
1113:.\Generated_Source\PSoC5/ADC_DelSig_1.c ****         resolution = ADC_DelSig_1_CFG3_RESOLUTION;
1114:.\Generated_Source\PSoC5/ADC_DelSig_1.c ****         #if(ADC_DelSig_1_CFG3_DEC_DIV != 0)
1115:.\Generated_Source\PSoC5/ADC_DelSig_1.c ****             adcCounts /= ADC_DelSig_1_CFG3_DEC_DIV;
ARM GAS  C:\Users\HANNAL~1\AppData\Local\Temp\ccGbhEeb.s 			page 21


1116:.\Generated_Source\PSoC5/ADC_DelSig_1.c ****         #endif /* ADC_DelSig_1_CFG3_DEC_DIV */
1117:.\Generated_Source\PSoC5/ADC_DelSig_1.c ****     }
1118:.\Generated_Source\PSoC5/ADC_DelSig_1.c ****     else
1119:.\Generated_Source\PSoC5/ADC_DelSig_1.c ****     {
1120:.\Generated_Source\PSoC5/ADC_DelSig_1.c ****         resolution = ADC_DelSig_1_CFG4_RESOLUTION;
1121:.\Generated_Source\PSoC5/ADC_DelSig_1.c ****         #if(ADC_DelSig_1_CFG4_DEC_DIV != 0)
1122:.\Generated_Source\PSoC5/ADC_DelSig_1.c ****             adcCounts /= ADC_DelSig_1_CFG4_DEC_DIV;
1123:.\Generated_Source\PSoC5/ADC_DelSig_1.c ****         #endif /* ADC_DelSig_1_CFG4_DEC_DIV */
1124:.\Generated_Source\PSoC5/ADC_DelSig_1.c ****     }
1125:.\Generated_Source\PSoC5/ADC_DelSig_1.c **** 
1126:.\Generated_Source\PSoC5/ADC_DelSig_1.c ****     switch (resolution)
1127:.\Generated_Source\PSoC5/ADC_DelSig_1.c ****     {
1128:.\Generated_Source\PSoC5/ADC_DelSig_1.c ****         #if( (ADC_DelSig_1_CFG1_RESOLUTION == ADC_DelSig_1__BITS_12) || \
1129:.\Generated_Source\PSoC5/ADC_DelSig_1.c ****              (ADC_DelSig_1_CFG2_RESOLUTION == ADC_DelSig_1__BITS_12) || \
1130:.\Generated_Source\PSoC5/ADC_DelSig_1.c ****              (ADC_DelSig_1_CFG3_RESOLUTION == ADC_DelSig_1__BITS_12) || \
1131:.\Generated_Source\PSoC5/ADC_DelSig_1.c ****              (ADC_DelSig_1_CFG4_RESOLUTION == ADC_DelSig_1__BITS_12) )
1132:.\Generated_Source\PSoC5/ADC_DelSig_1.c ****             case (uint8)ADC_DelSig_1__BITS_12:
1133:.\Generated_Source\PSoC5/ADC_DelSig_1.c ****                 coefA = ADC_DelSig_1_1UV_COUNTS / ADC_DelSig_1_DIVISOR_2;
1134:.\Generated_Source\PSoC5/ADC_DelSig_1.c ****                 coefB = ADC_DelSig_1_DIVISOR_2;
1135:.\Generated_Source\PSoC5/ADC_DelSig_1.c ****                 break;
1136:.\Generated_Source\PSoC5/ADC_DelSig_1.c ****         #endif /* ADC_DelSig_1__BITS_12 */    
1137:.\Generated_Source\PSoC5/ADC_DelSig_1.c ****         #if( (ADC_DelSig_1_CFG1_RESOLUTION == ADC_DelSig_1__BITS_13) || \
1138:.\Generated_Source\PSoC5/ADC_DelSig_1.c ****              (ADC_DelSig_1_CFG2_RESOLUTION == ADC_DelSig_1__BITS_13) || \
1139:.\Generated_Source\PSoC5/ADC_DelSig_1.c ****              (ADC_DelSig_1_CFG3_RESOLUTION == ADC_DelSig_1__BITS_13) || \
1140:.\Generated_Source\PSoC5/ADC_DelSig_1.c ****              (ADC_DelSig_1_CFG4_RESOLUTION == ADC_DelSig_1__BITS_13) )
1141:.\Generated_Source\PSoC5/ADC_DelSig_1.c ****             case (uint8)ADC_DelSig_1__BITS_13:
1142:.\Generated_Source\PSoC5/ADC_DelSig_1.c ****                 coefA = ADC_DelSig_1_1UV_COUNTS / ADC_DelSig_1_DIVISOR_4;
1143:.\Generated_Source\PSoC5/ADC_DelSig_1.c ****                 coefB = ADC_DelSig_1_DIVISOR_4;
1144:.\Generated_Source\PSoC5/ADC_DelSig_1.c ****                 break;
1145:.\Generated_Source\PSoC5/ADC_DelSig_1.c ****         #endif /* ADC_DelSig_1__BITS_13 */    
1146:.\Generated_Source\PSoC5/ADC_DelSig_1.c ****         #if( (ADC_DelSig_1_CFG1_RESOLUTION == ADC_DelSig_1__BITS_14) || \
1147:.\Generated_Source\PSoC5/ADC_DelSig_1.c ****              (ADC_DelSig_1_CFG2_RESOLUTION == ADC_DelSig_1__BITS_14) || \
1148:.\Generated_Source\PSoC5/ADC_DelSig_1.c ****              (ADC_DelSig_1_CFG3_RESOLUTION == ADC_DelSig_1__BITS_14) || \
1149:.\Generated_Source\PSoC5/ADC_DelSig_1.c ****              (ADC_DelSig_1_CFG4_RESOLUTION == ADC_DelSig_1__BITS_14) )
1150:.\Generated_Source\PSoC5/ADC_DelSig_1.c ****             case (uint8)ADC_DelSig_1__BITS_14:
1151:.\Generated_Source\PSoC5/ADC_DelSig_1.c ****                 coefA = ADC_DelSig_1_1UV_COUNTS / ADC_DelSig_1_DIVISOR_8;
1152:.\Generated_Source\PSoC5/ADC_DelSig_1.c ****                 coefB = ADC_DelSig_1_DIVISOR_8;
1153:.\Generated_Source\PSoC5/ADC_DelSig_1.c ****                 break;
1154:.\Generated_Source\PSoC5/ADC_DelSig_1.c ****         #endif /* ADC_DelSig_1__BITS_14 */    
1155:.\Generated_Source\PSoC5/ADC_DelSig_1.c ****         #if( (ADC_DelSig_1_CFG1_RESOLUTION == ADC_DelSig_1__BITS_15) || \
1156:.\Generated_Source\PSoC5/ADC_DelSig_1.c ****              (ADC_DelSig_1_CFG2_RESOLUTION == ADC_DelSig_1__BITS_15) || \
1157:.\Generated_Source\PSoC5/ADC_DelSig_1.c ****              (ADC_DelSig_1_CFG3_RESOLUTION == ADC_DelSig_1__BITS_15) || \
1158:.\Generated_Source\PSoC5/ADC_DelSig_1.c ****              (ADC_DelSig_1_CFG4_RESOLUTION == ADC_DelSig_1__BITS_15) )
1159:.\Generated_Source\PSoC5/ADC_DelSig_1.c ****             case (uint8)ADC_DelSig_1__BITS_15:
1160:.\Generated_Source\PSoC5/ADC_DelSig_1.c ****                 coefA = ADC_DelSig_1_1UV_COUNTS / ADC_DelSig_1_DIVISOR_16;
1161:.\Generated_Source\PSoC5/ADC_DelSig_1.c ****                 coefB = ADC_DelSig_1_DIVISOR_16;
1162:.\Generated_Source\PSoC5/ADC_DelSig_1.c ****                 break;
1163:.\Generated_Source\PSoC5/ADC_DelSig_1.c ****         #endif /* ADC_DelSig_1__BITS_15 */    
1164:.\Generated_Source\PSoC5/ADC_DelSig_1.c ****         #if( (ADC_DelSig_1_CFG1_RESOLUTION == ADC_DelSig_1__BITS_16) || \
1165:.\Generated_Source\PSoC5/ADC_DelSig_1.c ****              (ADC_DelSig_1_CFG2_RESOLUTION == ADC_DelSig_1__BITS_16) || \
1166:.\Generated_Source\PSoC5/ADC_DelSig_1.c ****              (ADC_DelSig_1_CFG3_RESOLUTION == ADC_DelSig_1__BITS_16) || \
1167:.\Generated_Source\PSoC5/ADC_DelSig_1.c ****              (ADC_DelSig_1_CFG4_RESOLUTION == ADC_DelSig_1__BITS_16) )
1168:.\Generated_Source\PSoC5/ADC_DelSig_1.c ****             case (uint8)ADC_DelSig_1__BITS_16:
1169:.\Generated_Source\PSoC5/ADC_DelSig_1.c ****                 coefA = ADC_DelSig_1_1UV_COUNTS / ADC_DelSig_1_DIVISOR_32;
1170:.\Generated_Source\PSoC5/ADC_DelSig_1.c ****                 coefB = ADC_DelSig_1_DIVISOR_32;
1171:.\Generated_Source\PSoC5/ADC_DelSig_1.c ****                 break;
1172:.\Generated_Source\PSoC5/ADC_DelSig_1.c ****         #endif /* ADC_DelSig_1__BITS_16 */    
ARM GAS  C:\Users\HANNAL~1\AppData\Local\Temp\ccGbhEeb.s 			page 22


1173:.\Generated_Source\PSoC5/ADC_DelSig_1.c ****         #if( (ADC_DelSig_1_CFG1_RESOLUTION == ADC_DelSig_1__BITS_17) || \
1174:.\Generated_Source\PSoC5/ADC_DelSig_1.c ****              (ADC_DelSig_1_CFG2_RESOLUTION == ADC_DelSig_1__BITS_17) || \
1175:.\Generated_Source\PSoC5/ADC_DelSig_1.c ****              (ADC_DelSig_1_CFG3_RESOLUTION == ADC_DelSig_1__BITS_17) || \
1176:.\Generated_Source\PSoC5/ADC_DelSig_1.c ****              (ADC_DelSig_1_CFG4_RESOLUTION == ADC_DelSig_1__BITS_17) )
1177:.\Generated_Source\PSoC5/ADC_DelSig_1.c ****             case (uint8)ADC_DelSig_1__BITS_17:
1178:.\Generated_Source\PSoC5/ADC_DelSig_1.c ****                 coefA = ADC_DelSig_1_1UV_COUNTS / ADC_DelSig_1_DIVISOR_64;
1179:.\Generated_Source\PSoC5/ADC_DelSig_1.c ****                 coefB = ADC_DelSig_1_DIVISOR_64;
1180:.\Generated_Source\PSoC5/ADC_DelSig_1.c ****                 break;
1181:.\Generated_Source\PSoC5/ADC_DelSig_1.c ****         #endif /* ADC_DelSig_1__BITS_17 */    
1182:.\Generated_Source\PSoC5/ADC_DelSig_1.c ****         #if( (ADC_DelSig_1_CFG1_RESOLUTION == ADC_DelSig_1__BITS_18) || \
1183:.\Generated_Source\PSoC5/ADC_DelSig_1.c ****              (ADC_DelSig_1_CFG2_RESOLUTION == ADC_DelSig_1__BITS_18) || \
1184:.\Generated_Source\PSoC5/ADC_DelSig_1.c ****              (ADC_DelSig_1_CFG3_RESOLUTION == ADC_DelSig_1__BITS_18) || \
1185:.\Generated_Source\PSoC5/ADC_DelSig_1.c ****              (ADC_DelSig_1_CFG4_RESOLUTION == ADC_DelSig_1__BITS_18) )
1186:.\Generated_Source\PSoC5/ADC_DelSig_1.c ****             case (uint8)ADC_DelSig_1__BITS_18:
1187:.\Generated_Source\PSoC5/ADC_DelSig_1.c ****                 coefA = ADC_DelSig_1_1UV_COUNTS / ADC_DelSig_1_DIVISOR_125;
1188:.\Generated_Source\PSoC5/ADC_DelSig_1.c ****                 coefB = ADC_DelSig_1_DIVISOR_125;
1189:.\Generated_Source\PSoC5/ADC_DelSig_1.c ****                 break;
1190:.\Generated_Source\PSoC5/ADC_DelSig_1.c ****         #endif /* ADC_DelSig_1__BITS_18 */    
1191:.\Generated_Source\PSoC5/ADC_DelSig_1.c ****         #if( (ADC_DelSig_1_CFG1_RESOLUTION == ADC_DelSig_1__BITS_19) || \
1192:.\Generated_Source\PSoC5/ADC_DelSig_1.c ****              (ADC_DelSig_1_CFG2_RESOLUTION == ADC_DelSig_1__BITS_19) || \
1193:.\Generated_Source\PSoC5/ADC_DelSig_1.c ****              (ADC_DelSig_1_CFG3_RESOLUTION == ADC_DelSig_1__BITS_19) || \
1194:.\Generated_Source\PSoC5/ADC_DelSig_1.c ****              (ADC_DelSig_1_CFG4_RESOLUTION == ADC_DelSig_1__BITS_19) )
1195:.\Generated_Source\PSoC5/ADC_DelSig_1.c ****             case (uint8)ADC_DelSig_1__BITS_19:
1196:.\Generated_Source\PSoC5/ADC_DelSig_1.c ****                 coefA = ADC_DelSig_1_1UV_COUNTS / ADC_DelSig_1_DIVISOR_250;
1197:.\Generated_Source\PSoC5/ADC_DelSig_1.c ****                 coefB = ADC_DelSig_1_DIVISOR_250;
1198:.\Generated_Source\PSoC5/ADC_DelSig_1.c ****                 break;
1199:.\Generated_Source\PSoC5/ADC_DelSig_1.c ****         #endif /* ADC_DelSig_1__BITS_19 */    
1200:.\Generated_Source\PSoC5/ADC_DelSig_1.c ****         #if( (ADC_DelSig_1_CFG1_RESOLUTION == ADC_DelSig_1__BITS_20) || \
1201:.\Generated_Source\PSoC5/ADC_DelSig_1.c ****              (ADC_DelSig_1_CFG2_RESOLUTION == ADC_DelSig_1__BITS_20) || \
1202:.\Generated_Source\PSoC5/ADC_DelSig_1.c ****              (ADC_DelSig_1_CFG3_RESOLUTION == ADC_DelSig_1__BITS_20) || \
1203:.\Generated_Source\PSoC5/ADC_DelSig_1.c ****              (ADC_DelSig_1_CFG4_RESOLUTION == ADC_DelSig_1__BITS_20) )
1204:.\Generated_Source\PSoC5/ADC_DelSig_1.c ****             case (uint8)ADC_DelSig_1__BITS_20:
1205:.\Generated_Source\PSoC5/ADC_DelSig_1.c ****                 coefA = ADC_DelSig_1_1UV_COUNTS / ADC_DelSig_1_DIVISOR_500;
1206:.\Generated_Source\PSoC5/ADC_DelSig_1.c ****                 coefB = ADC_DelSig_1_DIVISOR_500;
1207:.\Generated_Source\PSoC5/ADC_DelSig_1.c ****                 break;
1208:.\Generated_Source\PSoC5/ADC_DelSig_1.c ****         #endif /* ADC_DelSig_1__BITS_20 */    
1209:.\Generated_Source\PSoC5/ADC_DelSig_1.c ****         default:    /* resolution < 12 */
1210:.\Generated_Source\PSoC5/ADC_DelSig_1.c ****             /* 11 bits ADC + 2^20(1048576) = 31 bits */
1211:.\Generated_Source\PSoC5/ADC_DelSig_1.c ****             coefA = ADC_DelSig_1_1UV_COUNTS;
1212:.\Generated_Source\PSoC5/ADC_DelSig_1.c ****             coefB = ADC_DelSig_1_DIVISOR_1;
1213:.\Generated_Source\PSoC5/ADC_DelSig_1.c ****             break;
1214:.\Generated_Source\PSoC5/ADC_DelSig_1.c ****     }
1215:.\Generated_Source\PSoC5/ADC_DelSig_1.c ****     coefB = ADC_DelSig_1_CountsPerVolt / coefB;
1216:.\Generated_Source\PSoC5/ADC_DelSig_1.c ****     uVolts = ((coefA * adcCounts) / coefB) - ((coefA * ADC_DelSig_1_Offset) / coefB);
1217:.\Generated_Source\PSoC5/ADC_DelSig_1.c **** 
1218:.\Generated_Source\PSoC5/ADC_DelSig_1.c ****     return( uVolts );
1219:.\Generated_Source\PSoC5/ADC_DelSig_1.c **** }
1220:.\Generated_Source\PSoC5/ADC_DelSig_1.c **** 
1221:.\Generated_Source\PSoC5/ADC_DelSig_1.c **** 
1222:.\Generated_Source\PSoC5/ADC_DelSig_1.c **** /*******************************************************************************
1223:.\Generated_Source\PSoC5/ADC_DelSig_1.c **** * Function Name: ADC_DelSig_1_InitConfig(uint8 config)
1224:.\Generated_Source\PSoC5/ADC_DelSig_1.c **** ********************************************************************************
1225:.\Generated_Source\PSoC5/ADC_DelSig_1.c **** *
1226:.\Generated_Source\PSoC5/ADC_DelSig_1.c **** * Summary:
1227:.\Generated_Source\PSoC5/ADC_DelSig_1.c **** *  Initializes all registers based on customizer settings
1228:.\Generated_Source\PSoC5/ADC_DelSig_1.c **** *
1229:.\Generated_Source\PSoC5/ADC_DelSig_1.c **** * Parameters:
ARM GAS  C:\Users\HANNAL~1\AppData\Local\Temp\ccGbhEeb.s 			page 23


1230:.\Generated_Source\PSoC5/ADC_DelSig_1.c **** *   void
1231:.\Generated_Source\PSoC5/ADC_DelSig_1.c **** *
1232:.\Generated_Source\PSoC5/ADC_DelSig_1.c **** * Return:
1233:.\Generated_Source\PSoC5/ADC_DelSig_1.c **** *  None
1234:.\Generated_Source\PSoC5/ADC_DelSig_1.c **** *
1235:.\Generated_Source\PSoC5/ADC_DelSig_1.c **** * Global variables:
1236:.\Generated_Source\PSoC5/ADC_DelSig_1.c **** *  ADC_DelSig_1_CountsPerVolt:  Used to set the default counts per volt.
1237:.\Generated_Source\PSoC5/ADC_DelSig_1.c **** *
1238:.\Generated_Source\PSoC5/ADC_DelSig_1.c **** * Side Effects: Rewrites the coherency set by ADC_DelSig_1_SetCoherency()
1239:.\Generated_Source\PSoC5/ADC_DelSig_1.c **** *   API to the default value.
1240:.\Generated_Source\PSoC5/ADC_DelSig_1.c **** *
1241:.\Generated_Source\PSoC5/ADC_DelSig_1.c **** *******************************************************************************/
1242:.\Generated_Source\PSoC5/ADC_DelSig_1.c **** static void ADC_DelSig_1_InitConfig(uint8 config) 
1243:.\Generated_Source\PSoC5/ADC_DelSig_1.c **** {
1244:.\Generated_Source\PSoC5/ADC_DelSig_1.c ****     ADC_DelSig_1_stopConversion = 0u;
1245:.\Generated_Source\PSoC5/ADC_DelSig_1.c **** 
1246:.\Generated_Source\PSoC5/ADC_DelSig_1.c ****     if (config == 1u)
1247:.\Generated_Source\PSoC5/ADC_DelSig_1.c ****     {
1248:.\Generated_Source\PSoC5/ADC_DelSig_1.c ****         /* Default Config */
1249:.\Generated_Source\PSoC5/ADC_DelSig_1.c ****         ADC_DelSig_1_DEC_CR_REG      = ADC_DelSig_1_CFG1_DEC_CR;
1250:.\Generated_Source\PSoC5/ADC_DelSig_1.c ****         ADC_DelSig_1_DEC_SHIFT1_REG  = ADC_DelSig_1_CFG1_DEC_SHIFT1;
1251:.\Generated_Source\PSoC5/ADC_DelSig_1.c ****         ADC_DelSig_1_DEC_SHIFT2_REG  = ADC_DelSig_1_CFG1_DEC_SHIFT2;
1252:.\Generated_Source\PSoC5/ADC_DelSig_1.c ****         ADC_DelSig_1_DEC_DR2_REG     = ADC_DelSig_1_CFG1_DEC_DR2;
1253:.\Generated_Source\PSoC5/ADC_DelSig_1.c ****         ADC_DelSig_1_DEC_DR2H_REG    = ADC_DelSig_1_CFG1_DEC_DR2H;
1254:.\Generated_Source\PSoC5/ADC_DelSig_1.c ****         ADC_DelSig_1_DEC_DR1_REG     = ADC_DelSig_1_CFG1_DEC_DR1;
1255:.\Generated_Source\PSoC5/ADC_DelSig_1.c ****         ADC_DelSig_1_DEC_OCOR_REG    = ADC_DelSig_1_CFG1_DEC_OCOR;
1256:.\Generated_Source\PSoC5/ADC_DelSig_1.c ****         ADC_DelSig_1_DEC_OCORM_REG   = ADC_DelSig_1_CFG1_DEC_OCORM;
1257:.\Generated_Source\PSoC5/ADC_DelSig_1.c ****         ADC_DelSig_1_DEC_OCORH_REG   = ADC_DelSig_1_CFG1_DEC_OCORH;
1258:.\Generated_Source\PSoC5/ADC_DelSig_1.c ****         ADC_DelSig_1_DEC_COHER_REG   = ADC_DelSig_1_CFG1_DEC_COHER;
1259:.\Generated_Source\PSoC5/ADC_DelSig_1.c **** 
1260:.\Generated_Source\PSoC5/ADC_DelSig_1.c ****         ADC_DelSig_1_DSM_CR4_REG     = ADC_DelSig_1_CFG1_DSM_CR4;
1261:.\Generated_Source\PSoC5/ADC_DelSig_1.c ****         ADC_DelSig_1_DSM_CR5_REG     = ADC_DelSig_1_CFG1_DSM_CR5;
1262:.\Generated_Source\PSoC5/ADC_DelSig_1.c ****         ADC_DelSig_1_DSM_CR6_REG     = ADC_DelSig_1_CFG1_DSM_CR6;
1263:.\Generated_Source\PSoC5/ADC_DelSig_1.c ****         ADC_DelSig_1_DSM_CR7_REG     = ADC_DelSig_1_CFG1_DSM_CR7;
1264:.\Generated_Source\PSoC5/ADC_DelSig_1.c ****         ADC_DelSig_1_DSM_CR10_REG    = ADC_DelSig_1_CFG1_DSM_CR10;
1265:.\Generated_Source\PSoC5/ADC_DelSig_1.c ****         ADC_DelSig_1_DSM_CR11_REG    = ADC_DelSig_1_CFG1_DSM_CR11;
1266:.\Generated_Source\PSoC5/ADC_DelSig_1.c ****         ADC_DelSig_1_DSM_CR12_REG    = ADC_DelSig_1_CFG1_DSM_CR12;
1267:.\Generated_Source\PSoC5/ADC_DelSig_1.c ****         ADC_DelSig_1_DSM_CR14_REG    = ADC_DelSig_1_CFG1_DSM_CR14;
1268:.\Generated_Source\PSoC5/ADC_DelSig_1.c ****         ADC_DelSig_1_DSM_CR15_REG    = ADC_DelSig_1_CFG1_DSM_CR15;
1269:.\Generated_Source\PSoC5/ADC_DelSig_1.c ****         ADC_DelSig_1_DSM_CR16_REG    = ADC_DelSig_1_CFG1_DSM_CR16;
1270:.\Generated_Source\PSoC5/ADC_DelSig_1.c ****         ADC_DelSig_1_DSM_CR17_REG    = ADC_DelSig_1_CFG1_DSM_CR17;
1271:.\Generated_Source\PSoC5/ADC_DelSig_1.c ****         /* Set DSM_REF0_REG by disabling and enabling the PRESS circuit */
1272:.\Generated_Source\PSoC5/ADC_DelSig_1.c ****         ADC_DelSig_1_SetDSMRef0Reg(ADC_DelSig_1_CFG1_DSM_REF0);
1273:.\Generated_Source\PSoC5/ADC_DelSig_1.c ****         ADC_DelSig_1_DSM_REF2_REG    = ADC_DelSig_1_CFG1_DSM_REF2;
1274:.\Generated_Source\PSoC5/ADC_DelSig_1.c ****         ADC_DelSig_1_DSM_REF3_REG    = ADC_DelSig_1_CFG1_DSM_REF3;
1275:.\Generated_Source\PSoC5/ADC_DelSig_1.c **** 
1276:.\Generated_Source\PSoC5/ADC_DelSig_1.c ****         ADC_DelSig_1_DSM_BUF0_REG    = ADC_DelSig_1_CFG1_DSM_BUF0;
1277:.\Generated_Source\PSoC5/ADC_DelSig_1.c ****         ADC_DelSig_1_DSM_BUF1_REG    = ADC_DelSig_1_CFG1_DSM_BUF1;
1278:.\Generated_Source\PSoC5/ADC_DelSig_1.c ****         ADC_DelSig_1_DSM_BUF2_REG    = ADC_DelSig_1_CFG1_DSM_BUF2;
1279:.\Generated_Source\PSoC5/ADC_DelSig_1.c ****         ADC_DelSig_1_DSM_BUF3_REG    = ADC_DelSig_1_CFG1_DSM_BUF3;
1280:.\Generated_Source\PSoC5/ADC_DelSig_1.c **** 
1281:.\Generated_Source\PSoC5/ADC_DelSig_1.c ****         /* To select either Vssa or Vref to -ve input of DSM depending on
1282:.\Generated_Source\PSoC5/ADC_DelSig_1.c ****         *  the input  range selected.
1283:.\Generated_Source\PSoC5/ADC_DelSig_1.c ****         */
1284:.\Generated_Source\PSoC5/ADC_DelSig_1.c ****         #if(ADC_DelSig_1_DEFAULT_INPUT_MODE)
1285:.\Generated_Source\PSoC5/ADC_DelSig_1.c ****             #if (ADC_DelSig_1_CFG1_INPUT_RANGE == ADC_DelSig_1_IR_VSSA_TO_2VREF)
1286:.\Generated_Source\PSoC5/ADC_DelSig_1.c ****                 ADC_DelSig_1_AMux_Select(1u);
ARM GAS  C:\Users\HANNAL~1\AppData\Local\Temp\ccGbhEeb.s 			page 24


1287:.\Generated_Source\PSoC5/ADC_DelSig_1.c ****             #else
1288:.\Generated_Source\PSoC5/ADC_DelSig_1.c ****                 ADC_DelSig_1_AMux_Select(0u);
1289:.\Generated_Source\PSoC5/ADC_DelSig_1.c ****             #endif /* ADC_DelSig_1_IR_VSSA_TO_2VREF) */
1290:.\Generated_Source\PSoC5/ADC_DelSig_1.c ****         #endif /* ADC_DelSig_1_DEFAULT_INPUT_MODE */
1291:.\Generated_Source\PSoC5/ADC_DelSig_1.c **** 
1292:.\Generated_Source\PSoC5/ADC_DelSig_1.c ****         /* Set the Conversion stop if resolution is above 16 bit and conversion
1293:.\Generated_Source\PSoC5/ADC_DelSig_1.c ****         *   mode is Single sample
1294:.\Generated_Source\PSoC5/ADC_DelSig_1.c ****         */
1295:.\Generated_Source\PSoC5/ADC_DelSig_1.c ****         #if(ADC_DelSig_1_CFG1_RESOLUTION > 16 && \
1296:.\Generated_Source\PSoC5/ADC_DelSig_1.c ****             ADC_DelSig_1_CFG1_CONV_MODE == ADC_DelSig_1_MODE_SINGLE_SAMPLE)
1297:.\Generated_Source\PSoC5/ADC_DelSig_1.c ****             ADC_DelSig_1_stopConversion = 1u;
1298:.\Generated_Source\PSoC5/ADC_DelSig_1.c ****         #endif /* Single sample with resolution above 16 bits. */
1299:.\Generated_Source\PSoC5/ADC_DelSig_1.c **** 
1300:.\Generated_Source\PSoC5/ADC_DelSig_1.c ****         ADC_DelSig_1_CountsPerVolt = (int32)ADC_DelSig_1_CFG1_COUNTS_PER_VOLT;
1301:.\Generated_Source\PSoC5/ADC_DelSig_1.c **** 
1302:.\Generated_Source\PSoC5/ADC_DelSig_1.c ****         ADC_DelSig_1_Ext_CP_Clk_SetDividerRegister(ADC_DelSig_1_CFG1_CP_CLK_DIVIDER, 1u);
1303:.\Generated_Source\PSoC5/ADC_DelSig_1.c **** 
1304:.\Generated_Source\PSoC5/ADC_DelSig_1.c ****         /* This is only valid if there is an internal clock */
1305:.\Generated_Source\PSoC5/ADC_DelSig_1.c ****         #if(ADC_DelSig_1_DEFAULT_INTERNAL_CLK)
1306:.\Generated_Source\PSoC5/ADC_DelSig_1.c ****             ADC_DelSig_1_theACLK_SetDividerRegister(ADC_DelSig_1_CFG1_ADC_CLK_DIVIDER, 1u);
1307:.\Generated_Source\PSoC5/ADC_DelSig_1.c ****         #endif /* ADC_DelSig_1_DEFAULT_INTERNAL_CLK */
1308:.\Generated_Source\PSoC5/ADC_DelSig_1.c **** 
1309:.\Generated_Source\PSoC5/ADC_DelSig_1.c ****         #if(ADC_DelSig_1_IRQ_REMOVE == 0u)
1310:.\Generated_Source\PSoC5/ADC_DelSig_1.c ****             /* Set interrupt vector */
1311:.\Generated_Source\PSoC5/ADC_DelSig_1.c ****             (void)CyIntSetVector(ADC_DelSig_1_INTC_NUMBER, &ADC_DelSig_1_ISR1);
1312:.\Generated_Source\PSoC5/ADC_DelSig_1.c ****         #endif   /* End ADC_DelSig_1_IRQ_REMOVE */
1313:.\Generated_Source\PSoC5/ADC_DelSig_1.c ****     }
1314:.\Generated_Source\PSoC5/ADC_DelSig_1.c **** 
1315:.\Generated_Source\PSoC5/ADC_DelSig_1.c ****     #if(ADC_DelSig_1_DEFAULT_NUM_CONFIGS > 1)
1316:.\Generated_Source\PSoC5/ADC_DelSig_1.c ****         if(config == 2u)
1317:.\Generated_Source\PSoC5/ADC_DelSig_1.c ****         {
1318:.\Generated_Source\PSoC5/ADC_DelSig_1.c ****             /* Second Config */
1319:.\Generated_Source\PSoC5/ADC_DelSig_1.c ****             ADC_DelSig_1_DEC_CR_REG      = ADC_DelSig_1_CFG2_DEC_CR;
1320:.\Generated_Source\PSoC5/ADC_DelSig_1.c ****             ADC_DelSig_1_DEC_SHIFT1_REG  = ADC_DelSig_1_CFG2_DEC_SHIFT1;
1321:.\Generated_Source\PSoC5/ADC_DelSig_1.c ****             ADC_DelSig_1_DEC_SHIFT2_REG  = ADC_DelSig_1_CFG2_DEC_SHIFT2;
1322:.\Generated_Source\PSoC5/ADC_DelSig_1.c ****             ADC_DelSig_1_DEC_DR2_REG     = ADC_DelSig_1_CFG2_DEC_DR2;
1323:.\Generated_Source\PSoC5/ADC_DelSig_1.c ****             ADC_DelSig_1_DEC_DR2H_REG    = ADC_DelSig_1_CFG2_DEC_DR2H;
1324:.\Generated_Source\PSoC5/ADC_DelSig_1.c ****             ADC_DelSig_1_DEC_DR1_REG     = ADC_DelSig_1_CFG2_DEC_DR1;
1325:.\Generated_Source\PSoC5/ADC_DelSig_1.c ****             ADC_DelSig_1_DEC_OCOR_REG    = ADC_DelSig_1_CFG2_DEC_OCOR;
1326:.\Generated_Source\PSoC5/ADC_DelSig_1.c ****             ADC_DelSig_1_DEC_OCORM_REG   = ADC_DelSig_1_CFG2_DEC_OCORM;
1327:.\Generated_Source\PSoC5/ADC_DelSig_1.c ****             ADC_DelSig_1_DEC_OCORH_REG   = ADC_DelSig_1_CFG2_DEC_OCORH;
1328:.\Generated_Source\PSoC5/ADC_DelSig_1.c ****             ADC_DelSig_1_DEC_COHER_REG   = ADC_DelSig_1_CFG2_DEC_COHER;
1329:.\Generated_Source\PSoC5/ADC_DelSig_1.c **** 
1330:.\Generated_Source\PSoC5/ADC_DelSig_1.c ****             ADC_DelSig_1_DSM_CR4_REG     = ADC_DelSig_1_CFG2_DSM_CR4;
1331:.\Generated_Source\PSoC5/ADC_DelSig_1.c ****             ADC_DelSig_1_DSM_CR5_REG     = ADC_DelSig_1_CFG2_DSM_CR5;
1332:.\Generated_Source\PSoC5/ADC_DelSig_1.c ****             ADC_DelSig_1_DSM_CR6_REG     = ADC_DelSig_1_CFG2_DSM_CR6;
1333:.\Generated_Source\PSoC5/ADC_DelSig_1.c ****             ADC_DelSig_1_DSM_CR7_REG     = ADC_DelSig_1_CFG2_DSM_CR7;
1334:.\Generated_Source\PSoC5/ADC_DelSig_1.c ****             ADC_DelSig_1_DSM_CR10_REG    = ADC_DelSig_1_CFG2_DSM_CR10;
1335:.\Generated_Source\PSoC5/ADC_DelSig_1.c ****             ADC_DelSig_1_DSM_CR11_REG    = ADC_DelSig_1_CFG2_DSM_CR11;
1336:.\Generated_Source\PSoC5/ADC_DelSig_1.c ****             ADC_DelSig_1_DSM_CR12_REG    = ADC_DelSig_1_CFG2_DSM_CR12;
1337:.\Generated_Source\PSoC5/ADC_DelSig_1.c ****             ADC_DelSig_1_DSM_CR14_REG    = ADC_DelSig_1_CFG2_DSM_CR14;
1338:.\Generated_Source\PSoC5/ADC_DelSig_1.c ****             ADC_DelSig_1_DSM_CR15_REG    = ADC_DelSig_1_CFG2_DSM_CR15;
1339:.\Generated_Source\PSoC5/ADC_DelSig_1.c ****             ADC_DelSig_1_DSM_CR16_REG    = ADC_DelSig_1_CFG2_DSM_CR16;
1340:.\Generated_Source\PSoC5/ADC_DelSig_1.c ****             ADC_DelSig_1_DSM_CR17_REG    = ADC_DelSig_1_CFG2_DSM_CR17;
1341:.\Generated_Source\PSoC5/ADC_DelSig_1.c ****             /* Set DSM_REF0_REG by disabling and enabling the PRESS cirucit */
1342:.\Generated_Source\PSoC5/ADC_DelSig_1.c ****             ADC_DelSig_1_SetDSMRef0Reg(ADC_DelSig_1_CFG2_DSM_REF0);
1343:.\Generated_Source\PSoC5/ADC_DelSig_1.c ****             ADC_DelSig_1_DSM_REF2_REG    = ADC_DelSig_1_CFG2_DSM_REF2;
ARM GAS  C:\Users\HANNAL~1\AppData\Local\Temp\ccGbhEeb.s 			page 25


1344:.\Generated_Source\PSoC5/ADC_DelSig_1.c ****             ADC_DelSig_1_DSM_REF3_REG    = ADC_DelSig_1_CFG2_DSM_REF3;
1345:.\Generated_Source\PSoC5/ADC_DelSig_1.c **** 
1346:.\Generated_Source\PSoC5/ADC_DelSig_1.c ****             ADC_DelSig_1_DSM_BUF0_REG    = ADC_DelSig_1_CFG2_DSM_BUF0;
1347:.\Generated_Source\PSoC5/ADC_DelSig_1.c ****             ADC_DelSig_1_DSM_BUF1_REG    = ADC_DelSig_1_CFG2_DSM_BUF1;
1348:.\Generated_Source\PSoC5/ADC_DelSig_1.c ****             ADC_DelSig_1_DSM_BUF2_REG    = ADC_DelSig_1_CFG2_DSM_BUF2;
1349:.\Generated_Source\PSoC5/ADC_DelSig_1.c ****             ADC_DelSig_1_DSM_BUF3_REG    = ADC_DelSig_1_CFG2_DSM_BUF3;
1350:.\Generated_Source\PSoC5/ADC_DelSig_1.c **** 
1351:.\Generated_Source\PSoC5/ADC_DelSig_1.c ****             /* To select either Vssa or Vref to -ve input of DSM depending on
1352:.\Generated_Source\PSoC5/ADC_DelSig_1.c ****             *  the input range selected.
1353:.\Generated_Source\PSoC5/ADC_DelSig_1.c ****             */
1354:.\Generated_Source\PSoC5/ADC_DelSig_1.c **** 
1355:.\Generated_Source\PSoC5/ADC_DelSig_1.c ****             #if(ADC_DelSig_1_DEFAULT_INPUT_MODE)
1356:.\Generated_Source\PSoC5/ADC_DelSig_1.c ****                 #if (ADC_DelSig_1_CFG2_INPUT_RANGE == ADC_DelSig_1_IR_VSSA_TO_2VREF)
1357:.\Generated_Source\PSoC5/ADC_DelSig_1.c ****                     ADC_DelSig_1_AMux_Select(1u);
1358:.\Generated_Source\PSoC5/ADC_DelSig_1.c ****                 #else
1359:.\Generated_Source\PSoC5/ADC_DelSig_1.c ****                     ADC_DelSig_1_AMux_Select(0u);
1360:.\Generated_Source\PSoC5/ADC_DelSig_1.c ****                 #endif /* ADC_DelSig_1_IR_VSSA_TO_2VREF) */
1361:.\Generated_Source\PSoC5/ADC_DelSig_1.c ****             #endif /* ADC_DelSig_1_DEFAULT_INPUT_MODE */
1362:.\Generated_Source\PSoC5/ADC_DelSig_1.c **** 
1363:.\Generated_Source\PSoC5/ADC_DelSig_1.c ****             /* Set the Conversion stop if resolution is above 16 bit and
1364:.\Generated_Source\PSoC5/ADC_DelSig_1.c ****             *   conversion mode is Single sample
1365:.\Generated_Source\PSoC5/ADC_DelSig_1.c ****             */
1366:.\Generated_Source\PSoC5/ADC_DelSig_1.c ****             #if(ADC_DelSig_1_CFG2_RESOLUTION > 16 && \
1367:.\Generated_Source\PSoC5/ADC_DelSig_1.c ****                 ADC_DelSig_1_CFG2_CONV_MODE == ADC_DelSig_1_MODE_SINGLE_SAMPLE)
1368:.\Generated_Source\PSoC5/ADC_DelSig_1.c ****                 ADC_DelSig_1_stopConversion = 1u;
1369:.\Generated_Source\PSoC5/ADC_DelSig_1.c ****             #endif /* Single sample with resolution above 16 bits. */
1370:.\Generated_Source\PSoC5/ADC_DelSig_1.c **** 
1371:.\Generated_Source\PSoC5/ADC_DelSig_1.c ****             ADC_DelSig_1_CountsPerVolt = (int32)ADC_DelSig_1_CFG2_COUNTS_PER_VOLT;
1372:.\Generated_Source\PSoC5/ADC_DelSig_1.c **** 
1373:.\Generated_Source\PSoC5/ADC_DelSig_1.c ****             ADC_DelSig_1_Ext_CP_Clk_SetDividerRegister(ADC_DelSig_1_CFG2_CP_CLK_DIVIDER, 1u);
1374:.\Generated_Source\PSoC5/ADC_DelSig_1.c **** 
1375:.\Generated_Source\PSoC5/ADC_DelSig_1.c ****             /* This is only valid if there is an internal clock */
1376:.\Generated_Source\PSoC5/ADC_DelSig_1.c ****             #if(ADC_DelSig_1_DEFAULT_INTERNAL_CLK)
1377:.\Generated_Source\PSoC5/ADC_DelSig_1.c ****                 ADC_DelSig_1_theACLK_SetDividerRegister(ADC_DelSig_1_CFG2_ADC_CLK_DIVIDER, 1u);
1378:.\Generated_Source\PSoC5/ADC_DelSig_1.c ****             #endif /* ADC_DelSig_1_DEFAULT_INTERNAL_CLK */
1379:.\Generated_Source\PSoC5/ADC_DelSig_1.c **** 
1380:.\Generated_Source\PSoC5/ADC_DelSig_1.c ****             #if(ADC_DelSig_1_IRQ_REMOVE == 0u)
1381:.\Generated_Source\PSoC5/ADC_DelSig_1.c ****                 /* Set interrupt vector */
1382:.\Generated_Source\PSoC5/ADC_DelSig_1.c ****                 (void)CyIntSetVector(ADC_DelSig_1_INTC_NUMBER, &ADC_DelSig_1_ISR2);
1383:.\Generated_Source\PSoC5/ADC_DelSig_1.c ****             #endif   /* End ADC_DelSig_1_IRQ_REMOVE */
1384:.\Generated_Source\PSoC5/ADC_DelSig_1.c ****         }
1385:.\Generated_Source\PSoC5/ADC_DelSig_1.c ****     #endif /* ADC_DelSig_1_DEFAULT_NUM_CONFIGS > 1 */
1386:.\Generated_Source\PSoC5/ADC_DelSig_1.c **** 
1387:.\Generated_Source\PSoC5/ADC_DelSig_1.c ****     #if(ADC_DelSig_1_DEFAULT_NUM_CONFIGS > 2)
1388:.\Generated_Source\PSoC5/ADC_DelSig_1.c ****         if(config == 3u)
1389:.\Generated_Source\PSoC5/ADC_DelSig_1.c ****         {
1390:.\Generated_Source\PSoC5/ADC_DelSig_1.c ****             /* Third Config */
1391:.\Generated_Source\PSoC5/ADC_DelSig_1.c ****             ADC_DelSig_1_DEC_CR_REG      = ADC_DelSig_1_CFG3_DEC_CR;
1392:.\Generated_Source\PSoC5/ADC_DelSig_1.c ****             ADC_DelSig_1_DEC_SHIFT1_REG  = ADC_DelSig_1_CFG3_DEC_SHIFT1;
1393:.\Generated_Source\PSoC5/ADC_DelSig_1.c ****             ADC_DelSig_1_DEC_SHIFT2_REG  = ADC_DelSig_1_CFG3_DEC_SHIFT2;
1394:.\Generated_Source\PSoC5/ADC_DelSig_1.c ****             ADC_DelSig_1_DEC_DR2_REG     = ADC_DelSig_1_CFG3_DEC_DR2;
1395:.\Generated_Source\PSoC5/ADC_DelSig_1.c ****             ADC_DelSig_1_DEC_DR2H_REG    = ADC_DelSig_1_CFG3_DEC_DR2H;
1396:.\Generated_Source\PSoC5/ADC_DelSig_1.c ****             ADC_DelSig_1_DEC_DR1_REG     = ADC_DelSig_1_CFG3_DEC_DR1;
1397:.\Generated_Source\PSoC5/ADC_DelSig_1.c ****             ADC_DelSig_1_DEC_OCOR_REG    = ADC_DelSig_1_CFG3_DEC_OCOR;
1398:.\Generated_Source\PSoC5/ADC_DelSig_1.c ****             ADC_DelSig_1_DEC_OCORM_REG   = ADC_DelSig_1_CFG3_DEC_OCORM;
1399:.\Generated_Source\PSoC5/ADC_DelSig_1.c ****             ADC_DelSig_1_DEC_OCORH_REG   = ADC_DelSig_1_CFG3_DEC_OCORH;
1400:.\Generated_Source\PSoC5/ADC_DelSig_1.c ****             ADC_DelSig_1_DEC_COHER_REG   = ADC_DelSig_1_CFG3_DEC_COHER;
ARM GAS  C:\Users\HANNAL~1\AppData\Local\Temp\ccGbhEeb.s 			page 26


1401:.\Generated_Source\PSoC5/ADC_DelSig_1.c **** 
1402:.\Generated_Source\PSoC5/ADC_DelSig_1.c ****             ADC_DelSig_1_DSM_CR4_REG     = ADC_DelSig_1_CFG3_DSM_CR4;
1403:.\Generated_Source\PSoC5/ADC_DelSig_1.c ****             ADC_DelSig_1_DSM_CR5_REG     = ADC_DelSig_1_CFG3_DSM_CR5;
1404:.\Generated_Source\PSoC5/ADC_DelSig_1.c ****             ADC_DelSig_1_DSM_CR6_REG     = ADC_DelSig_1_CFG3_DSM_CR6;
1405:.\Generated_Source\PSoC5/ADC_DelSig_1.c ****             ADC_DelSig_1_DSM_CR7_REG     = ADC_DelSig_1_CFG3_DSM_CR7;
1406:.\Generated_Source\PSoC5/ADC_DelSig_1.c ****             ADC_DelSig_1_DSM_CR10_REG    = ADC_DelSig_1_CFG3_DSM_CR10;
1407:.\Generated_Source\PSoC5/ADC_DelSig_1.c ****             ADC_DelSig_1_DSM_CR11_REG    = ADC_DelSig_1_CFG3_DSM_CR11;
1408:.\Generated_Source\PSoC5/ADC_DelSig_1.c ****             ADC_DelSig_1_DSM_CR12_REG    = ADC_DelSig_1_CFG3_DSM_CR12;
1409:.\Generated_Source\PSoC5/ADC_DelSig_1.c ****             ADC_DelSig_1_DSM_CR14_REG    = ADC_DelSig_1_CFG3_DSM_CR14;
1410:.\Generated_Source\PSoC5/ADC_DelSig_1.c ****             ADC_DelSig_1_DSM_CR15_REG    = ADC_DelSig_1_CFG3_DSM_CR15;
1411:.\Generated_Source\PSoC5/ADC_DelSig_1.c ****             ADC_DelSig_1_DSM_CR16_REG    = ADC_DelSig_1_CFG3_DSM_CR16;
1412:.\Generated_Source\PSoC5/ADC_DelSig_1.c ****             ADC_DelSig_1_DSM_CR17_REG    = ADC_DelSig_1_CFG3_DSM_CR17;
1413:.\Generated_Source\PSoC5/ADC_DelSig_1.c ****             /* Set DSM_REF0_REG by disabling and enabling the PRESS circuit */
1414:.\Generated_Source\PSoC5/ADC_DelSig_1.c ****             ADC_DelSig_1_SetDSMRef0Reg(ADC_DelSig_1_CFG3_DSM_REF0);
1415:.\Generated_Source\PSoC5/ADC_DelSig_1.c ****             ADC_DelSig_1_DSM_REF2_REG    = ADC_DelSig_1_CFG3_DSM_REF2;
1416:.\Generated_Source\PSoC5/ADC_DelSig_1.c ****             ADC_DelSig_1_DSM_REF3_REG    = ADC_DelSig_1_CFG3_DSM_REF3;
1417:.\Generated_Source\PSoC5/ADC_DelSig_1.c **** 
1418:.\Generated_Source\PSoC5/ADC_DelSig_1.c ****             ADC_DelSig_1_DSM_BUF0_REG    = ADC_DelSig_1_CFG3_DSM_BUF0;
1419:.\Generated_Source\PSoC5/ADC_DelSig_1.c ****             ADC_DelSig_1_DSM_BUF1_REG    = ADC_DelSig_1_CFG3_DSM_BUF1;
1420:.\Generated_Source\PSoC5/ADC_DelSig_1.c ****             ADC_DelSig_1_DSM_BUF2_REG    = ADC_DelSig_1_CFG3_DSM_BUF2;
1421:.\Generated_Source\PSoC5/ADC_DelSig_1.c ****             ADC_DelSig_1_DSM_BUF3_REG    = ADC_DelSig_1_CFG3_DSM_BUF3;
1422:.\Generated_Source\PSoC5/ADC_DelSig_1.c **** 
1423:.\Generated_Source\PSoC5/ADC_DelSig_1.c ****             /* To select either Vssa or Vref to -ve input of DSM depending on
1424:.\Generated_Source\PSoC5/ADC_DelSig_1.c ****             *  the input range selected.
1425:.\Generated_Source\PSoC5/ADC_DelSig_1.c ****             */
1426:.\Generated_Source\PSoC5/ADC_DelSig_1.c ****             #if(ADC_DelSig_1_DEFAULT_INPUT_MODE)
1427:.\Generated_Source\PSoC5/ADC_DelSig_1.c ****                 #if (ADC_DelSig_1_CFG3_INPUT_RANGE == ADC_DelSig_1_IR_VSSA_TO_2VREF)
1428:.\Generated_Source\PSoC5/ADC_DelSig_1.c ****                     ADC_DelSig_1_AMux_Select(1u);
1429:.\Generated_Source\PSoC5/ADC_DelSig_1.c ****                 #else
1430:.\Generated_Source\PSoC5/ADC_DelSig_1.c ****                     ADC_DelSig_1_AMux_Select(0u);
1431:.\Generated_Source\PSoC5/ADC_DelSig_1.c ****                 #endif /* ADC_DelSig_1_IR_VSSA_TO_2VREF) */
1432:.\Generated_Source\PSoC5/ADC_DelSig_1.c ****             #endif /* ADC_DelSig_1_DEFAULT_INPUT_MODE */
1433:.\Generated_Source\PSoC5/ADC_DelSig_1.c **** 
1434:.\Generated_Source\PSoC5/ADC_DelSig_1.c ****             /* Set the Conversion stop if resolution is above 16 bit and
1435:.\Generated_Source\PSoC5/ADC_DelSig_1.c ****                conversion  mode is Single sample */
1436:.\Generated_Source\PSoC5/ADC_DelSig_1.c ****             #if(ADC_DelSig_1_CFG3_RESOLUTION > 16 && \
1437:.\Generated_Source\PSoC5/ADC_DelSig_1.c ****                 ADC_DelSig_1_CFG3_CONV_MODE == ADC_DelSig_1_MODE_SINGLE_SAMPLE)
1438:.\Generated_Source\PSoC5/ADC_DelSig_1.c ****                 ADC_DelSig_1_stopConversion = 1u;
1439:.\Generated_Source\PSoC5/ADC_DelSig_1.c ****             #endif /* Single sample with resolution above 16 bits */
1440:.\Generated_Source\PSoC5/ADC_DelSig_1.c **** 
1441:.\Generated_Source\PSoC5/ADC_DelSig_1.c ****             ADC_DelSig_1_CountsPerVolt = (int32)ADC_DelSig_1_CFG3_COUNTS_PER_VOLT;
1442:.\Generated_Source\PSoC5/ADC_DelSig_1.c **** 
1443:.\Generated_Source\PSoC5/ADC_DelSig_1.c ****             ADC_DelSig_1_Ext_CP_Clk_SetDividerRegister(ADC_DelSig_1_CFG3_CP_CLK_DIVIDER, 1u);
1444:.\Generated_Source\PSoC5/ADC_DelSig_1.c **** 
1445:.\Generated_Source\PSoC5/ADC_DelSig_1.c ****             /* This is only valid if there is an internal clock */
1446:.\Generated_Source\PSoC5/ADC_DelSig_1.c ****             #if(ADC_DelSig_1_DEFAULT_INTERNAL_CLK)
1447:.\Generated_Source\PSoC5/ADC_DelSig_1.c ****                 ADC_DelSig_1_theACLK_SetDividerRegister(ADC_DelSig_1_CFG3_ADC_CLK_DIVIDER, 1u);
1448:.\Generated_Source\PSoC5/ADC_DelSig_1.c ****             #endif /* ADC_DelSig_1_DEFAULT_INTERNAL_CLK */
1449:.\Generated_Source\PSoC5/ADC_DelSig_1.c **** 
1450:.\Generated_Source\PSoC5/ADC_DelSig_1.c ****             #if(ADC_DelSig_1_IRQ_REMOVE == 0u)
1451:.\Generated_Source\PSoC5/ADC_DelSig_1.c ****                 /* Set interrupt vector */
1452:.\Generated_Source\PSoC5/ADC_DelSig_1.c ****                 (void)CyIntSetVector(ADC_DelSig_1_INTC_NUMBER, &ADC_DelSig_1_ISR3);
1453:.\Generated_Source\PSoC5/ADC_DelSig_1.c ****             #endif   /* End ADC_DelSig_1_IRQ_REMOVE */
1454:.\Generated_Source\PSoC5/ADC_DelSig_1.c ****         }
1455:.\Generated_Source\PSoC5/ADC_DelSig_1.c ****     #endif /* ADC_DelSig_1_DEFAULT_NUM_CONFIGS > 2 */
1456:.\Generated_Source\PSoC5/ADC_DelSig_1.c **** 
1457:.\Generated_Source\PSoC5/ADC_DelSig_1.c ****     #if(ADC_DelSig_1_DEFAULT_NUM_CONFIGS > 3)
ARM GAS  C:\Users\HANNAL~1\AppData\Local\Temp\ccGbhEeb.s 			page 27


1458:.\Generated_Source\PSoC5/ADC_DelSig_1.c ****         if (config == 4u)
1459:.\Generated_Source\PSoC5/ADC_DelSig_1.c ****         {
1460:.\Generated_Source\PSoC5/ADC_DelSig_1.c ****             /* Fourth Config */
1461:.\Generated_Source\PSoC5/ADC_DelSig_1.c ****             ADC_DelSig_1_DEC_CR_REG      = ADC_DelSig_1_CFG4_DEC_CR;
1462:.\Generated_Source\PSoC5/ADC_DelSig_1.c ****             ADC_DelSig_1_DEC_SHIFT1_REG  = ADC_DelSig_1_CFG4_DEC_SHIFT1;
1463:.\Generated_Source\PSoC5/ADC_DelSig_1.c ****             ADC_DelSig_1_DEC_SHIFT2_REG  = ADC_DelSig_1_CFG4_DEC_SHIFT2;
1464:.\Generated_Source\PSoC5/ADC_DelSig_1.c ****             ADC_DelSig_1_DEC_DR2_REG     = ADC_DelSig_1_CFG4_DEC_DR2;
1465:.\Generated_Source\PSoC5/ADC_DelSig_1.c ****             ADC_DelSig_1_DEC_DR2H_REG    = ADC_DelSig_1_CFG4_DEC_DR2H;
1466:.\Generated_Source\PSoC5/ADC_DelSig_1.c ****             ADC_DelSig_1_DEC_DR1_REG     = ADC_DelSig_1_CFG4_DEC_DR1;
1467:.\Generated_Source\PSoC5/ADC_DelSig_1.c ****             ADC_DelSig_1_DEC_OCOR_REG    = ADC_DelSig_1_CFG4_DEC_OCOR;
1468:.\Generated_Source\PSoC5/ADC_DelSig_1.c ****             ADC_DelSig_1_DEC_OCORM_REG   = ADC_DelSig_1_CFG4_DEC_OCORM;
1469:.\Generated_Source\PSoC5/ADC_DelSig_1.c ****             ADC_DelSig_1_DEC_OCORH_REG   = ADC_DelSig_1_CFG4_DEC_OCORH;
1470:.\Generated_Source\PSoC5/ADC_DelSig_1.c ****             ADC_DelSig_1_DEC_COHER_REG   = ADC_DelSig_1_CFG4_DEC_COHER;
1471:.\Generated_Source\PSoC5/ADC_DelSig_1.c **** 
1472:.\Generated_Source\PSoC5/ADC_DelSig_1.c ****             ADC_DelSig_1_DSM_CR4_REG     = ADC_DelSig_1_CFG4_DSM_CR4;
1473:.\Generated_Source\PSoC5/ADC_DelSig_1.c ****             ADC_DelSig_1_DSM_CR5_REG     = ADC_DelSig_1_CFG4_DSM_CR5;
1474:.\Generated_Source\PSoC5/ADC_DelSig_1.c ****             ADC_DelSig_1_DSM_CR6_REG     = ADC_DelSig_1_CFG4_DSM_CR6;
1475:.\Generated_Source\PSoC5/ADC_DelSig_1.c ****             ADC_DelSig_1_DSM_CR7_REG     = ADC_DelSig_1_CFG4_DSM_CR7;
1476:.\Generated_Source\PSoC5/ADC_DelSig_1.c ****             ADC_DelSig_1_DSM_CR10_REG    = ADC_DelSig_1_CFG4_DSM_CR10;
1477:.\Generated_Source\PSoC5/ADC_DelSig_1.c ****             ADC_DelSig_1_DSM_CR11_REG    = ADC_DelSig_1_CFG4_DSM_CR11;
1478:.\Generated_Source\PSoC5/ADC_DelSig_1.c ****             ADC_DelSig_1_DSM_CR12_REG    = ADC_DelSig_1_CFG4_DSM_CR12;
1479:.\Generated_Source\PSoC5/ADC_DelSig_1.c ****             ADC_DelSig_1_DSM_CR14_REG    = ADC_DelSig_1_CFG4_DSM_CR14;
1480:.\Generated_Source\PSoC5/ADC_DelSig_1.c ****             ADC_DelSig_1_DSM_CR15_REG    = ADC_DelSig_1_CFG4_DSM_CR15;
1481:.\Generated_Source\PSoC5/ADC_DelSig_1.c ****             ADC_DelSig_1_DSM_CR16_REG    = ADC_DelSig_1_CFG4_DSM_CR16;
1482:.\Generated_Source\PSoC5/ADC_DelSig_1.c ****             ADC_DelSig_1_DSM_CR17_REG    = ADC_DelSig_1_CFG4_DSM_CR17;
1483:.\Generated_Source\PSoC5/ADC_DelSig_1.c ****             /* Set DSM_REF0_REG by disabling and enabling the PRESS circuit */
1484:.\Generated_Source\PSoC5/ADC_DelSig_1.c ****             ADC_DelSig_1_SetDSMRef0Reg(ADC_DelSig_1_CFG4_DSM_REF0);
1485:.\Generated_Source\PSoC5/ADC_DelSig_1.c ****             ADC_DelSig_1_DSM_REF2_REG    = ADC_DelSig_1_CFG4_DSM_REF2;
1486:.\Generated_Source\PSoC5/ADC_DelSig_1.c ****             ADC_DelSig_1_DSM_REF3_REG    = ADC_DelSig_1_CFG4_DSM_REF3;
1487:.\Generated_Source\PSoC5/ADC_DelSig_1.c **** 
1488:.\Generated_Source\PSoC5/ADC_DelSig_1.c ****             ADC_DelSig_1_DSM_BUF0_REG    = ADC_DelSig_1_CFG4_DSM_BUF0;
1489:.\Generated_Source\PSoC5/ADC_DelSig_1.c ****             ADC_DelSig_1_DSM_BUF1_REG    = ADC_DelSig_1_CFG4_DSM_BUF1;
1490:.\Generated_Source\PSoC5/ADC_DelSig_1.c ****             ADC_DelSig_1_DSM_BUF2_REG    = ADC_DelSig_1_CFG4_DSM_BUF2;
1491:.\Generated_Source\PSoC5/ADC_DelSig_1.c ****             ADC_DelSig_1_DSM_BUF3_REG    = ADC_DelSig_1_CFG4_DSM_BUF3;
1492:.\Generated_Source\PSoC5/ADC_DelSig_1.c **** 
1493:.\Generated_Source\PSoC5/ADC_DelSig_1.c ****             /* To select either Vssa or Vref to -ve input of DSM depending on
1494:.\Generated_Source\PSoC5/ADC_DelSig_1.c ****             *  the input range selected.
1495:.\Generated_Source\PSoC5/ADC_DelSig_1.c ****             */
1496:.\Generated_Source\PSoC5/ADC_DelSig_1.c ****             #if(ADC_DelSig_1_DEFAULT_INPUT_MODE)
1497:.\Generated_Source\PSoC5/ADC_DelSig_1.c ****                 #if (ADC_DelSig_1_CFG4_INPUT_RANGE == ADC_DelSig_1_IR_VSSA_TO_2VREF)
1498:.\Generated_Source\PSoC5/ADC_DelSig_1.c ****                     ADC_DelSig_1_AMux_Select(1u);
1499:.\Generated_Source\PSoC5/ADC_DelSig_1.c ****                 #else
1500:.\Generated_Source\PSoC5/ADC_DelSig_1.c ****                     ADC_DelSig_1_AMux_Select(0u);
1501:.\Generated_Source\PSoC5/ADC_DelSig_1.c ****                 #endif /* ADC_DelSig_1_IR_VSSA_TO_2VREF) */
1502:.\Generated_Source\PSoC5/ADC_DelSig_1.c ****             #endif /* ADC_DelSig_1_DEFAULT_INPUT_MODE */
1503:.\Generated_Source\PSoC5/ADC_DelSig_1.c **** 
1504:.\Generated_Source\PSoC5/ADC_DelSig_1.c ****             /* Set the Conversion stop if resolution is above 16 bit and
1505:.\Generated_Source\PSoC5/ADC_DelSig_1.c ****                conversion mode is Single sample */
1506:.\Generated_Source\PSoC5/ADC_DelSig_1.c ****             #if(ADC_DelSig_1_CFG4_RESOLUTION > 16 && \
1507:.\Generated_Source\PSoC5/ADC_DelSig_1.c ****                 ADC_DelSig_1_CFG4_CONV_MODE == ADC_DelSig_1_MODE_SINGLE_SAMPLE)
1508:.\Generated_Source\PSoC5/ADC_DelSig_1.c ****                 ADC_DelSig_1_stopConversion = 1u;
1509:.\Generated_Source\PSoC5/ADC_DelSig_1.c ****             #endif /* Single sample with resolution above 16 bits */
1510:.\Generated_Source\PSoC5/ADC_DelSig_1.c **** 
1511:.\Generated_Source\PSoC5/ADC_DelSig_1.c ****             ADC_DelSig_1_CountsPerVolt = (int32)ADC_DelSig_1_CFG4_COUNTS_PER_VOLT;
1512:.\Generated_Source\PSoC5/ADC_DelSig_1.c **** 
1513:.\Generated_Source\PSoC5/ADC_DelSig_1.c ****             ADC_DelSig_1_Ext_CP_Clk_SetDividerRegister(ADC_DelSig_1_CFG4_CP_CLK_DIVIDER, 1u);
1514:.\Generated_Source\PSoC5/ADC_DelSig_1.c **** 
ARM GAS  C:\Users\HANNAL~1\AppData\Local\Temp\ccGbhEeb.s 			page 28


1515:.\Generated_Source\PSoC5/ADC_DelSig_1.c ****             /* This is only valid if there is an internal clock */
1516:.\Generated_Source\PSoC5/ADC_DelSig_1.c ****             #if(ADC_DelSig_1_DEFAULT_INTERNAL_CLK)
1517:.\Generated_Source\PSoC5/ADC_DelSig_1.c ****                 ADC_DelSig_1_theACLK_SetDividerRegister(ADC_DelSig_1_CFG4_ADC_CLK_DIVIDER, 1u);
1518:.\Generated_Source\PSoC5/ADC_DelSig_1.c ****             #endif /* ADC_DelSig_1_DEFAULT_INTERNAL_CLK */
1519:.\Generated_Source\PSoC5/ADC_DelSig_1.c **** 
1520:.\Generated_Source\PSoC5/ADC_DelSig_1.c ****             #if(ADC_DelSig_1_IRQ_REMOVE == 0u)
1521:.\Generated_Source\PSoC5/ADC_DelSig_1.c ****                 /* Set interrupt vector */
1522:.\Generated_Source\PSoC5/ADC_DelSig_1.c ****                 (void)CyIntSetVector(ADC_DelSig_1_INTC_NUMBER, &ADC_DelSig_1_ISR4);
1523:.\Generated_Source\PSoC5/ADC_DelSig_1.c ****             #endif   /* End ADC_DelSig_1_IRQ_REMOVE */
1524:.\Generated_Source\PSoC5/ADC_DelSig_1.c ****         }
1525:.\Generated_Source\PSoC5/ADC_DelSig_1.c ****     #endif /* ADC_DelSig_1_DEFAULT_NUM_CONFIGS > 3 */
1526:.\Generated_Source\PSoC5/ADC_DelSig_1.c **** }
1527:.\Generated_Source\PSoC5/ADC_DelSig_1.c **** 
1528:.\Generated_Source\PSoC5/ADC_DelSig_1.c **** 
1529:.\Generated_Source\PSoC5/ADC_DelSig_1.c **** /*******************************************************************************
1530:.\Generated_Source\PSoC5/ADC_DelSig_1.c **** * Function Name: ADC_DelSig_1_SelectCofiguration
1531:.\Generated_Source\PSoC5/ADC_DelSig_1.c **** ********************************************************************************
1532:.\Generated_Source\PSoC5/ADC_DelSig_1.c **** *
1533:.\Generated_Source\PSoC5/ADC_DelSig_1.c **** * Summary:
1534:.\Generated_Source\PSoC5/ADC_DelSig_1.c **** *  Sets one of up to four ADC configurations. Before setting the new
1535:.\Generated_Source\PSoC5/ADC_DelSig_1.c **** *  configuration, the ADC is stopped and powered down. After setting
1536:.\Generated_Source\PSoC5/ADC_DelSig_1.c **** *  the new configuration, the ADC can be powered and conversion
1537:.\Generated_Source\PSoC5/ADC_DelSig_1.c **** *  can be restarted depending up on the value of second parameter
1538:.\Generated_Source\PSoC5/ADC_DelSig_1.c **** *  restart. If the value of this parameter is 1, then ADC will be
1539:.\Generated_Source\PSoC5/ADC_DelSig_1.c **** *  restarted. If this value is zero, then user must call ADC_DelSig_1_Start
1540:.\Generated_Source\PSoC5/ADC_DelSig_1.c **** *  and ADC_DelSig_1_StartConvert() to restart the conversion.
1541:.\Generated_Source\PSoC5/ADC_DelSig_1.c **** *
1542:.\Generated_Source\PSoC5/ADC_DelSig_1.c **** * Parameters:
1543:.\Generated_Source\PSoC5/ADC_DelSig_1.c **** *  config:  configuration user wants to select.
1544:.\Generated_Source\PSoC5/ADC_DelSig_1.c **** *           Valid range: 1..4
1545:.\Generated_Source\PSoC5/ADC_DelSig_1.c **** *  restart:  Restart option. 1 means start the ADC and restart the conversion.
1546:.\Generated_Source\PSoC5/ADC_DelSig_1.c **** *                            0 means do not start the ADC and conversion.
1547:.\Generated_Source\PSoC5/ADC_DelSig_1.c **** *
1548:.\Generated_Source\PSoC5/ADC_DelSig_1.c **** * Return:
1549:.\Generated_Source\PSoC5/ADC_DelSig_1.c **** *  None
1550:.\Generated_Source\PSoC5/ADC_DelSig_1.c **** *
1551:.\Generated_Source\PSoC5/ADC_DelSig_1.c **** *******************************************************************************/
1552:.\Generated_Source\PSoC5/ADC_DelSig_1.c **** void ADC_DelSig_1_SelectConfiguration(uint8 config, uint8 restart)
1553:.\Generated_Source\PSoC5/ADC_DelSig_1.c ****                                               
1554:.\Generated_Source\PSoC5/ADC_DelSig_1.c **** {
1555:.\Generated_Source\PSoC5/ADC_DelSig_1.c ****     /* Check whether the configuration number is valid or not */
1556:.\Generated_Source\PSoC5/ADC_DelSig_1.c ****     if((config > 0u) && (config <= ADC_DelSig_1_DEFAULT_NUM_CONFIGS))
1557:.\Generated_Source\PSoC5/ADC_DelSig_1.c ****     {
1558:.\Generated_Source\PSoC5/ADC_DelSig_1.c ****         /* Set the flag to ensure Start() API doesn't override the 
1559:.\Generated_Source\PSoC5/ADC_DelSig_1.c **** 		*  selected configuration
1560:.\Generated_Source\PSoC5/ADC_DelSig_1.c **** 		*/
1561:.\Generated_Source\PSoC5/ADC_DelSig_1.c ****         if(ADC_DelSig_1_initVar == 0u)
1562:.\Generated_Source\PSoC5/ADC_DelSig_1.c ****         {
1563:.\Generated_Source\PSoC5/ADC_DelSig_1.c ****             ADC_DelSig_1_started = 1u;
1564:.\Generated_Source\PSoC5/ADC_DelSig_1.c ****         }
1565:.\Generated_Source\PSoC5/ADC_DelSig_1.c **** 
1566:.\Generated_Source\PSoC5/ADC_DelSig_1.c ****         /* Update the config flag */
1567:.\Generated_Source\PSoC5/ADC_DelSig_1.c ****         ADC_DelSig_1_Config = config;
1568:.\Generated_Source\PSoC5/ADC_DelSig_1.c **** 
1569:.\Generated_Source\PSoC5/ADC_DelSig_1.c ****         /* Stop the ADC  */
1570:.\Generated_Source\PSoC5/ADC_DelSig_1.c ****         ADC_DelSig_1_Stop();
1571:.\Generated_Source\PSoC5/ADC_DelSig_1.c **** 
ARM GAS  C:\Users\HANNAL~1\AppData\Local\Temp\ccGbhEeb.s 			page 29


1572:.\Generated_Source\PSoC5/ADC_DelSig_1.c ****         /* Set the  ADC registers based on the configuration */
1573:.\Generated_Source\PSoC5/ADC_DelSig_1.c ****         ADC_DelSig_1_InitConfig(config);
1574:.\Generated_Source\PSoC5/ADC_DelSig_1.c **** 
1575:.\Generated_Source\PSoC5/ADC_DelSig_1.c ****         /* Compensate the gain */
1576:.\Generated_Source\PSoC5/ADC_DelSig_1.c ****         ADC_DelSig_1_DEC_GVAL_REG = ADC_DelSig_1_gcor[config - 1u].gval;
1577:.\Generated_Source\PSoC5/ADC_DelSig_1.c ****         CY_SET_REG16(ADC_DelSig_1_DEC_GCOR_16B_PTR, ADC_DelSig_1_gcor[config - 1u].gcor);
1578:.\Generated_Source\PSoC5/ADC_DelSig_1.c **** 
1579:.\Generated_Source\PSoC5/ADC_DelSig_1.c ****         if(restart == 1u)
1580:.\Generated_Source\PSoC5/ADC_DelSig_1.c ****         {
1581:.\Generated_Source\PSoC5/ADC_DelSig_1.c ****             /* Restart the ADC */
1582:.\Generated_Source\PSoC5/ADC_DelSig_1.c ****             ADC_DelSig_1_Start();
1583:.\Generated_Source\PSoC5/ADC_DelSig_1.c **** 
1584:.\Generated_Source\PSoC5/ADC_DelSig_1.c ****             /* Restart the ADC conversion */
1585:.\Generated_Source\PSoC5/ADC_DelSig_1.c ****             ADC_DelSig_1_StartConvert();
1586:.\Generated_Source\PSoC5/ADC_DelSig_1.c ****         }
1587:.\Generated_Source\PSoC5/ADC_DelSig_1.c ****     }
1588:.\Generated_Source\PSoC5/ADC_DelSig_1.c ****     else
1589:.\Generated_Source\PSoC5/ADC_DelSig_1.c ****     {
1590:.\Generated_Source\PSoC5/ADC_DelSig_1.c ****         /* Halt CPU in debug mode if config is out of valid range */
1591:.\Generated_Source\PSoC5/ADC_DelSig_1.c ****         CYASSERT(0u != 0u);
1592:.\Generated_Source\PSoC5/ADC_DelSig_1.c ****     }
1593:.\Generated_Source\PSoC5/ADC_DelSig_1.c **** }
1594:.\Generated_Source\PSoC5/ADC_DelSig_1.c **** 
1595:.\Generated_Source\PSoC5/ADC_DelSig_1.c **** 
1596:.\Generated_Source\PSoC5/ADC_DelSig_1.c **** /*******************************************************************************
1597:.\Generated_Source\PSoC5/ADC_DelSig_1.c **** * Function Name: ADC_DelSig_1_GainCompensation
1598:.\Generated_Source\PSoC5/ADC_DelSig_1.c **** ********************************************************************************
1599:.\Generated_Source\PSoC5/ADC_DelSig_1.c **** *
1600:.\Generated_Source\PSoC5/ADC_DelSig_1.c **** * Summary:
1601:.\Generated_Source\PSoC5/ADC_DelSig_1.c **** *  This API calculates the trim value and then store this to gcor structure.
1602:.\Generated_Source\PSoC5/ADC_DelSig_1.c **** *
1603:.\Generated_Source\PSoC5/ADC_DelSig_1.c **** * Parameters:
1604:.\Generated_Source\PSoC5/ADC_DelSig_1.c **** *  inputRange:  input range for which trim value is to be calculated.
1605:.\Generated_Source\PSoC5/ADC_DelSig_1.c **** *  IdealDecGain:  Ideal Decimator gain for the selected resolution and
1606:.\Generated_Source\PSoC5/ADC_DelSig_1.c **** *                 conversion  mode.
1607:.\Generated_Source\PSoC5/ADC_DelSig_1.c **** *  IdealOddDecGain:  Ideal odd decimation gain for the selected resolution and
1608:.\Generated_Source\PSoC5/ADC_DelSig_1.c ****                      conversion mode.
1609:.\Generated_Source\PSoC5/ADC_DelSig_1.c **** *  resolution:  Resolution to select the proper flash location for trim value.
1610:.\Generated_Source\PSoC5/ADC_DelSig_1.c **** *  config:      Specifies the configuration number
1611:.\Generated_Source\PSoC5/ADC_DelSig_1.c **** *               Valid range: 1..4
1612:.\Generated_Source\PSoC5/ADC_DelSig_1.c **** *
1613:.\Generated_Source\PSoC5/ADC_DelSig_1.c **** * Return:
1614:.\Generated_Source\PSoC5/ADC_DelSig_1.c **** *  None
1615:.\Generated_Source\PSoC5/ADC_DelSig_1.c **** *
1616:.\Generated_Source\PSoC5/ADC_DelSig_1.c **** *******************************************************************************/
1617:.\Generated_Source\PSoC5/ADC_DelSig_1.c **** static void ADC_DelSig_1_GainCompensation(uint8 inputRange, uint16 idealDecGain, uint16 idealOddDec
1618:.\Generated_Source\PSoC5/ADC_DelSig_1.c ****                               uint8 resolution, uint8 config) 
1619:.\Generated_Source\PSoC5/ADC_DelSig_1.c **** {
  26              		.loc 1 1619 0
  27              		.cfi_startproc
  28              		@ args = 4, pretend = 0, frame = 0
  29              		@ frame_needed = 0, uses_anonymous_args = 0
  30              	.LVL0:
  31 0000 10B5     		push	{r4, lr}
  32              		.cfi_def_cfa_offset 8
  33              		.cfi_offset 4, -8
  34              		.cfi_offset 14, -4
ARM GAS  C:\Users\HANNAL~1\AppData\Local\Temp\ccGbhEeb.s 			page 30


  35 0002 9DF80840 		ldrb	r4, [sp, #8]	@ zero_extendqisi2
1620:.\Generated_Source\PSoC5/ADC_DelSig_1.c ****     int8 flash;
1621:.\Generated_Source\PSoC5/ADC_DelSig_1.c **** 	int32 normalised;
1622:.\Generated_Source\PSoC5/ADC_DelSig_1.c **** 	uint16 gcorValue;
1623:.\Generated_Source\PSoC5/ADC_DelSig_1.c ****     uint32 gcorTmp;
1624:.\Generated_Source\PSoC5/ADC_DelSig_1.c **** 
1625:.\Generated_Source\PSoC5/ADC_DelSig_1.c ****     if((config > 0u) && (config <= ADC_DelSig_1_DEFAULT_NUM_CONFIGS))
  36              		.loc 1 1625 0
  37 0006 012C     		cmp	r4, #1
  38 0008 4AD1     		bne	.L2
1626:.\Generated_Source\PSoC5/ADC_DelSig_1.c ****     {
1627:.\Generated_Source\PSoC5/ADC_DelSig_1.c ****         switch(inputRange)
  39              		.loc 1 1627 0
  40 000a 0138     		subs	r0, r0, #1
  41              	.LVL1:
  42 000c 0928     		cmp	r0, #9
  43 000e 26D8     		bhi	.L16
  44 0010 DFE800F0 		tbb	[pc, r0]
  45              	.L5:
  46 0014 05       		.byte	(.L4-.L5)/2
  47 0015 25       		.byte	(.L16-.L5)/2
  48 0016 25       		.byte	(.L16-.L5)/2
  49 0017 05       		.byte	(.L4-.L5)/2
  50 0018 25       		.byte	(.L16-.L5)/2
  51 0019 25       		.byte	(.L16-.L5)/2
  52 001a 0D       		.byte	(.L6-.L5)/2
  53 001b 15       		.byte	(.L7-.L5)/2
  54 001c 25       		.byte	(.L16-.L5)/2
  55 001d 1D       		.byte	(.L8-.L5)/2
  56              		.p2align 1
  57              	.L4:
1628:.\Generated_Source\PSoC5/ADC_DelSig_1.c ****         {
1629:.\Generated_Source\PSoC5/ADC_DelSig_1.c ****             case ADC_DelSig_1_IR_VNEG_VREF_DIFF:
1630:.\Generated_Source\PSoC5/ADC_DelSig_1.c ****             case ADC_DelSig_1_IR_VSSA_TO_2VREF:
1631:.\Generated_Source\PSoC5/ADC_DelSig_1.c ****                 /* Normalize the flash Value */
1632:.\Generated_Source\PSoC5/ADC_DelSig_1.c ****                 if(resolution > 15u)
  58              		.loc 1 1632 0
  59 001e 0F2B     		cmp	r3, #15
  60 0020 02D9     		bls	.L9
1633:.\Generated_Source\PSoC5/ADC_DelSig_1.c ****                 {
1634:.\Generated_Source\PSoC5/ADC_DelSig_1.c ****                     flash = ADC_DelSig_1_DEC_TRIM_VREF_DIFF_16_20;
  61              		.loc 1 1634 0
  62 0022 2148     		ldr	r0, .L18
  63 0024 0078     		ldrb	r0, [r0]	@ zero_extendqisi2
  64              	.LVL2:
  65 0026 1BE0     		b	.L3
  66              	.LVL3:
  67              	.L9:
1635:.\Generated_Source\PSoC5/ADC_DelSig_1.c ****                 }
1636:.\Generated_Source\PSoC5/ADC_DelSig_1.c ****                 else
1637:.\Generated_Source\PSoC5/ADC_DelSig_1.c ****                 {
1638:.\Generated_Source\PSoC5/ADC_DelSig_1.c ****                     flash = ADC_DelSig_1_DEC_TRIM_VREF_DIFF_8_15;
  68              		.loc 1 1638 0
  69 0028 2048     		ldr	r0, .L18+4
  70 002a 0078     		ldrb	r0, [r0]	@ zero_extendqisi2
  71              	.LVL4:
  72 002c 18E0     		b	.L3
ARM GAS  C:\Users\HANNAL~1\AppData\Local\Temp\ccGbhEeb.s 			page 31


  73              	.LVL5:
  74              	.L6:
1639:.\Generated_Source\PSoC5/ADC_DelSig_1.c ****                 }
1640:.\Generated_Source\PSoC5/ADC_DelSig_1.c ****                 break;
1641:.\Generated_Source\PSoC5/ADC_DelSig_1.c **** 
1642:.\Generated_Source\PSoC5/ADC_DelSig_1.c ****             case ADC_DelSig_1_IR_VNEG_VREF_2_DIFF:
1643:.\Generated_Source\PSoC5/ADC_DelSig_1.c ****                 /* Normalize the flash Value */
1644:.\Generated_Source\PSoC5/ADC_DelSig_1.c ****                 if(resolution > 15u)
  75              		.loc 1 1644 0
  76 002e 0F2B     		cmp	r3, #15
  77 0030 02D9     		bls	.L10
1645:.\Generated_Source\PSoC5/ADC_DelSig_1.c ****                 {
1646:.\Generated_Source\PSoC5/ADC_DelSig_1.c ****                     flash = ADC_DelSig_1_DEC_TRIM_VREF_2_DIFF_16_20;
  78              		.loc 1 1646 0
  79 0032 1F48     		ldr	r0, .L18+8
  80 0034 0078     		ldrb	r0, [r0]	@ zero_extendqisi2
  81              	.LVL6:
  82 0036 13E0     		b	.L3
  83              	.LVL7:
  84              	.L10:
1647:.\Generated_Source\PSoC5/ADC_DelSig_1.c ****                 }
1648:.\Generated_Source\PSoC5/ADC_DelSig_1.c ****                 else
1649:.\Generated_Source\PSoC5/ADC_DelSig_1.c ****                 {
1650:.\Generated_Source\PSoC5/ADC_DelSig_1.c ****                     flash = ADC_DelSig_1_DEC_TRIM_VREF_2_DIFF_8_15;
  85              		.loc 1 1650 0
  86 0038 1E48     		ldr	r0, .L18+12
  87 003a 0078     		ldrb	r0, [r0]	@ zero_extendqisi2
  88              	.LVL8:
  89 003c 10E0     		b	.L3
  90              	.LVL9:
  91              	.L7:
1651:.\Generated_Source\PSoC5/ADC_DelSig_1.c ****                 }
1652:.\Generated_Source\PSoC5/ADC_DelSig_1.c ****                 break;
1653:.\Generated_Source\PSoC5/ADC_DelSig_1.c **** 
1654:.\Generated_Source\PSoC5/ADC_DelSig_1.c ****             case ADC_DelSig_1_IR_VNEG_VREF_4_DIFF:
1655:.\Generated_Source\PSoC5/ADC_DelSig_1.c ****                 /* Normalize the flash Value */
1656:.\Generated_Source\PSoC5/ADC_DelSig_1.c ****                 if(resolution > 15u)
  92              		.loc 1 1656 0
  93 003e 0F2B     		cmp	r3, #15
  94 0040 02D9     		bls	.L11
1657:.\Generated_Source\PSoC5/ADC_DelSig_1.c ****                 {
1658:.\Generated_Source\PSoC5/ADC_DelSig_1.c ****                     flash = ADC_DelSig_1_DEC_TRIM_VREF_4_DIFF_16_20;
  95              		.loc 1 1658 0
  96 0042 1D48     		ldr	r0, .L18+16
  97 0044 0078     		ldrb	r0, [r0]	@ zero_extendqisi2
  98              	.LVL10:
  99 0046 0BE0     		b	.L3
 100              	.LVL11:
 101              	.L11:
1659:.\Generated_Source\PSoC5/ADC_DelSig_1.c ****                 }
1660:.\Generated_Source\PSoC5/ADC_DelSig_1.c ****                 else
1661:.\Generated_Source\PSoC5/ADC_DelSig_1.c ****                 {
1662:.\Generated_Source\PSoC5/ADC_DelSig_1.c ****                     flash = ADC_DelSig_1_DEC_TRIM_VREF_4_DIFF_8_15;
 102              		.loc 1 1662 0
 103 0048 1C48     		ldr	r0, .L18+20
 104 004a 0078     		ldrb	r0, [r0]	@ zero_extendqisi2
 105              	.LVL12:
ARM GAS  C:\Users\HANNAL~1\AppData\Local\Temp\ccGbhEeb.s 			page 32


 106 004c 08E0     		b	.L3
 107              	.LVL13:
 108              	.L8:
1663:.\Generated_Source\PSoC5/ADC_DelSig_1.c ****                 }
1664:.\Generated_Source\PSoC5/ADC_DelSig_1.c ****                 break;
1665:.\Generated_Source\PSoC5/ADC_DelSig_1.c **** 
1666:.\Generated_Source\PSoC5/ADC_DelSig_1.c ****             case ADC_DelSig_1_IR_VNEG_VREF_16_DIFF:
1667:.\Generated_Source\PSoC5/ADC_DelSig_1.c ****                 /* Normalize the flash Value */
1668:.\Generated_Source\PSoC5/ADC_DelSig_1.c ****                 if(resolution > 15u)
 109              		.loc 1 1668 0
 110 004e 0F2B     		cmp	r3, #15
 111 0050 02D9     		bls	.L12
1669:.\Generated_Source\PSoC5/ADC_DelSig_1.c ****                 {
1670:.\Generated_Source\PSoC5/ADC_DelSig_1.c ****                     flash = ADC_DelSig_1_DEC_TRIM_VREF_16_DIFF_16_20;
 112              		.loc 1 1670 0
 113 0052 1B48     		ldr	r0, .L18+24
 114 0054 0078     		ldrb	r0, [r0]	@ zero_extendqisi2
 115              	.LVL14:
 116 0056 03E0     		b	.L3
 117              	.LVL15:
 118              	.L12:
1671:.\Generated_Source\PSoC5/ADC_DelSig_1.c ****                 }
1672:.\Generated_Source\PSoC5/ADC_DelSig_1.c ****                 else
1673:.\Generated_Source\PSoC5/ADC_DelSig_1.c ****                 {
1674:.\Generated_Source\PSoC5/ADC_DelSig_1.c ****                     flash = ADC_DelSig_1_DEC_TRIM_VREF_16_DIFF_8_15;
 119              		.loc 1 1674 0
 120 0058 1A48     		ldr	r0, .L18+28
 121 005a 0078     		ldrb	r0, [r0]	@ zero_extendqisi2
 122              	.LVL16:
 123 005c 00E0     		b	.L3
 124              	.LVL17:
 125              	.L16:
1675:.\Generated_Source\PSoC5/ADC_DelSig_1.c ****                 }
1676:.\Generated_Source\PSoC5/ADC_DelSig_1.c ****                 break;
1677:.\Generated_Source\PSoC5/ADC_DelSig_1.c **** 
1678:.\Generated_Source\PSoC5/ADC_DelSig_1.c ****             default:
1679:.\Generated_Source\PSoC5/ADC_DelSig_1.c ****                 flash = 0;
 126              		.loc 1 1679 0
 127 005e 0020     		movs	r0, #0
 128              	.L3:
 129              	.LVL18:
1680:.\Generated_Source\PSoC5/ADC_DelSig_1.c ****                 break;
1681:.\Generated_Source\PSoC5/ADC_DelSig_1.c ****         }
1682:.\Generated_Source\PSoC5/ADC_DelSig_1.c **** 
1683:.\Generated_Source\PSoC5/ADC_DelSig_1.c ****         /* Add two values */
1684:.\Generated_Source\PSoC5/ADC_DelSig_1.c **** 		normalised = (int32)idealDecGain + ((int32)flash * 32);
 130              		.loc 1 1684 0
 131 0060 40B2     		sxtb	r0, r0
 132 0062 01EB4011 		add	r1, r1, r0, lsl #5
 133              	.LVL19:
1685:.\Generated_Source\PSoC5/ADC_DelSig_1.c ****         gcorTmp = (uint32)normalised * (uint32)idealOddDecGain;
 134              		.loc 1 1685 0
 135 0066 01FB02F1 		mul	r1, r1, r2
 136              	.LVL20:
1686:.\Generated_Source\PSoC5/ADC_DelSig_1.c ****         gcorValue = (uint16)(gcorTmp / ADC_DelSig_1_IDEAL_GAIN_CONST);
 137              		.loc 1 1686 0
 138 006a C90B     		lsrs	r1, r1, #15
ARM GAS  C:\Users\HANNAL~1\AppData\Local\Temp\ccGbhEeb.s 			page 33


 139              	.LVL21:
 140 006c 8AB2     		uxth	r2, r1
 141              	.LVL22:
1687:.\Generated_Source\PSoC5/ADC_DelSig_1.c **** 
1688:.\Generated_Source\PSoC5/ADC_DelSig_1.c ****         if (resolution < (ADC_DelSig_1_MAX_GVAL - 1u))
 142              		.loc 1 1688 0
 143 006e 0D2B     		cmp	r3, #13
 144 0070 0BD8     		bhi	.L13
1689:.\Generated_Source\PSoC5/ADC_DelSig_1.c ****         {
1690:.\Generated_Source\PSoC5/ADC_DelSig_1.c ****             gcorValue = (gcorValue >> (ADC_DelSig_1_MAX_GVAL - (resolution + 1u)));
 145              		.loc 1 1690 0
 146 0072 C3F10E02 		rsb	r2, r3, #14
 147              	.LVL23:
 148 0076 89B2     		uxth	r1, r1
 149 0078 1141     		asrs	r1, r1, r2
 150              	.LVL24:
 151 007a 8AB2     		uxth	r2, r1
 152              	.LVL25:
1691:.\Generated_Source\PSoC5/ADC_DelSig_1.c ****             ADC_DelSig_1_gcor[config - 1u].gval = (resolution + 1u);
 153              		.loc 1 1691 0
 154 007c 1249     		ldr	r1, .L18+32
 155 007e 01EB8401 		add	r1, r1, r4, lsl #2
 156 0082 0133     		adds	r3, r3, #1
 157              	.LVL26:
 158 0084 01F8023C 		strb	r3, [r1, #-2]
 159 0088 05E0     		b	.L14
 160              	.LVL27:
 161              	.L13:
1692:.\Generated_Source\PSoC5/ADC_DelSig_1.c ****         }
1693:.\Generated_Source\PSoC5/ADC_DelSig_1.c ****         else
1694:.\Generated_Source\PSoC5/ADC_DelSig_1.c ****         {
1695:.\Generated_Source\PSoC5/ADC_DelSig_1.c ****             /* Use all 16 bits */
1696:.\Generated_Source\PSoC5/ADC_DelSig_1.c ****             ADC_DelSig_1_gcor[config - 1u].gval = ADC_DelSig_1_MAX_GVAL;
 162              		.loc 1 1696 0
 163 008a 0F4B     		ldr	r3, .L18+32
 164              	.LVL28:
 165 008c 03EB8403 		add	r3, r3, r4, lsl #2
 166 0090 0F21     		movs	r1, #15
 167 0092 03F8021C 		strb	r1, [r3, #-2]
 168              	.L14:
1697:.\Generated_Source\PSoC5/ADC_DelSig_1.c ****         }
1698:.\Generated_Source\PSoC5/ADC_DelSig_1.c **** 
1699:.\Generated_Source\PSoC5/ADC_DelSig_1.c ****         /* Save the gain correction register value */
1700:.\Generated_Source\PSoC5/ADC_DelSig_1.c ****         ADC_DelSig_1_gcor[config - 1u].gcor = gcorValue;
 169              		.loc 1 1700 0
 170 0096 013C     		subs	r4, r4, #1
 171 0098 0B4B     		ldr	r3, .L18+32
 172 009a 23F82420 		strh	r2, [r3, r4, lsl #2]	@ movhi
 173 009e 10BD     		pop	{r4, pc}
 174              	.LVL29:
 175              	.L2:
1701:.\Generated_Source\PSoC5/ADC_DelSig_1.c ****     }
1702:.\Generated_Source\PSoC5/ADC_DelSig_1.c ****     else
1703:.\Generated_Source\PSoC5/ADC_DelSig_1.c ****     {
1704:.\Generated_Source\PSoC5/ADC_DelSig_1.c ****         /* Halt CPU in debug mode if config is out of valid range */
1705:.\Generated_Source\PSoC5/ADC_DelSig_1.c ****         CYASSERT(0u != 0u);
 176              		.loc 1 1705 0 discriminator 1
ARM GAS  C:\Users\HANNAL~1\AppData\Local\Temp\ccGbhEeb.s 			page 34


 177 00a0 0020     		movs	r0, #0
 178              	.LVL30:
 179 00a2 FFF7FEFF 		bl	CyHalt
 180              	.LVL31:
 181 00a6 10BD     		pop	{r4, pc}
 182              	.LVL32:
 183              	.L19:
 184              		.align	2
 185              	.L18:
 186 00a8 18010049 		.word	1224737048
 187 00ac 1C010049 		.word	1224737052
 188 00b0 19010049 		.word	1224737049
 189 00b4 1D010049 		.word	1224737053
 190 00b8 1A010049 		.word	1224737050
 191 00bc 1E010049 		.word	1224737054
 192 00c0 1B010049 		.word	1224737051
 193 00c4 1F010049 		.word	1224737055
 194 00c8 00000000 		.word	.LANCHOR0
 195              		.cfi_endproc
 196              	.LFE21:
 197              		.size	ADC_DelSig_1_GainCompensation, .-ADC_DelSig_1_GainCompensation
 198              		.section	.text.ADC_DelSig_1_SetDSMRef0Reg,"ax",%progbits
 199              		.align	2
 200              		.thumb
 201              		.thumb_func
 202              		.type	ADC_DelSig_1_SetDSMRef0Reg, %function
 203              	ADC_DelSig_1_SetDSMRef0Reg:
 204              	.LFB22:
1706:.\Generated_Source\PSoC5/ADC_DelSig_1.c ****     }
1707:.\Generated_Source\PSoC5/ADC_DelSig_1.c **** }
1708:.\Generated_Source\PSoC5/ADC_DelSig_1.c **** 
1709:.\Generated_Source\PSoC5/ADC_DelSig_1.c **** 
1710:.\Generated_Source\PSoC5/ADC_DelSig_1.c **** /******************************************************************************
1711:.\Generated_Source\PSoC5/ADC_DelSig_1.c **** * Function Name: ADC_DelSig_1_SetDSMRef0Reg(uint8)
1712:.\Generated_Source\PSoC5/ADC_DelSig_1.c **** ******************************************************************************
1713:.\Generated_Source\PSoC5/ADC_DelSig_1.c **** *
1714:.\Generated_Source\PSoC5/ADC_DelSig_1.c **** * Summary:
1715:.\Generated_Source\PSoC5/ADC_DelSig_1.c **** *  This API sets the DSM_REF0 register. This is written for internal use.
1716:.\Generated_Source\PSoC5/ADC_DelSig_1.c **** *
1717:.\Generated_Source\PSoC5/ADC_DelSig_1.c **** * Parameters:
1718:.\Generated_Source\PSoC5/ADC_DelSig_1.c **** *  value:  Value to be written to DSM_REF0 register.
1719:.\Generated_Source\PSoC5/ADC_DelSig_1.c **** *
1720:.\Generated_Source\PSoC5/ADC_DelSig_1.c **** * Return:
1721:.\Generated_Source\PSoC5/ADC_DelSig_1.c **** *  None
1722:.\Generated_Source\PSoC5/ADC_DelSig_1.c **** *
1723:.\Generated_Source\PSoC5/ADC_DelSig_1.c **** ******************************************************************************/
1724:.\Generated_Source\PSoC5/ADC_DelSig_1.c **** static void ADC_DelSig_1_SetDSMRef0Reg(uint8 value) 
1725:.\Generated_Source\PSoC5/ADC_DelSig_1.c **** {
 205              		.loc 1 1725 0
 206              		.cfi_startproc
 207              		@ args = 0, pretend = 0, frame = 0
 208              		@ frame_needed = 0, uses_anonymous_args = 0
 209              	.LVL33:
 210 0000 F8B5     		push	{r3, r4, r5, r6, r7, lr}
 211              		.cfi_def_cfa_offset 24
 212              		.cfi_offset 3, -24
 213              		.cfi_offset 4, -20
ARM GAS  C:\Users\HANNAL~1\AppData\Local\Temp\ccGbhEeb.s 			page 35


 214              		.cfi_offset 5, -16
 215              		.cfi_offset 6, -12
 216              		.cfi_offset 7, -8
 217              		.cfi_offset 14, -4
 218 0002 0746     		mov	r7, r0
1726:.\Generated_Source\PSoC5/ADC_DelSig_1.c ****     uint8 enableInterrupts;
1727:.\Generated_Source\PSoC5/ADC_DelSig_1.c ****     enableInterrupts = CyEnterCriticalSection();
 219              		.loc 1 1727 0
 220 0004 FFF7FEFF 		bl	CyEnterCriticalSection
 221              	.LVL34:
 222 0008 0646     		mov	r6, r0
 223              	.LVL35:
1728:.\Generated_Source\PSoC5/ADC_DelSig_1.c **** 
1729:.\Generated_Source\PSoC5/ADC_DelSig_1.c ****     /* Disable PRES, Enable power to VCMBUF0, REFBUF0 and REFBUF1, enable PRES */
1730:.\Generated_Source\PSoC5/ADC_DelSig_1.c ****     ADC_DelSig_1_RESET_CR4_REG |= (ADC_DelSig_1_IGNORE_PRESA1 | ADC_DelSig_1_IGNORE_PRESD1);
 224              		.loc 1 1730 0
 225 000a 0D4D     		ldr	r5, .L22
 226 000c 2B78     		ldrb	r3, [r5]	@ zero_extendqisi2
 227 000e 43F00303 		orr	r3, r3, #3
 228 0012 2B70     		strb	r3, [r5]
1731:.\Generated_Source\PSoC5/ADC_DelSig_1.c ****     ADC_DelSig_1_RESET_CR5_REG |= (ADC_DelSig_1_IGNORE_PRESA2 | ADC_DelSig_1_IGNORE_PRESD2);
 229              		.loc 1 1731 0
 230 0014 0B4C     		ldr	r4, .L22+4
 231 0016 2378     		ldrb	r3, [r4]	@ zero_extendqisi2
 232 0018 43F00303 		orr	r3, r3, #3
 233 001c 2370     		strb	r3, [r4]
1732:.\Generated_Source\PSoC5/ADC_DelSig_1.c ****     ADC_DelSig_1_DSM_REF0_REG = value;
 234              		.loc 1 1732 0
 235 001e 0A4B     		ldr	r3, .L22+8
 236 0020 1F70     		strb	r7, [r3]
1733:.\Generated_Source\PSoC5/ADC_DelSig_1.c **** 
1734:.\Generated_Source\PSoC5/ADC_DelSig_1.c ****     /* Wait for 3 microseconds */
1735:.\Generated_Source\PSoC5/ADC_DelSig_1.c ****     CyDelayUs(ADC_DelSig_1_PRES_DELAY_TIME);
 237              		.loc 1 1735 0
 238 0022 0320     		movs	r0, #3
 239 0024 FFF7FEFF 		bl	CyDelayUs
 240              	.LVL36:
1736:.\Generated_Source\PSoC5/ADC_DelSig_1.c ****     /* Enable the press circuit */
1737:.\Generated_Source\PSoC5/ADC_DelSig_1.c ****     ADC_DelSig_1_RESET_CR4_REG &= (uint8)~(ADC_DelSig_1_IGNORE_PRESA1 | ADC_DelSig_1_IGNORE_PRESD1)
 241              		.loc 1 1737 0
 242 0028 2B78     		ldrb	r3, [r5]	@ zero_extendqisi2
 243 002a 03F0FC03 		and	r3, r3, #252
 244 002e 2B70     		strb	r3, [r5]
1738:.\Generated_Source\PSoC5/ADC_DelSig_1.c ****     ADC_DelSig_1_RESET_CR5_REG &= (uint8)~(ADC_DelSig_1_IGNORE_PRESA2 | ADC_DelSig_1_IGNORE_PRESD2)
 245              		.loc 1 1738 0
 246 0030 2378     		ldrb	r3, [r4]	@ zero_extendqisi2
 247 0032 03F0FC03 		and	r3, r3, #252
 248 0036 2370     		strb	r3, [r4]
1739:.\Generated_Source\PSoC5/ADC_DelSig_1.c **** 
1740:.\Generated_Source\PSoC5/ADC_DelSig_1.c ****     CyExitCriticalSection(enableInterrupts);
 249              		.loc 1 1740 0
 250 0038 3046     		mov	r0, r6
 251 003a FFF7FEFF 		bl	CyExitCriticalSection
 252              	.LVL37:
 253 003e F8BD     		pop	{r3, r4, r5, r6, r7, pc}
 254              	.LVL38:
 255              	.L23:
ARM GAS  C:\Users\HANNAL~1\AppData\Local\Temp\ccGbhEeb.s 			page 36


 256              		.align	2
 257              	.L22:
 258 0040 F8460040 		.word	1073759992
 259 0044 F9460040 		.word	1073759993
 260 0048 92580040 		.word	1073764498
 261              		.cfi_endproc
 262              	.LFE22:
 263              		.size	ADC_DelSig_1_SetDSMRef0Reg, .-ADC_DelSig_1_SetDSMRef0Reg
 264              		.section	.text.ADC_DelSig_1_InitConfig,"ax",%progbits
 265              		.align	2
 266              		.thumb
 267              		.thumb_func
 268              		.type	ADC_DelSig_1_InitConfig, %function
 269              	ADC_DelSig_1_InitConfig:
 270              	.LFB19:
1243:.\Generated_Source\PSoC5/ADC_DelSig_1.c ****     ADC_DelSig_1_stopConversion = 0u;
 271              		.loc 1 1243 0
 272              		.cfi_startproc
 273              		@ args = 0, pretend = 0, frame = 0
 274              		@ frame_needed = 0, uses_anonymous_args = 0
 275              	.LVL39:
1244:.\Generated_Source\PSoC5/ADC_DelSig_1.c **** 
 276              		.loc 1 1244 0
 277 0000 0022     		movs	r2, #0
 278 0002 314B     		ldr	r3, .L28
 279 0004 1A71     		strb	r2, [r3, #4]
1246:.\Generated_Source\PSoC5/ADC_DelSig_1.c ****     {
 280              		.loc 1 1246 0
 281 0006 0128     		cmp	r0, #1
 282 0008 5DD1     		bne	.L27
1243:.\Generated_Source\PSoC5/ADC_DelSig_1.c ****     ADC_DelSig_1_stopConversion = 0u;
 283              		.loc 1 1243 0
 284 000a 70B5     		push	{r4, r5, r6, lr}
 285              		.cfi_def_cfa_offset 16
 286              		.cfi_offset 4, -16
 287              		.cfi_offset 5, -12
 288              		.cfi_offset 6, -8
 289              		.cfi_offset 14, -4
1249:.\Generated_Source\PSoC5/ADC_DelSig_1.c ****         ADC_DelSig_1_DEC_SHIFT1_REG  = ADC_DelSig_1_CFG1_DEC_SHIFT1;
 290              		.loc 1 1249 0
 291 000c 3822     		movs	r2, #56
 292 000e 2F4B     		ldr	r3, .L28+4
 293 0010 1A70     		strb	r2, [r3]
1250:.\Generated_Source\PSoC5/ADC_DelSig_1.c ****         ADC_DelSig_1_DEC_SHIFT2_REG  = ADC_DelSig_1_CFG1_DEC_SHIFT2;
 294              		.loc 1 1250 0
 295 0012 0422     		movs	r2, #4
 296 0014 0233     		adds	r3, r3, #2
 297 0016 1A70     		strb	r2, [r3]
1251:.\Generated_Source\PSoC5/ADC_DelSig_1.c ****         ADC_DelSig_1_DEC_DR2_REG     = ADC_DelSig_1_CFG1_DEC_DR2;
 298              		.loc 1 1251 0
 299 0018 0622     		movs	r2, #6
 300 001a 0133     		adds	r3, r3, #1
 301 001c 1A70     		strb	r2, [r3]
1252:.\Generated_Source\PSoC5/ADC_DelSig_1.c ****         ADC_DelSig_1_DEC_DR2H_REG    = ADC_DelSig_1_CFG1_DEC_DR2H;
 302              		.loc 1 1252 0
 303 001e 0024     		movs	r4, #0
 304 0020 0133     		adds	r3, r3, #1
ARM GAS  C:\Users\HANNAL~1\AppData\Local\Temp\ccGbhEeb.s 			page 37


 305 0022 1C70     		strb	r4, [r3]
1253:.\Generated_Source\PSoC5/ADC_DelSig_1.c ****         ADC_DelSig_1_DEC_DR1_REG     = ADC_DelSig_1_CFG1_DEC_DR1;
 306              		.loc 1 1253 0
 307 0024 0133     		adds	r3, r3, #1
 308 0026 1C70     		strb	r4, [r3]
1254:.\Generated_Source\PSoC5/ADC_DelSig_1.c ****         ADC_DelSig_1_DEC_OCOR_REG    = ADC_DelSig_1_CFG1_DEC_OCOR;
 309              		.loc 1 1254 0
 310 0028 0F22     		movs	r2, #15
 311 002a 0133     		adds	r3, r3, #1
 312 002c 1A70     		strb	r2, [r3]
1255:.\Generated_Source\PSoC5/ADC_DelSig_1.c ****         ADC_DelSig_1_DEC_OCORM_REG   = ADC_DelSig_1_CFG1_DEC_OCORM;
 313              		.loc 1 1255 0
 314 002e 0233     		adds	r3, r3, #2
 315 0030 1C70     		strb	r4, [r3]
1256:.\Generated_Source\PSoC5/ADC_DelSig_1.c ****         ADC_DelSig_1_DEC_OCORH_REG   = ADC_DelSig_1_CFG1_DEC_OCORH;
 316              		.loc 1 1256 0
 317 0032 0133     		adds	r3, r3, #1
 318 0034 1C70     		strb	r4, [r3]
1257:.\Generated_Source\PSoC5/ADC_DelSig_1.c ****         ADC_DelSig_1_DEC_COHER_REG   = ADC_DelSig_1_CFG1_DEC_COHER;
 319              		.loc 1 1257 0
 320 0036 0133     		adds	r3, r3, #1
 321 0038 1C70     		strb	r4, [r3]
1258:.\Generated_Source\PSoC5/ADC_DelSig_1.c **** 
 322              		.loc 1 1258 0
 323 003a 0125     		movs	r5, #1
 324 003c 0A33     		adds	r3, r3, #10
 325 003e 1D70     		strb	r5, [r3]
1260:.\Generated_Source\PSoC5/ADC_DelSig_1.c ****         ADC_DelSig_1_DSM_CR5_REG     = ADC_DelSig_1_CFG1_DSM_CR5;
 326              		.loc 1 1260 0
 327 0040 1422     		movs	r2, #20
 328 0042 03F52763 		add	r3, r3, #2672
 329 0046 1A70     		strb	r2, [r3]
1261:.\Generated_Source\PSoC5/ADC_DelSig_1.c ****         ADC_DelSig_1_DSM_CR6_REG     = ADC_DelSig_1_CFG1_DSM_CR6;
 330              		.loc 1 1261 0
 331 0048 0526     		movs	r6, #5
 332 004a 0133     		adds	r3, r3, #1
 333 004c 1E70     		strb	r6, [r3]
1262:.\Generated_Source\PSoC5/ADC_DelSig_1.c ****         ADC_DelSig_1_DSM_CR7_REG     = ADC_DelSig_1_CFG1_DSM_CR7;
 334              		.loc 1 1262 0
 335 004e 1622     		movs	r2, #22
 336 0050 0133     		adds	r3, r3, #1
 337 0052 1A70     		strb	r2, [r3]
1263:.\Generated_Source\PSoC5/ADC_DelSig_1.c ****         ADC_DelSig_1_DSM_CR10_REG    = ADC_DelSig_1_CFG1_DSM_CR10;
 338              		.loc 1 1263 0
 339 0054 0133     		adds	r3, r3, #1
 340 0056 1C70     		strb	r4, [r3]
1264:.\Generated_Source\PSoC5/ADC_DelSig_1.c ****         ADC_DelSig_1_DSM_CR11_REG    = ADC_DelSig_1_CFG1_DSM_CR11;
 341              		.loc 1 1264 0
 342 0058 4422     		movs	r2, #68
 343 005a 0333     		adds	r3, r3, #3
 344 005c 1A70     		strb	r2, [r3]
1265:.\Generated_Source\PSoC5/ADC_DelSig_1.c ****         ADC_DelSig_1_DSM_CR12_REG    = ADC_DelSig_1_CFG1_DSM_CR12;
 345              		.loc 1 1265 0
 346 005e 4822     		movs	r2, #72
 347 0060 0133     		adds	r3, r3, #1
 348 0062 1A70     		strb	r2, [r3]
1266:.\Generated_Source\PSoC5/ADC_DelSig_1.c ****         ADC_DelSig_1_DSM_CR14_REG    = ADC_DelSig_1_CFG1_DSM_CR14;
ARM GAS  C:\Users\HANNAL~1\AppData\Local\Temp\ccGbhEeb.s 			page 38


 349              		.loc 1 1266 0
 350 0064 0133     		adds	r3, r3, #1
 351 0066 1D70     		strb	r5, [r3]
1267:.\Generated_Source\PSoC5/ADC_DelSig_1.c ****         ADC_DelSig_1_DSM_CR15_REG    = ADC_DelSig_1_CFG1_DSM_CR15;
 352              		.loc 1 1267 0
 353 0068 0233     		adds	r3, r3, #2
 354 006a 1D70     		strb	r5, [r3]
1268:.\Generated_Source\PSoC5/ADC_DelSig_1.c ****         ADC_DelSig_1_DSM_CR16_REG    = ADC_DelSig_1_CFG1_DSM_CR16;
 355              		.loc 1 1268 0
 356 006c 1122     		movs	r2, #17
 357 006e 0133     		adds	r3, r3, #1
 358 0070 1A70     		strb	r2, [r3]
1269:.\Generated_Source\PSoC5/ADC_DelSig_1.c ****         ADC_DelSig_1_DSM_CR17_REG    = ADC_DelSig_1_CFG1_DSM_CR17;
 359              		.loc 1 1269 0
 360 0072 1922     		movs	r2, #25
 361 0074 0133     		adds	r3, r3, #1
 362 0076 1A70     		strb	r2, [r3]
1270:.\Generated_Source\PSoC5/ADC_DelSig_1.c ****         /* Set DSM_REF0_REG by disabling and enabling the PRESS circuit */
 363              		.loc 1 1270 0
 364 0078 9722     		movs	r2, #151
 365 007a 0133     		adds	r3, r3, #1
 366 007c 1A70     		strb	r2, [r3]
1272:.\Generated_Source\PSoC5/ADC_DelSig_1.c ****         ADC_DelSig_1_DSM_REF2_REG    = ADC_DelSig_1_CFG1_DSM_REF2;
 367              		.loc 1 1272 0
 368 007e 5220     		movs	r0, #82
 369              	.LVL40:
 370 0080 FFF7FEFF 		bl	ADC_DelSig_1_SetDSMRef0Reg
 371              	.LVL41:
1273:.\Generated_Source\PSoC5/ADC_DelSig_1.c ****         ADC_DelSig_1_DSM_REF3_REG    = ADC_DelSig_1_CFG1_DSM_REF3;
 372              		.loc 1 1273 0
 373 0084 5822     		movs	r2, #88
 374 0086 124B     		ldr	r3, .L28+8
 375 0088 1A70     		strb	r2, [r3]
1274:.\Generated_Source\PSoC5/ADC_DelSig_1.c **** 
 376              		.loc 1 1274 0
 377 008a 0133     		adds	r3, r3, #1
 378 008c 1C70     		strb	r4, [r3]
1276:.\Generated_Source\PSoC5/ADC_DelSig_1.c ****         ADC_DelSig_1_DSM_BUF1_REG    = ADC_DelSig_1_CFG1_DSM_BUF1;
 379              		.loc 1 1276 0
 380 008e 0533     		adds	r3, r3, #5
 381 0090 1E70     		strb	r6, [r3]
1277:.\Generated_Source\PSoC5/ADC_DelSig_1.c ****         ADC_DelSig_1_DSM_BUF2_REG    = ADC_DelSig_1_CFG1_DSM_BUF2;
 382              		.loc 1 1277 0
 383 0092 0222     		movs	r2, #2
 384 0094 0133     		adds	r3, r3, #1
 385 0096 1A70     		strb	r2, [r3]
1278:.\Generated_Source\PSoC5/ADC_DelSig_1.c ****         ADC_DelSig_1_DSM_BUF3_REG    = ADC_DelSig_1_CFG1_DSM_BUF3;
 386              		.loc 1 1278 0
 387 0098 0133     		adds	r3, r3, #1
 388 009a 1C70     		strb	r4, [r3]
1279:.\Generated_Source\PSoC5/ADC_DelSig_1.c **** 
 389              		.loc 1 1279 0
 390 009c 0133     		adds	r3, r3, #1
 391 009e 1C70     		strb	r4, [r3]
1288:.\Generated_Source\PSoC5/ADC_DelSig_1.c ****             #endif /* ADC_DelSig_1_IR_VSSA_TO_2VREF) */
 392              		.loc 1 1288 0
 393 00a0 2046     		mov	r0, r4
ARM GAS  C:\Users\HANNAL~1\AppData\Local\Temp\ccGbhEeb.s 			page 39


 394 00a2 FFF7FEFF 		bl	ADC_DelSig_1_AMux_Select
 395              	.LVL42:
1300:.\Generated_Source\PSoC5/ADC_DelSig_1.c **** 
 396              		.loc 1 1300 0
 397 00a6 3322     		movs	r2, #51
 398 00a8 0A4B     		ldr	r3, .L28+12
 399 00aa 1A60     		str	r2, [r3]
1302:.\Generated_Source\PSoC5/ADC_DelSig_1.c **** 
 400              		.loc 1 1302 0
 401 00ac 2420     		movs	r0, #36
 402 00ae 2946     		mov	r1, r5
 403 00b0 FFF7FEFF 		bl	ADC_DelSig_1_Ext_CP_Clk_SetDividerRegister
 404              	.LVL43:
1306:.\Generated_Source\PSoC5/ADC_DelSig_1.c ****         #endif /* ADC_DelSig_1_DEFAULT_INTERNAL_CLK */
 405              		.loc 1 1306 0
 406 00b4 9520     		movs	r0, #149
 407 00b6 2946     		mov	r1, r5
 408 00b8 FFF7FEFF 		bl	ADC_DelSig_1_theACLK_SetDividerRegister
 409              	.LVL44:
1311:.\Generated_Source\PSoC5/ADC_DelSig_1.c ****         #endif   /* End ADC_DelSig_1_IRQ_REMOVE */
 410              		.loc 1 1311 0
 411 00bc 1D20     		movs	r0, #29
 412 00be 0649     		ldr	r1, .L28+16
 413 00c0 FFF7FEFF 		bl	CyIntSetVector
 414              	.LVL45:
 415 00c4 70BD     		pop	{r4, r5, r6, pc}
 416              	.LVL46:
 417              	.L27:
 418              		.cfi_def_cfa_offset 0
 419              		.cfi_restore 4
 420              		.cfi_restore 5
 421              		.cfi_restore 6
 422              		.cfi_restore 14
 423 00c6 7047     		bx	lr
 424              	.L29:
 425              		.align	2
 426              	.L28:
 427 00c8 00000000 		.word	.LANCHOR0
 428 00cc 004E0040 		.word	1073761792
 429 00d0 94580040 		.word	1073764500
 430 00d4 00000000 		.word	ADC_DelSig_1_CountsPerVolt
 431 00d8 00000000 		.word	ADC_DelSig_1_ISR1
 432              		.cfi_endproc
 433              	.LFE19:
 434              		.size	ADC_DelSig_1_InitConfig, .-ADC_DelSig_1_InitConfig
 435              		.section	.text.ADC_DelSig_1_Init,"ax",%progbits
 436              		.align	2
 437              		.global	ADC_DelSig_1_Init
 438              		.thumb
 439              		.thumb_func
 440              		.type	ADC_DelSig_1_Init, %function
 441              	ADC_DelSig_1_Init:
 442              	.LFB0:
  92:.\Generated_Source\PSoC5/ADC_DelSig_1.c **** 
 443              		.loc 1 92 0
 444              		.cfi_startproc
 445              		@ args = 0, pretend = 0, frame = 0
ARM GAS  C:\Users\HANNAL~1\AppData\Local\Temp\ccGbhEeb.s 			page 40


 446              		@ frame_needed = 0, uses_anonymous_args = 0
 447 0000 F0B5     		push	{r4, r5, r6, r7, lr}
 448              		.cfi_def_cfa_offset 20
 449              		.cfi_offset 4, -20
 450              		.cfi_offset 5, -16
 451              		.cfi_offset 6, -12
 452              		.cfi_offset 7, -8
 453              		.cfi_offset 14, -4
 454 0002 83B0     		sub	sp, sp, #12
 455              		.cfi_def_cfa_offset 32
  94:.\Generated_Source\PSoC5/ADC_DelSig_1.c ****     ADC_DelSig_1_convDone = 0u;
 456              		.loc 1 94 0
 457 0004 284D     		ldr	r5, .L32
 458 0006 0127     		movs	r7, #1
 459 0008 2F70     		strb	r7, [r5]
  95:.\Generated_Source\PSoC5/ADC_DelSig_1.c **** 
 460              		.loc 1 95 0
 461 000a 284E     		ldr	r6, .L32+4
 462 000c 0024     		movs	r4, #0
 463 000e 7471     		strb	r4, [r6, #5]
  97:.\Generated_Source\PSoC5/ADC_DelSig_1.c **** 
 464              		.loc 1 97 0
 465 0010 1020     		movs	r0, #16
 466 0012 FFF7FEFF 		bl	ADC_DelSig_1_Ext_CP_Clk_SetModeRegister
 467              	.LVL47:
 101:.\Generated_Source\PSoC5/ADC_DelSig_1.c ****     #endif /* ADC_DelSig_1_DEFAULT_INTERNAL_CLK */
 468              		.loc 1 101 0
 469 0016 1020     		movs	r0, #16
 470 0018 FFF7FEFF 		bl	ADC_DelSig_1_theACLK_SetModeRegister
 471              	.LVL48:
 106:.\Generated_Source\PSoC5/ADC_DelSig_1.c ****     #endif   /* End ADC_DelSig_1_IRQ_REMOVE */
 472              		.loc 1 106 0
 473 001c 1D20     		movs	r0, #29
 474 001e 0721     		movs	r1, #7
 475 0020 FFF7FEFF 		bl	CyIntSetPriority
 476              	.LVL49:
 110:.\Generated_Source\PSoC5/ADC_DelSig_1.c ****     ADC_DelSig_1_DSM_DEM1_REG    = ADC_DelSig_1_CFG1_DSM_DEM1;
 477              		.loc 1 110 0
 478 0024 0422     		movs	r2, #4
 479 0026 224B     		ldr	r3, .L32+8
 480 0028 1A70     		strb	r2, [r3]
 111:.\Generated_Source\PSoC5/ADC_DelSig_1.c ****     ADC_DelSig_1_DSM_MISC_REG    = ADC_DelSig_1_CFG1_DSM_MISC;
 481              		.loc 1 111 0
 482 002a 0133     		adds	r3, r3, #1
 483 002c 1C70     		strb	r4, [r3]
 112:.\Generated_Source\PSoC5/ADC_DelSig_1.c ****     ADC_DelSig_1_DSM_CLK_REG    |= ADC_DelSig_1_CFG1_DSM_CLK;
 484              		.loc 1 112 0
 485 002e 0733     		adds	r3, r3, #7
 486 0030 1C70     		strb	r4, [r3]
 113:.\Generated_Source\PSoC5/ADC_DelSig_1.c ****     ADC_DelSig_1_DSM_REF1_REG    = ADC_DelSig_1_CFG1_DSM_REF1;
 487              		.loc 1 113 0
 488 0032 204A     		ldr	r2, .L32+12
 489 0034 1378     		ldrb	r3, [r2]	@ zero_extendqisi2
 490 0036 43F01803 		orr	r3, r3, #24
 491 003a 1370     		strb	r3, [r2]
 114:.\Generated_Source\PSoC5/ADC_DelSig_1.c **** 
 492              		.loc 1 114 0
ARM GAS  C:\Users\HANNAL~1\AppData\Local\Temp\ccGbhEeb.s 			page 41


 493 003c 1E4B     		ldr	r3, .L32+16
 494 003e 1C70     		strb	r4, [r3]
 116:.\Generated_Source\PSoC5/ADC_DelSig_1.c ****     ADC_DelSig_1_DSM_OUT1_REG    = ADC_DelSig_1_CFG1_DSM_OUT1;
 495              		.loc 1 116 0
 496 0040 03F2F523 		addw	r3, r3, #757
 497 0044 1C70     		strb	r4, [r3]
 117:.\Generated_Source\PSoC5/ADC_DelSig_1.c **** 
 498              		.loc 1 117 0
 499 0046 0133     		adds	r3, r3, #1
 500 0048 1C70     		strb	r4, [r3]
 119:.\Generated_Source\PSoC5/ADC_DelSig_1.c ****     ADC_DelSig_1_DSM_CR1_REG     = ADC_DelSig_1_CFG1_DSM_CR1;
 501              		.loc 1 119 0
 502 004a 0A22     		movs	r2, #10
 503 004c A3F20933 		subw	r3, r3, #777
 504 0050 1A70     		strb	r2, [r3]
 120:.\Generated_Source\PSoC5/ADC_DelSig_1.c **** #if(ADC_DelSig_1_MI_ENABLE != 0u) /* Enable Modulator Input */
 505              		.loc 1 120 0
 506 0052 0133     		adds	r3, r3, #1
 507 0054 1C70     		strb	r4, [r3]
 124:.\Generated_Source\PSoC5/ADC_DelSig_1.c **** #endif /* ADC_DelSig_1_MI_ENABLE != 0u*/    
 508              		.loc 1 124 0
 509 0056 0233     		adds	r3, r3, #2
 510 0058 1C70     		strb	r4, [r3]
 126:.\Generated_Source\PSoC5/ADC_DelSig_1.c ****     ADC_DelSig_1_DSM_CR9_REG     = ADC_DelSig_1_CFG1_DSM_CR9;
 511              		.loc 1 126 0
 512 005a 1222     		movs	r2, #18
 513 005c 0533     		adds	r3, r3, #5
 514 005e 1A70     		strb	r2, [r3]
 127:.\Generated_Source\PSoC5/ADC_DelSig_1.c ****     ADC_DelSig_1_DSM_CR13_REG    = ADC_DelSig_1_CFG1_DSM_CR13;
 515              		.loc 1 127 0
 516 0060 1322     		movs	r2, #19
 517 0062 0133     		adds	r3, r3, #1
 518 0064 1A70     		strb	r2, [r3]
 128:.\Generated_Source\PSoC5/ADC_DelSig_1.c **** 
 519              		.loc 1 128 0
 520 0066 0433     		adds	r3, r3, #4
 521 0068 1C70     		strb	r4, [r3]
 130:.\Generated_Source\PSoC5/ADC_DelSig_1.c **** 
 522              		.loc 1 130 0
 523 006a 1422     		movs	r2, #20
 524 006c A3F68C23 		subw	r3, r3, #2700
 525 0070 1A70     		strb	r2, [r3]
 133:.\Generated_Source\PSoC5/ADC_DelSig_1.c ****                                       ADC_DelSig_1_CFG1_IDEAL_DEC_GAIN,
 526              		.loc 1 133 0
 527 0072 0097     		str	r7, [sp]
 528 0074 0220     		movs	r0, #2
 529 0076 48F66B51 		movw	r1, #36203
 530 007a 4FF40042 		mov	r2, #32768
 531 007e 0823     		movs	r3, #8
 532 0080 FFF7FEFF 		bl	ADC_DelSig_1_GainCompensation
 533              	.LVL50:
 161:.\Generated_Source\PSoC5/ADC_DelSig_1.c ****     CY_SET_REG16(ADC_DelSig_1_DEC_GCOR_16B_PTR, ADC_DelSig_1_gcor[ADC_DelSig_1_Config - 1u].gcor);
 534              		.loc 1 161 0
 535 0084 2B78     		ldrb	r3, [r5]	@ zero_extendqisi2
 536 0086 06EB8303 		add	r3, r6, r3, lsl #2
 537 008a 13F8022C 		ldrb	r2, [r3, #-2]	@ zero_extendqisi2
 538 008e 0B4B     		ldr	r3, .L32+20
ARM GAS  C:\Users\HANNAL~1\AppData\Local\Temp\ccGbhEeb.s 			page 42


 539 0090 1A70     		strb	r2, [r3]
 162:.\Generated_Source\PSoC5/ADC_DelSig_1.c **** 
 540              		.loc 1 162 0
 541 0092 2B78     		ldrb	r3, [r5]	@ zero_extendqisi2
 542 0094 013B     		subs	r3, r3, #1
 543 0096 36F82320 		ldrh	r2, [r6, r3, lsl #2]
 544 009a 094B     		ldr	r3, .L32+24
 545 009c 1A80     		strh	r2, [r3]	@ movhi
 165:.\Generated_Source\PSoC5/ADC_DelSig_1.c **** }
 546              		.loc 1 165 0
 547 009e 2878     		ldrb	r0, [r5]	@ zero_extendqisi2
 548 00a0 FFF7FEFF 		bl	ADC_DelSig_1_InitConfig
 549              	.LVL51:
 166:.\Generated_Source\PSoC5/ADC_DelSig_1.c **** 
 550              		.loc 1 166 0
 551 00a4 03B0     		add	sp, sp, #12
 552              		.cfi_def_cfa_offset 20
 553              		@ sp needed
 554 00a6 F0BD     		pop	{r4, r5, r6, r7, pc}
 555              	.L33:
 556              		.align	2
 557              	.L32:
 558 00a8 00000000 		.word	.LANCHOR1
 559 00ac 00000000 		.word	.LANCHOR0
 560 00b0 96580040 		.word	1073764502
 561 00b4 075B0040 		.word	1073765127
 562 00b8 93580040 		.word	1073764499
 563 00bc 0E4E0040 		.word	1073761806
 564 00c0 0C4E0040 		.word	1073761804
 565              		.cfi_endproc
 566              	.LFE0:
 567              		.size	ADC_DelSig_1_Init, .-ADC_DelSig_1_Init
 568              		.section	.text.ADC_DelSig_1_Enable,"ax",%progbits
 569              		.align	2
 570              		.global	ADC_DelSig_1_Enable
 571              		.thumb
 572              		.thumb_func
 573              		.type	ADC_DelSig_1_Enable, %function
 574              	ADC_DelSig_1_Enable:
 575              	.LFB1:
 185:.\Generated_Source\PSoC5/ADC_DelSig_1.c **** 	uint8 config;
 576              		.loc 1 185 0
 577              		.cfi_startproc
 578              		@ args = 0, pretend = 0, frame = 0
 579              		@ frame_needed = 0, uses_anonymous_args = 0
 580 0000 70B5     		push	{r4, r5, r6, lr}
 581              		.cfi_def_cfa_offset 16
 582              		.cfi_offset 4, -16
 583              		.cfi_offset 5, -12
 584              		.cfi_offset 6, -8
 585              		.cfi_offset 14, -4
 188:.\Generated_Source\PSoC5/ADC_DelSig_1.c **** 
 586              		.loc 1 188 0
 587 0002 FFF7FEFF 		bl	CyEnterCriticalSection
 588              	.LVL52:
 589 0006 0646     		mov	r6, r0
 590              	.LVL53:
ARM GAS  C:\Users\HANNAL~1\AppData\Local\Temp\ccGbhEeb.s 			page 43


 191:.\Generated_Source\PSoC5/ADC_DelSig_1.c ****     
 591              		.loc 1 191 0
 592 0008 2A4B     		ldr	r3, .L36
 593 000a 1B78     		ldrb	r3, [r3]	@ zero_extendqisi2
 594              	.LVL54:
 194:.\Generated_Source\PSoC5/ADC_DelSig_1.c ****     ADC_DelSig_1_PWRMGR_DSM_REG |= ADC_DelSig_1_ACT_PWR_DSM_EN;
 595              		.loc 1 194 0
 596 000c 2A4B     		ldr	r3, .L36+4
 597 000e 1A78     		ldrb	r2, [r3]	@ zero_extendqisi2
 598 0010 42F00102 		orr	r2, r2, #1
 599 0014 1A70     		strb	r2, [r3]
 195:.\Generated_Source\PSoC5/ADC_DelSig_1.c **** 
 600              		.loc 1 195 0
 601 0016 1A78     		ldrb	r2, [r3]	@ zero_extendqisi2
 602 0018 42F01002 		orr	r2, r2, #16
 603 001c 1A70     		strb	r2, [r3]
 198:.\Generated_Source\PSoC5/ADC_DelSig_1.c ****     ADC_DelSig_1_STBY_PWRMGR_DSM_REG |= ADC_DelSig_1_STBY_PWR_DSM_EN;
 604              		.loc 1 198 0
 605 001e 1033     		adds	r3, r3, #16
 606 0020 1A78     		ldrb	r2, [r3]	@ zero_extendqisi2
 607 0022 42F00102 		orr	r2, r2, #1
 608 0026 1A70     		strb	r2, [r3]
 199:.\Generated_Source\PSoC5/ADC_DelSig_1.c **** 
 609              		.loc 1 199 0
 610 0028 1A78     		ldrb	r2, [r3]	@ zero_extendqisi2
 611 002a 42F01002 		orr	r2, r2, #16
 612 002e 1A70     		strb	r2, [r3]
 202:.\Generated_Source\PSoC5/ADC_DelSig_1.c ****     ADC_DelSig_1_RESET_CR5_REG |= ADC_DelSig_1_IGNORE_PRESA2;
 613              		.loc 1 202 0
 614 0030 224D     		ldr	r5, .L36+8
 615 0032 2B78     		ldrb	r3, [r5]	@ zero_extendqisi2
 616 0034 43F00203 		orr	r3, r3, #2
 617 0038 2B70     		strb	r3, [r5]
 203:.\Generated_Source\PSoC5/ADC_DelSig_1.c **** 
 618              		.loc 1 203 0
 619 003a 214C     		ldr	r4, .L36+12
 620 003c 2378     		ldrb	r3, [r4]	@ zero_extendqisi2
 621 003e 43F00203 		orr	r3, r3, #2
 622 0042 2370     		strb	r3, [r4]
 205:.\Generated_Source\PSoC5/ADC_DelSig_1.c **** 
 623              		.loc 1 205 0
 624 0044 1F4A     		ldr	r2, .L36+16
 625 0046 1378     		ldrb	r3, [r2]	@ zero_extendqisi2
 626 0048 43F00303 		orr	r3, r3, #3
 627 004c 1370     		strb	r3, [r2]
 271:.\Generated_Source\PSoC5/ADC_DelSig_1.c **** 
 628              		.loc 1 271 0
 629 004e 0320     		movs	r0, #3
 630 0050 FFF7FEFF 		bl	CyDelayUs
 631              	.LVL55:
 274:.\Generated_Source\PSoC5/ADC_DelSig_1.c ****     ADC_DelSig_1_RESET_CR5_REG &= (uint8)~ADC_DelSig_1_IGNORE_PRESA2;
 632              		.loc 1 274 0
 633 0054 2B78     		ldrb	r3, [r5]	@ zero_extendqisi2
 634 0056 03F0FD03 		and	r3, r3, #253
 635 005a 2B70     		strb	r3, [r5]
 275:.\Generated_Source\PSoC5/ADC_DelSig_1.c **** 
 636              		.loc 1 275 0
ARM GAS  C:\Users\HANNAL~1\AppData\Local\Temp\ccGbhEeb.s 			page 44


 637 005c 2378     		ldrb	r3, [r4]	@ zero_extendqisi2
 638 005e 03F0FD03 		and	r3, r3, #253
 639 0062 2370     		strb	r3, [r4]
 278:.\Generated_Source\PSoC5/ADC_DelSig_1.c **** 
 640              		.loc 1 278 0
 641 0064 184A     		ldr	r2, .L36+20
 642 0066 1378     		ldrb	r3, [r2]	@ zero_extendqisi2
 643 0068 43F00603 		orr	r3, r3, #6
 644 006c 1370     		strb	r3, [r2]
 281:.\Generated_Source\PSoC5/ADC_DelSig_1.c **** 
 645              		.loc 1 281 0
 646 006e 7A22     		movs	r2, #122
 647 0070 164B     		ldr	r3, .L36+24
 648 0072 1A70     		strb	r2, [r3]
 285:.\Generated_Source\PSoC5/ADC_DelSig_1.c ****         ADC_DelSig_1_STBY_PWRMGR_CLK_REG |= ADC_DelSig_1_STBY_PWR_CLK_EN;
 649              		.loc 1 285 0
 650 0074 164A     		ldr	r2, .L36+28
 651 0076 1378     		ldrb	r3, [r2]	@ zero_extendqisi2
 652 0078 43F00103 		orr	r3, r3, #1
 653 007c 1370     		strb	r3, [r2]
 286:.\Generated_Source\PSoC5/ADC_DelSig_1.c ****     #endif /* ADC_DelSig_1_DEFAULT_INTERNAL_CLK */
 654              		.loc 1 286 0
 655 007e 1032     		adds	r2, r2, #16
 656 0080 1378     		ldrb	r3, [r2]	@ zero_extendqisi2
 657 0082 43F00103 		orr	r3, r3, #1
 658 0086 1370     		strb	r3, [r2]
 290:.\Generated_Source\PSoC5/ADC_DelSig_1.c ****     ADC_DelSig_1_STBY_PWRMGR_CHARGE_PUMP_CLK_REG |= ADC_DelSig_1_STBY_PWR_CHARGE_PUMP_CLK_EN;
 659              		.loc 1 290 0
 660 0088 0F3A     		subs	r2, r2, #15
 661 008a 1378     		ldrb	r3, [r2]	@ zero_extendqisi2
 662 008c 43F00103 		orr	r3, r3, #1
 663 0090 1370     		strb	r3, [r2]
 291:.\Generated_Source\PSoC5/ADC_DelSig_1.c **** 
 664              		.loc 1 291 0
 665 0092 1032     		adds	r2, r2, #16
 666 0094 1378     		ldrb	r3, [r2]	@ zero_extendqisi2
 667 0096 43F00103 		orr	r3, r3, #1
 668 009a 1370     		strb	r3, [r2]
 295:.\Generated_Source\PSoC5/ADC_DelSig_1.c ****         /* Enable interrupt */
 669              		.loc 1 295 0
 670 009c 4FF00053 		mov	r3, #536870912
 671 00a0 0C4A     		ldr	r2, .L36+32
 672 00a2 1360     		str	r3, [r2]
 297:.\Generated_Source\PSoC5/ADC_DelSig_1.c ****     #endif   /* End ADC_DelSig_1_IRQ_REMOVE */
 673              		.loc 1 297 0
 674 00a4 A2F5C072 		sub	r2, r2, #384
 675 00a8 1360     		str	r3, [r2]
 300:.\Generated_Source\PSoC5/ADC_DelSig_1.c **** 
 676              		.loc 1 300 0
 677 00aa 3046     		mov	r0, r6
 678 00ac FFF7FEFF 		bl	CyExitCriticalSection
 679              	.LVL56:
 680 00b0 70BD     		pop	{r4, r5, r6, pc}
 681              	.LVL57:
 682              	.L37:
 683 00b2 00BF     		.align	2
 684              	.L36:
ARM GAS  C:\Users\HANNAL~1\AppData\Local\Temp\ccGbhEeb.s 			page 45


 685 00b4 00000000 		.word	.LANCHOR1
 686 00b8 AA430040 		.word	1073759146
 687 00bc F8460040 		.word	1073759992
 688 00c0 F9460040 		.word	1073759993
 689 00c4 91580040 		.word	1073764497
 690 00c8 77580040 		.word	1073764471
 691 00cc 82580040 		.word	1073764482
 692 00d0 A1430040 		.word	1073759137
 693 00d4 80E200E0 		.word	-536812928
 694              		.cfi_endproc
 695              	.LFE1:
 696              		.size	ADC_DelSig_1_Enable, .-ADC_DelSig_1_Enable
 697              		.section	.text.ADC_DelSig_1_Start,"ax",%progbits
 698              		.align	2
 699              		.global	ADC_DelSig_1_Start
 700              		.thumb
 701              		.thumb_func
 702              		.type	ADC_DelSig_1_Start, %function
 703              	ADC_DelSig_1_Start:
 704              	.LFB2:
 330:.\Generated_Source\PSoC5/ADC_DelSig_1.c ****     if(ADC_DelSig_1_initVar == 0u)
 705              		.loc 1 330 0
 706              		.cfi_startproc
 707              		@ args = 0, pretend = 0, frame = 0
 708              		@ frame_needed = 0, uses_anonymous_args = 0
 709 0000 08B5     		push	{r3, lr}
 710              		.cfi_def_cfa_offset 8
 711              		.cfi_offset 3, -8
 712              		.cfi_offset 14, -4
 331:.\Generated_Source\PSoC5/ADC_DelSig_1.c ****     {
 713              		.loc 1 331 0
 714 0002 084B     		ldr	r3, .L42
 715 0004 9B79     		ldrb	r3, [r3, #6]	@ zero_extendqisi2
 716 0006 4BB9     		cbnz	r3, .L39
 333:.\Generated_Source\PSoC5/ADC_DelSig_1.c ****         {
 717              		.loc 1 333 0
 718 0008 064B     		ldr	r3, .L42
 719 000a DB79     		ldrb	r3, [r3, #7]	@ zero_extendqisi2
 720 000c 13F0FF0F 		tst	r3, #255
 721 0010 01D1     		bne	.L40
 335:.\Generated_Source\PSoC5/ADC_DelSig_1.c ****         }
 722              		.loc 1 335 0
 723 0012 FFF7FEFF 		bl	ADC_DelSig_1_Init
 724              	.LVL58:
 725              	.L40:
 337:.\Generated_Source\PSoC5/ADC_DelSig_1.c ****     }
 726              		.loc 1 337 0
 727 0016 0122     		movs	r2, #1
 728 0018 024B     		ldr	r3, .L42
 729 001a 9A71     		strb	r2, [r3, #6]
 730              	.L39:
 341:.\Generated_Source\PSoC5/ADC_DelSig_1.c **** }
 731              		.loc 1 341 0
 732 001c FFF7FEFF 		bl	ADC_DelSig_1_Enable
 733              	.LVL59:
 734 0020 08BD     		pop	{r3, pc}
 735              	.L43:
ARM GAS  C:\Users\HANNAL~1\AppData\Local\Temp\ccGbhEeb.s 			page 46


 736 0022 00BF     		.align	2
 737              	.L42:
 738 0024 00000000 		.word	.LANCHOR0
 739              		.cfi_endproc
 740              	.LFE2:
 741              		.size	ADC_DelSig_1_Start, .-ADC_DelSig_1_Start
 742              		.section	.text.ADC_DelSig_1_Stop,"ax",%progbits
 743              		.align	2
 744              		.global	ADC_DelSig_1_Stop
 745              		.thumb
 746              		.thumb_func
 747              		.type	ADC_DelSig_1_Stop, %function
 748              	ADC_DelSig_1_Stop:
 749              	.LFB3:
 363:.\Generated_Source\PSoC5/ADC_DelSig_1.c ****     uint8 enableInterrupts;
 750              		.loc 1 363 0
 751              		.cfi_startproc
 752              		@ args = 0, pretend = 0, frame = 0
 753              		@ frame_needed = 0, uses_anonymous_args = 0
 754 0000 70B5     		push	{r4, r5, r6, lr}
 755              		.cfi_def_cfa_offset 16
 756              		.cfi_offset 4, -16
 757              		.cfi_offset 5, -12
 758              		.cfi_offset 6, -8
 759              		.cfi_offset 14, -4
 365:.\Generated_Source\PSoC5/ADC_DelSig_1.c **** 
 760              		.loc 1 365 0
 761 0002 FFF7FEFF 		bl	CyEnterCriticalSection
 762              	.LVL60:
 763 0006 0646     		mov	r6, r0
 764              	.LVL61:
 368:.\Generated_Source\PSoC5/ADC_DelSig_1.c ****     ADC_DelSig_1_DEC_SR_REG |=  ADC_DelSig_1_DEC_INTR_CLEAR;
 765              		.loc 1 368 0
 766 0008 314A     		ldr	r2, .L46
 767 000a 1378     		ldrb	r3, [r2]	@ zero_extendqisi2
 768 000c 03F0FE03 		and	r3, r3, #254
 769 0010 1370     		strb	r3, [r2]
 369:.\Generated_Source\PSoC5/ADC_DelSig_1.c **** 
 770              		.loc 1 369 0
 771 0012 0132     		adds	r2, r2, #1
 772 0014 1378     		ldrb	r3, [r2]	@ zero_extendqisi2
 773 0016 43F00403 		orr	r3, r3, #4
 774 001a 1370     		strb	r3, [r2]
 373:.\Generated_Source\PSoC5/ADC_DelSig_1.c ****     ADC_DelSig_1_RESET_CR5_REG |= ADC_DelSig_1_IGNORE_PRESA2;
 775              		.loc 1 373 0
 776 001c 2D4D     		ldr	r5, .L46+4
 777 001e 2B78     		ldrb	r3, [r5]	@ zero_extendqisi2
 778 0020 43F00203 		orr	r3, r3, #2
 779 0024 2B70     		strb	r3, [r5]
 374:.\Generated_Source\PSoC5/ADC_DelSig_1.c **** 
 780              		.loc 1 374 0
 781 0026 2C4C     		ldr	r4, .L46+8
 782 0028 2378     		ldrb	r3, [r4]	@ zero_extendqisi2
 783 002a 43F00203 		orr	r3, r3, #2
 784 002e 2370     		strb	r3, [r4]
 376:.\Generated_Source\PSoC5/ADC_DelSig_1.c ****     ADC_DelSig_1_DSM_REF0_REG &= (uint8)~ADC_DelSig_1_DSM_EN_BUF_VREF_INN;
 785              		.loc 1 376 0
ARM GAS  C:\Users\HANNAL~1\AppData\Local\Temp\ccGbhEeb.s 			page 47


 786 0030 02F52962 		add	r2, r2, #2704
 787 0034 1378     		ldrb	r3, [r2]	@ zero_extendqisi2
 788 0036 03F0FC03 		and	r3, r3, #252
 789 003a 1370     		strb	r3, [r2]
 377:.\Generated_Source\PSoC5/ADC_DelSig_1.c **** 
 790              		.loc 1 377 0
 791 003c 0132     		adds	r2, r2, #1
 792 003e 1378     		ldrb	r3, [r2]	@ zero_extendqisi2
 793 0040 03F0F703 		and	r3, r3, #247
 794 0044 1370     		strb	r3, [r2]
 380:.\Generated_Source\PSoC5/ADC_DelSig_1.c **** 
 795              		.loc 1 380 0
 796 0046 0320     		movs	r0, #3
 797 0048 FFF7FEFF 		bl	CyDelayUs
 798              	.LVL62:
 383:.\Generated_Source\PSoC5/ADC_DelSig_1.c ****     ADC_DelSig_1_RESET_CR5_REG &= (uint8)~ADC_DelSig_1_IGNORE_PRESA2;
 799              		.loc 1 383 0
 800 004c 2B78     		ldrb	r3, [r5]	@ zero_extendqisi2
 801 004e 03F0FD03 		and	r3, r3, #253
 802 0052 2B70     		strb	r3, [r5]
 384:.\Generated_Source\PSoC5/ADC_DelSig_1.c **** 
 803              		.loc 1 384 0
 804 0054 2378     		ldrb	r3, [r4]	@ zero_extendqisi2
 805 0056 03F0FD03 		and	r3, r3, #253
 806 005a 2370     		strb	r3, [r4]
 387:.\Generated_Source\PSoC5/ADC_DelSig_1.c **** 
 807              		.loc 1 387 0
 808 005c 1F4B     		ldr	r3, .L46+12
 809 005e 1A78     		ldrb	r2, [r3]	@ zero_extendqisi2
 810 0060 02F0EF02 		and	r2, r2, #239
 811 0064 1A70     		strb	r2, [r3]
 390:.\Generated_Source\PSoC5/ADC_DelSig_1.c **** 
 812              		.loc 1 390 0
 813 0066 1A78     		ldrb	r2, [r3]	@ zero_extendqisi2
 814 0068 02F0FE02 		and	r2, r2, #254
 815 006c 1A70     		strb	r2, [r3]
 393:.\Generated_Source\PSoC5/ADC_DelSig_1.c ****     ADC_DelSig_1_STBY_PWRMGR_DSM_REG &= (uint8)~ADC_DelSig_1_STBY_PWR_DSM_EN;
 816              		.loc 1 393 0
 817 006e 1033     		adds	r3, r3, #16
 818 0070 1A78     		ldrb	r2, [r3]	@ zero_extendqisi2
 819 0072 02F0FE02 		and	r2, r2, #254
 820 0076 1A70     		strb	r2, [r3]
 394:.\Generated_Source\PSoC5/ADC_DelSig_1.c **** 
 821              		.loc 1 394 0
 822 0078 1A78     		ldrb	r2, [r3]	@ zero_extendqisi2
 823 007a 02F0EF02 		and	r2, r2, #239
 824 007e 1A70     		strb	r2, [r3]
 397:.\Generated_Source\PSoC5/ADC_DelSig_1.c **** 
 825              		.loc 1 397 0
 826 0080 174A     		ldr	r2, .L46+16
 827 0082 1378     		ldrb	r3, [r2]	@ zero_extendqisi2
 828 0084 03F0F903 		and	r3, r3, #249
 829 0088 1370     		strb	r3, [r2]
 401:.\Generated_Source\PSoC5/ADC_DelSig_1.c ****         ADC_DelSig_1_STBY_PWRMGR_CLK_REG &= (uint8)~ADC_DelSig_1_STBY_PWR_CLK_EN;
 830              		.loc 1 401 0
 831 008a A2F5A652 		sub	r2, r2, #5312
 832 008e 163A     		subs	r2, r2, #22
ARM GAS  C:\Users\HANNAL~1\AppData\Local\Temp\ccGbhEeb.s 			page 48


 833 0090 1378     		ldrb	r3, [r2]	@ zero_extendqisi2
 834 0092 03F0FE03 		and	r3, r3, #254
 835 0096 1370     		strb	r3, [r2]
 402:.\Generated_Source\PSoC5/ADC_DelSig_1.c ****     #endif /* ADC_DelSig_1_DEFAULT_INTERNAL_CLK */
 836              		.loc 1 402 0
 837 0098 1032     		adds	r2, r2, #16
 838 009a 1378     		ldrb	r3, [r2]	@ zero_extendqisi2
 839 009c 03F0FE03 		and	r3, r3, #254
 840 00a0 1370     		strb	r3, [r2]
 406:.\Generated_Source\PSoC5/ADC_DelSig_1.c ****     /* Disable power to charge pump clock */
 841              		.loc 1 406 0
 842 00a2 02F5A652 		add	r2, r2, #5312
 843 00a6 1132     		adds	r2, r2, #17
 844 00a8 1378     		ldrb	r3, [r2]	@ zero_extendqisi2
 845 00aa 03F0F703 		and	r3, r3, #247
 846 00ae 1370     		strb	r3, [r2]
 408:.\Generated_Source\PSoC5/ADC_DelSig_1.c ****     ADC_DelSig_1_STBY_PWRMGR_CHARGE_PUMP_CLK_REG &= (uint8)~ADC_DelSig_1_STBY_PWR_CHARGE_PUMP_CLK_E
 847              		.loc 1 408 0
 848 00b0 A2F5A752 		sub	r2, r2, #5344
 849 00b4 1378     		ldrb	r3, [r2]	@ zero_extendqisi2
 850 00b6 03F0FE03 		and	r3, r3, #254
 851 00ba 1370     		strb	r3, [r2]
 409:.\Generated_Source\PSoC5/ADC_DelSig_1.c ****     
 852              		.loc 1 409 0
 853 00bc 1032     		adds	r2, r2, #16
 854 00be 1378     		ldrb	r3, [r2]	@ zero_extendqisi2
 855 00c0 03F0FE03 		and	r3, r3, #254
 856 00c4 1370     		strb	r3, [r2]
 411:.\Generated_Source\PSoC5/ADC_DelSig_1.c **** }
 857              		.loc 1 411 0
 858 00c6 3046     		mov	r0, r6
 859 00c8 FFF7FEFF 		bl	CyExitCriticalSection
 860              	.LVL63:
 861 00cc 70BD     		pop	{r4, r5, r6, pc}
 862              	.LVL64:
 863              	.L47:
 864 00ce 00BF     		.align	2
 865              	.L46:
 866 00d0 004E0040 		.word	1073761792
 867 00d4 F8460040 		.word	1073759992
 868 00d8 F9460040 		.word	1073759993
 869 00dc AA430040 		.word	1073759146
 870 00e0 77580040 		.word	1073764471
 871              		.cfi_endproc
 872              	.LFE3:
 873              		.size	ADC_DelSig_1_Stop, .-ADC_DelSig_1_Stop
 874              		.section	.text.ADC_DelSig_1_SetBufferGain,"ax",%progbits
 875              		.align	2
 876              		.global	ADC_DelSig_1_SetBufferGain
 877              		.thumb
 878              		.thumb_func
 879              		.type	ADC_DelSig_1_SetBufferGain, %function
 880              	ADC_DelSig_1_SetBufferGain:
 881              	.LFB4:
 430:.\Generated_Source\PSoC5/ADC_DelSig_1.c ****     uint8 tmpReg;
 882              		.loc 1 430 0
 883              		.cfi_startproc
ARM GAS  C:\Users\HANNAL~1\AppData\Local\Temp\ccGbhEeb.s 			page 49


 884              		@ args = 0, pretend = 0, frame = 0
 885              		@ frame_needed = 0, uses_anonymous_args = 0
 886              		@ link register save eliminated.
 887              	.LVL65:
 432:.\Generated_Source\PSoC5/ADC_DelSig_1.c ****     tmpReg |= (uint8)(gain << ADC_DelSig_1_DSM_GAIN_SHIFT) & ADC_DelSig_1_DSM_GAIN_MASK;
 888              		.loc 1 432 0
 889 0000 044A     		ldr	r2, .L49
 890 0002 1378     		ldrb	r3, [r2]	@ zero_extendqisi2
 891 0004 03F0F303 		and	r3, r3, #243
 892              	.LVL66:
 433:.\Generated_Source\PSoC5/ADC_DelSig_1.c ****     ADC_DelSig_1_DSM_BUF1_REG = tmpReg;
 893              		.loc 1 433 0
 894 0008 8000     		lsls	r0, r0, #2
 895              	.LVL67:
 896 000a 00F00C00 		and	r0, r0, #12
 897 000e 1843     		orrs	r0, r0, r3
 898              	.LVL68:
 434:.\Generated_Source\PSoC5/ADC_DelSig_1.c **** }
 899              		.loc 1 434 0
 900 0010 1070     		strb	r0, [r2]
 901 0012 7047     		bx	lr
 902              	.L50:
 903              		.align	2
 904              	.L49:
 905 0014 9B580040 		.word	1073764507
 906              		.cfi_endproc
 907              	.LFE4:
 908              		.size	ADC_DelSig_1_SetBufferGain, .-ADC_DelSig_1_SetBufferGain
 909              		.section	.text.ADC_DelSig_1_SetCoherency,"ax",%progbits
 910              		.align	2
 911              		.global	ADC_DelSig_1_SetCoherency
 912              		.thumb
 913              		.thumb_func
 914              		.type	ADC_DelSig_1_SetCoherency, %function
 915              	ADC_DelSig_1_SetCoherency:
 916              	.LFB5:
 466:.\Generated_Source\PSoC5/ADC_DelSig_1.c ****     uint8 tmpReg;
 917              		.loc 1 466 0
 918              		.cfi_startproc
 919              		@ args = 0, pretend = 0, frame = 0
 920              		@ frame_needed = 0, uses_anonymous_args = 0
 921              		@ link register save eliminated.
 922              	.LVL69:
 469:.\Generated_Source\PSoC5/ADC_DelSig_1.c ****     tmpReg |= coherency & ADC_DelSig_1_DEC_SAMP_KEY_MASK;
 923              		.loc 1 469 0
 924 0000 044A     		ldr	r2, .L52
 925 0002 1378     		ldrb	r3, [r2]	@ zero_extendqisi2
 926 0004 03F0FC03 		and	r3, r3, #252
 927              	.LVL70:
 470:.\Generated_Source\PSoC5/ADC_DelSig_1.c ****     ADC_DelSig_1_DEC_COHER_REG = tmpReg;
 928              		.loc 1 470 0
 929 0008 00F00300 		and	r0, r0, #3
 930              	.LVL71:
 931 000c 1843     		orrs	r0, r0, r3
 932              	.LVL72:
 471:.\Generated_Source\PSoC5/ADC_DelSig_1.c **** }
 933              		.loc 1 471 0
ARM GAS  C:\Users\HANNAL~1\AppData\Local\Temp\ccGbhEeb.s 			page 50


 934 000e 1070     		strb	r0, [r2]
 935 0010 7047     		bx	lr
 936              	.L53:
 937 0012 00BF     		.align	2
 938              	.L52:
 939 0014 144E0040 		.word	1073761812
 940              		.cfi_endproc
 941              	.LFE5:
 942              		.size	ADC_DelSig_1_SetCoherency, .-ADC_DelSig_1_SetCoherency
 943              		.global	__aeabi_ui2f
 944              		.global	__aeabi_fmul
 945              		.global	__aeabi_f2d
 946              		.global	__aeabi_dcmpgt
 947              		.global	__aeabi_f2uiz
 948              		.section	.text.ADC_DelSig_1_SetGCOR,"ax",%progbits
 949              		.align	2
 950              		.global	ADC_DelSig_1_SetGCOR
 951              		.thumb
 952              		.thumb_func
 953              		.type	ADC_DelSig_1_SetGCOR, %function
 954              	ADC_DelSig_1_SetGCOR:
 955              	.LFB6:
 506:.\Generated_Source\PSoC5/ADC_DelSig_1.c ****     uint16 tmpReg;
 956              		.loc 1 506 0
 957              		.cfi_startproc
 958              		@ args = 0, pretend = 0, frame = 0
 959              		@ frame_needed = 0, uses_anonymous_args = 0
 960              	.LVL73:
 961 0000 10B5     		push	{r4, lr}
 962              		.cfi_def_cfa_offset 8
 963              		.cfi_offset 4, -8
 964              		.cfi_offset 14, -4
 965 0002 0446     		mov	r4, r0
 511:.\Generated_Source\PSoC5/ADC_DelSig_1.c ****     tmpValue = ((float32)tmpReg / (float32)ADC_DelSig_1_IDEAL_GAIN_CONST);
 966              		.loc 1 511 0
 967 0004 184B     		ldr	r3, .L58+8
 968 0006 1B78     		ldrb	r3, [r3]	@ zero_extendqisi2
 969 0008 013B     		subs	r3, r3, #1
 970              	.LVL74:
 512:.\Generated_Source\PSoC5/ADC_DelSig_1.c ****     tmpValue = tmpValue * gainAdjust;
 971              		.loc 1 512 0
 972 000a 184A     		ldr	r2, .L58+12
 973 000c 32F82300 		ldrh	r0, [r2, r3, lsl #2]
 974              	.LVL75:
 975 0010 FFF7FEFF 		bl	__aeabi_ui2f
 976              	.LVL76:
 977 0014 4FF06051 		mov	r1, #939524096
 978 0018 FFF7FEFF 		bl	__aeabi_fmul
 979              	.LVL77:
 513:.\Generated_Source\PSoC5/ADC_DelSig_1.c **** 
 980              		.loc 1 513 0
 981 001c 2146     		mov	r1, r4
 982 001e FFF7FEFF 		bl	__aeabi_fmul
 983              	.LVL78:
 984 0022 0446     		mov	r4, r0
 985              	.LVL79:
 515:.\Generated_Source\PSoC5/ADC_DelSig_1.c ****     {
ARM GAS  C:\Users\HANNAL~1\AppData\Local\Temp\ccGbhEeb.s 			page 51


 986              		.loc 1 515 0
 987 0024 FFF7FEFF 		bl	__aeabi_f2d
 988              	.LVL80:
 989 0028 0DA3     		adr	r3, .L58
 990 002a D3E90023 		ldrd	r2, [r3]
 991 002e FFF7FEFF 		bl	__aeabi_dcmpgt
 992              	.LVL81:
 993 0032 88B9     		cbnz	r0, .L56
 521:.\Generated_Source\PSoC5/ADC_DelSig_1.c **** 		tmpReg = (uint16)tmpValue;
 994              		.loc 1 521 0
 995 0034 2046     		mov	r0, r4
 996 0036 4FF08E41 		mov	r1, #1191182336
 997 003a FFF7FEFF 		bl	__aeabi_fmul
 998              	.LVL82:
 522:.\Generated_Source\PSoC5/ADC_DelSig_1.c ****         CY_SET_REG16(ADC_DelSig_1_DEC_GCOR_16B_PTR, tmpReg);
 999              		.loc 1 522 0
 1000 003e FFF7FEFF 		bl	__aeabi_f2uiz
 1001              	.LVL83:
 1002 0042 80B2     		uxth	r0, r0
 1003              	.LVL84:
 523:.\Generated_Source\PSoC5/ADC_DelSig_1.c ****         /* Update gain array to be used by SelectConfiguration() API */
 1004              		.loc 1 523 0
 1005 0044 0A4B     		ldr	r3, .L58+16
 1006 0046 1880     		strh	r0, [r3]	@ movhi
 525:.\Generated_Source\PSoC5/ADC_DelSig_1.c **** 
 1007              		.loc 1 525 0
 1008 0048 074B     		ldr	r3, .L58+8
 1009 004a 1B78     		ldrb	r3, [r3]	@ zero_extendqisi2
 1010 004c 013B     		subs	r3, r3, #1
 1011 004e 074A     		ldr	r2, .L58+12
 1012 0050 22F82300 		strh	r0, [r2, r3, lsl #2]	@ movhi
 1013              	.LVL85:
 527:.\Generated_Source\PSoC5/ADC_DelSig_1.c **** 
 1014              		.loc 1 527 0
 1015 0054 0020     		movs	r0, #0
 1016              	.LVL86:
 1017 0056 10BD     		pop	{r4, pc}
 1018              	.LVL87:
 1019              	.L56:
 517:.\Generated_Source\PSoC5/ADC_DelSig_1.c ****     }
 1020              		.loc 1 517 0
 1021 0058 0120     		movs	r0, #1
 1022              	.LVL88:
 531:.\Generated_Source\PSoC5/ADC_DelSig_1.c **** 
 1023              		.loc 1 531 0
 1024 005a 10BD     		pop	{r4, pc}
 1025              	.LVL89:
 1026              	.L59:
 1027 005c AFF30080 		.align	3
 1028              	.L58:
 1029 0060 8F537424 		.word	611603343
 1030 0064 97FFFF3F 		.word	1073741719
 1031 0068 00000000 		.word	.LANCHOR1
 1032 006c 00000000 		.word	.LANCHOR0
 1033 0070 0C4E0040 		.word	1073761804
 1034              		.cfi_endproc
 1035              	.LFE6:
ARM GAS  C:\Users\HANNAL~1\AppData\Local\Temp\ccGbhEeb.s 			page 52


 1036              		.size	ADC_DelSig_1_SetGCOR, .-ADC_DelSig_1_SetGCOR
 1037 0074 AFF30080 		.section	.text.ADC_DelSig_1_ReadGCOR,"ax",%progbits
 1038              		.align	2
 1039              		.global	ADC_DelSig_1_ReadGCOR
 1040              		.thumb
 1041              		.thumb_func
 1042              		.type	ADC_DelSig_1_ReadGCOR, %function
 1043              	ADC_DelSig_1_ReadGCOR:
 1044              	.LFB7:
 553:.\Generated_Source\PSoC5/ADC_DelSig_1.c ****     uint8 gValue;
 1045              		.loc 1 553 0
 1046              		.cfi_startproc
 1047              		@ args = 0, pretend = 0, frame = 0
 1048              		@ frame_needed = 0, uses_anonymous_args = 0
 1049              		@ link register save eliminated.
 557:.\Generated_Source\PSoC5/ADC_DelSig_1.c ****     gcorValue = CY_GET_REG16(ADC_DelSig_1_DEC_GCOR_16B_PTR);
 1050              		.loc 1 557 0
 1051 0000 064B     		ldr	r3, .L62
 1052 0002 1B78     		ldrb	r3, [r3]	@ zero_extendqisi2
 1053 0004 DBB2     		uxtb	r3, r3
 1054              	.LVL90:
 558:.\Generated_Source\PSoC5/ADC_DelSig_1.c **** 
 1055              		.loc 1 558 0
 1056 0006 064A     		ldr	r2, .L62+4
 1057 0008 1088     		ldrh	r0, [r2]
 1058 000a 80B2     		uxth	r0, r0
 1059              	.LVL91:
 560:.\Generated_Source\PSoC5/ADC_DelSig_1.c ****     {
 1060              		.loc 1 560 0
 1061 000c 0E2B     		cmp	r3, #14
 1062 000e 03D8     		bhi	.L61
 562:.\Generated_Source\PSoC5/ADC_DelSig_1.c ****     }
 1063              		.loc 1 562 0
 1064 0010 C3F10F03 		rsb	r3, r3, #15
 1065              	.LVL92:
 1066 0014 9840     		lsls	r0, r0, r3
 1067              	.LVL93:
 1068 0016 80B2     		uxth	r0, r0
 1069              	.LVL94:
 1070              	.L61:
 566:.\Generated_Source\PSoC5/ADC_DelSig_1.c **** 
 1071              		.loc 1 566 0
 1072 0018 7047     		bx	lr
 1073              	.L63:
 1074 001a 00BF     		.align	2
 1075              	.L62:
 1076 001c 0E4E0040 		.word	1073761806
 1077 0020 0C4E0040 		.word	1073761804
 1078              		.cfi_endproc
 1079              	.LFE7:
 1080              		.size	ADC_DelSig_1_ReadGCOR, .-ADC_DelSig_1_ReadGCOR
 1081              		.section	.text.ADC_DelSig_1_StartConvert,"ax",%progbits
 1082              		.align	2
 1083              		.global	ADC_DelSig_1_StartConvert
 1084              		.thumb
 1085              		.thumb_func
 1086              		.type	ADC_DelSig_1_StartConvert, %function
ARM GAS  C:\Users\HANNAL~1\AppData\Local\Temp\ccGbhEeb.s 			page 53


 1087              	ADC_DelSig_1_StartConvert:
 1088              	.LFB8:
 587:.\Generated_Source\PSoC5/ADC_DelSig_1.c ****     /* Start the conversion */
 1089              		.loc 1 587 0
 1090              		.cfi_startproc
 1091              		@ args = 0, pretend = 0, frame = 0
 1092              		@ frame_needed = 0, uses_anonymous_args = 0
 1093              		@ link register save eliminated.
 589:.\Generated_Source\PSoC5/ADC_DelSig_1.c **** }
 1094              		.loc 1 589 0
 1095 0000 024A     		ldr	r2, .L65
 1096 0002 1378     		ldrb	r3, [r2]	@ zero_extendqisi2
 1097 0004 43F00103 		orr	r3, r3, #1
 1098 0008 1370     		strb	r3, [r2]
 1099 000a 7047     		bx	lr
 1100              	.L66:
 1101              		.align	2
 1102              	.L65:
 1103 000c 004E0040 		.word	1073761792
 1104              		.cfi_endproc
 1105              	.LFE8:
 1106              		.size	ADC_DelSig_1_StartConvert, .-ADC_DelSig_1_StartConvert
 1107              		.section	.text.ADC_DelSig_1_StopConvert,"ax",%progbits
 1108              		.align	2
 1109              		.global	ADC_DelSig_1_StopConvert
 1110              		.thumb
 1111              		.thumb_func
 1112              		.type	ADC_DelSig_1_StopConvert, %function
 1113              	ADC_DelSig_1_StopConvert:
 1114              	.LFB9:
 610:.\Generated_Source\PSoC5/ADC_DelSig_1.c ****     /* Stop all conversions */
 1115              		.loc 1 610 0
 1116              		.cfi_startproc
 1117              		@ args = 0, pretend = 0, frame = 0
 1118              		@ frame_needed = 0, uses_anonymous_args = 0
 1119              		@ link register save eliminated.
 612:.\Generated_Source\PSoC5/ADC_DelSig_1.c **** }
 1120              		.loc 1 612 0
 1121 0000 024A     		ldr	r2, .L68
 1122 0002 1378     		ldrb	r3, [r2]	@ zero_extendqisi2
 1123 0004 03F0FE03 		and	r3, r3, #254
 1124 0008 1370     		strb	r3, [r2]
 1125 000a 7047     		bx	lr
 1126              	.L69:
 1127              		.align	2
 1128              	.L68:
 1129 000c 004E0040 		.word	1073761792
 1130              		.cfi_endproc
 1131              	.LFE9:
 1132              		.size	ADC_DelSig_1_StopConvert, .-ADC_DelSig_1_StopConvert
 1133              		.section	.text.ADC_DelSig_1_IsEndConversion,"ax",%progbits
 1134              		.align	2
 1135              		.global	ADC_DelSig_1_IsEndConversion
 1136              		.thumb
 1137              		.thumb_func
 1138              		.type	ADC_DelSig_1_IsEndConversion, %function
 1139              	ADC_DelSig_1_IsEndConversion:
ARM GAS  C:\Users\HANNAL~1\AppData\Local\Temp\ccGbhEeb.s 			page 54


 1140              	.LFB10:
 645:.\Generated_Source\PSoC5/ADC_DelSig_1.c ****     uint8 status;
 1141              		.loc 1 645 0
 1142              		.cfi_startproc
 1143              		@ args = 0, pretend = 0, frame = 0
 1144              		@ frame_needed = 0, uses_anonymous_args = 0
 1145              		@ link register save eliminated.
 1146              	.LVL95:
 1147              	.L74:
 653:.\Generated_Source\PSoC5/ADC_DelSig_1.c ****         {
 1148              		.loc 1 653 0
 1149 0000 094B     		ldr	r3, .L75
 1150 0002 1B79     		ldrb	r3, [r3, #4]	@ zero_extendqisi2
 1151 0004 13F0FF0F 		tst	r3, #255
 1152 0008 03D0     		beq	.L71
 655:.\Generated_Source\PSoC5/ADC_DelSig_1.c ****         }
 1153              		.loc 1 655 0
 1154 000a 074B     		ldr	r3, .L75
 1155 000c 5B79     		ldrb	r3, [r3, #5]	@ zero_extendqisi2
 1156 000e DBB2     		uxtb	r3, r3
 1157              	.LVL96:
 1158 0010 03E0     		b	.L72
 1159              	.LVL97:
 1160              	.L71:
 659:.\Generated_Source\PSoC5/ADC_DelSig_1.c ****         }
 1161              		.loc 1 659 0
 1162 0012 064B     		ldr	r3, .L75+4
 1163 0014 1B78     		ldrb	r3, [r3]	@ zero_extendqisi2
 1164 0016 03F00103 		and	r3, r3, #1
 1165              	.LVL98:
 1166              	.L72:
 661:.\Generated_Source\PSoC5/ADC_DelSig_1.c **** 
 1167              		.loc 1 661 0
 1168 001a 012B     		cmp	r3, #1
 1169 001c 01D0     		beq	.L73
 661:.\Generated_Source\PSoC5/ADC_DelSig_1.c **** 
 1170              		.loc 1 661 0 is_stmt 0 discriminator 1
 1171 001e 0028     		cmp	r0, #0
 1172 0020 EED0     		beq	.L74
 1173              	.L73:
 664:.\Generated_Source\PSoC5/ADC_DelSig_1.c **** 
 1174              		.loc 1 664 0 is_stmt 1
 1175 0022 1846     		mov	r0, r3
 1176              	.LVL99:
 1177 0024 7047     		bx	lr
 1178              	.L76:
 1179 0026 00BF     		.align	2
 1180              	.L75:
 1181 0028 00000000 		.word	.LANCHOR0
 1182 002c 014E0040 		.word	1073761793
 1183              		.cfi_endproc
 1184              	.LFE10:
 1185              		.size	ADC_DelSig_1_IsEndConversion, .-ADC_DelSig_1_IsEndConversion
 1186              		.section	.text.ADC_DelSig_1_GetResult8,"ax",%progbits
 1187              		.align	2
 1188              		.global	ADC_DelSig_1_GetResult8
 1189              		.thumb
ARM GAS  C:\Users\HANNAL~1\AppData\Local\Temp\ccGbhEeb.s 			page 55


 1190              		.thumb_func
 1191              		.type	ADC_DelSig_1_GetResult8, %function
 1192              	ADC_DelSig_1_GetResult8:
 1193              	.LFB11:
 692:.\Generated_Source\PSoC5/ADC_DelSig_1.c ****     int8 result;
 1194              		.loc 1 692 0
 1195              		.cfi_startproc
 1196              		@ args = 0, pretend = 0, frame = 0
 1197              		@ frame_needed = 0, uses_anonymous_args = 0
 1198              		@ link register save eliminated.
 697:.\Generated_Source\PSoC5/ADC_DelSig_1.c **** 
 1199              		.loc 1 697 0
 1200 0000 0C4B     		ldr	r3, .L81
 1201 0002 1B78     		ldrb	r3, [r3]	@ zero_extendqisi2
 1202 0004 03F00303 		and	r3, r3, #3
 1203              	.LVL100:
 699:.\Generated_Source\PSoC5/ADC_DelSig_1.c **** 
 1204              		.loc 1 699 0
 1205 0008 0B4A     		ldr	r2, .L81+4
 1206 000a 1078     		ldrb	r0, [r2]	@ zero_extendqisi2
 1207              	.LVL101:
 701:.\Generated_Source\PSoC5/ADC_DelSig_1.c ****     {   /* Dummy read of the middle byte to unlock the coherency */
 1208              		.loc 1 701 0
 1209 000c 022B     		cmp	r3, #2
 1210 000e 02D1     		bne	.L78
 703:.\Generated_Source\PSoC5/ADC_DelSig_1.c ****     }
 1211              		.loc 1 703 0
 1212 0010 0A4B     		ldr	r3, .L81+8
 1213              	.LVL102:
 1214 0012 1B78     		ldrb	r3, [r3]	@ zero_extendqisi2
 1215 0014 03E0     		b	.L79
 1216              	.LVL103:
 1217              	.L78:
 705:.\Generated_Source\PSoC5/ADC_DelSig_1.c ****     {   /* Dummy read of the MSB byte to unlock the coherency */
 1218              		.loc 1 705 0
 1219 0016 032B     		cmp	r3, #3
 1220 0018 01D1     		bne	.L79
 707:.\Generated_Source\PSoC5/ADC_DelSig_1.c ****     }
 1221              		.loc 1 707 0
 1222 001a 094B     		ldr	r3, .L81+12
 1223              	.LVL104:
 1224 001c 1B78     		ldrb	r3, [r3]	@ zero_extendqisi2
 1225              	.L79:
 713:.\Generated_Source\PSoC5/ADC_DelSig_1.c ****     {
 1226              		.loc 1 713 0
 1227 001e 094B     		ldr	r3, .L81+16
 1228 0020 1B79     		ldrb	r3, [r3, #4]	@ zero_extendqisi2
 1229 0022 13F0FF0F 		tst	r3, #255
 1230 0026 02D0     		beq	.L80
 715:.\Generated_Source\PSoC5/ADC_DelSig_1.c ****     }
 1231              		.loc 1 715 0
 1232 0028 0022     		movs	r2, #0
 1233 002a 064B     		ldr	r3, .L81+16
 1234 002c 5A71     		strb	r2, [r3, #5]
 1235              	.L80:
 718:.\Generated_Source\PSoC5/ADC_DelSig_1.c **** 
 1236              		.loc 1 718 0
ARM GAS  C:\Users\HANNAL~1\AppData\Local\Temp\ccGbhEeb.s 			page 56


 1237 002e 40B2     		sxtb	r0, r0
 1238 0030 7047     		bx	lr
 1239              	.L82:
 1240 0032 00BF     		.align	2
 1241              	.L81:
 1242 0034 144E0040 		.word	1073761812
 1243 0038 104E0040 		.word	1073761808
 1244 003c 114E0040 		.word	1073761809
 1245 0040 124E0040 		.word	1073761810
 1246 0044 00000000 		.word	.LANCHOR0
 1247              		.cfi_endproc
 1248              	.LFE11:
 1249              		.size	ADC_DelSig_1_GetResult8, .-ADC_DelSig_1_GetResult8
 1250              		.section	.text.ADC_DelSig_1_GetResult16,"ax",%progbits
 1251              		.align	2
 1252              		.global	ADC_DelSig_1_GetResult16
 1253              		.thumb
 1254              		.thumb_func
 1255              		.type	ADC_DelSig_1_GetResult16, %function
 1256              	ADC_DelSig_1_GetResult16:
 1257              	.LFB12:
 746:.\Generated_Source\PSoC5/ADC_DelSig_1.c ****     uint16 result;
 1258              		.loc 1 746 0
 1259              		.cfi_startproc
 1260              		@ args = 0, pretend = 0, frame = 0
 1261              		@ frame_needed = 0, uses_anonymous_args = 0
 1262              		@ link register save eliminated.
 751:.\Generated_Source\PSoC5/ADC_DelSig_1.c **** 
 1263              		.loc 1 751 0
 1264 0000 0E4B     		ldr	r3, .L87
 1265 0002 1B78     		ldrb	r3, [r3]	@ zero_extendqisi2
 1266 0004 03F00303 		and	r3, r3, #3
 1267              	.LVL105:
 753:.\Generated_Source\PSoC5/ADC_DelSig_1.c ****     {   /*  Use default method to read result registers i.e. LSB byte read at the end*/
 1268              		.loc 1 753 0
 1269 0008 012B     		cmp	r3, #1
 1270 000a 03D8     		bhi	.L84
 759:.\Generated_Source\PSoC5/ADC_DelSig_1.c ****         #endif /* CY_PSOC3 */
 1271              		.loc 1 759 0
 1272 000c 0C4B     		ldr	r3, .L87+4
 1273              	.LVL106:
 1274 000e 1888     		ldrh	r0, [r3]
 1275 0010 80B2     		uxth	r0, r0
 1276              	.LVL107:
 1277 0012 09E0     		b	.L85
 1278              	.LVL108:
 1279              	.L84:
 767:.\Generated_Source\PSoC5/ADC_DelSig_1.c ****             result |=  (uint16)((uint16)ADC_DelSig_1_DEC_SAMPM_REG << 8u);
 1280              		.loc 1 767 0
 1281 0014 0A4A     		ldr	r2, .L87+4
 1282 0016 1278     		ldrb	r2, [r2]	@ zero_extendqisi2
 1283              	.LVL109:
 768:.\Generated_Source\PSoC5/ADC_DelSig_1.c ****         #endif /* CY_PSOC3 */
 1284              		.loc 1 768 0
 1285 0018 0A49     		ldr	r1, .L87+8
 1286 001a 0878     		ldrb	r0, [r1]	@ zero_extendqisi2
 1287 001c 42EA0020 		orr	r0, r2, r0, lsl #8
ARM GAS  C:\Users\HANNAL~1\AppData\Local\Temp\ccGbhEeb.s 			page 57


 1288              	.LVL110:
 770:.\Generated_Source\PSoC5/ADC_DelSig_1.c ****         {   /* Dummy read of the MSB byte to unlock the coherency */
 1289              		.loc 1 770 0
 1290 0020 032B     		cmp	r3, #3
 1291 0022 01D1     		bne	.L85
 772:.\Generated_Source\PSoC5/ADC_DelSig_1.c ****         }
 1292              		.loc 1 772 0
 1293 0024 084B     		ldr	r3, .L87+12
 1294              	.LVL111:
 1295 0026 1B78     		ldrb	r3, [r3]	@ zero_extendqisi2
 1296              	.L85:
 776:.\Generated_Source\PSoC5/ADC_DelSig_1.c ****     {
 1297              		.loc 1 776 0
 1298 0028 084B     		ldr	r3, .L87+16
 1299 002a 1B79     		ldrb	r3, [r3, #4]	@ zero_extendqisi2
 1300 002c 13F0FF0F 		tst	r3, #255
 1301 0030 02D0     		beq	.L86
 778:.\Generated_Source\PSoC5/ADC_DelSig_1.c ****     }
 1302              		.loc 1 778 0
 1303 0032 0022     		movs	r2, #0
 1304 0034 054B     		ldr	r3, .L87+16
 1305 0036 5A71     		strb	r2, [r3, #5]
 1306              	.L86:
 782:.\Generated_Source\PSoC5/ADC_DelSig_1.c **** 
 1307              		.loc 1 782 0
 1308 0038 00B2     		sxth	r0, r0
 1309 003a 7047     		bx	lr
 1310              	.L88:
 1311              		.align	2
 1312              	.L87:
 1313 003c 144E0040 		.word	1073761812
 1314 0040 104E0040 		.word	1073761808
 1315 0044 114E0040 		.word	1073761809
 1316 0048 124E0040 		.word	1073761810
 1317 004c 00000000 		.word	.LANCHOR0
 1318              		.cfi_endproc
 1319              	.LFE12:
 1320              		.size	ADC_DelSig_1_GetResult16, .-ADC_DelSig_1_GetResult16
 1321              		.section	.text.ADC_DelSig_1_GetResult32,"ax",%progbits
 1322              		.align	2
 1323              		.global	ADC_DelSig_1_GetResult32
 1324              		.thumb
 1325              		.thumb_func
 1326              		.type	ADC_DelSig_1_GetResult32, %function
 1327              	ADC_DelSig_1_GetResult32:
 1328              	.LFB13:
 806:.\Generated_Source\PSoC5/ADC_DelSig_1.c ****     uint32 result;
 1329              		.loc 1 806 0
 1330              		.cfi_startproc
 1331              		@ args = 0, pretend = 0, frame = 0
 1332              		@ frame_needed = 0, uses_anonymous_args = 0
 1333              		@ link register save eliminated.
 814:.\Generated_Source\PSoC5/ADC_DelSig_1.c **** 
 1334              		.loc 1 814 0
 1335 0000 154B     		ldr	r3, .L94
 1336 0002 1B78     		ldrb	r3, [r3]	@ zero_extendqisi2
 1337 0004 03F00303 		and	r3, r3, #3
ARM GAS  C:\Users\HANNAL~1\AppData\Local\Temp\ccGbhEeb.s 			page 58


 1338              	.LVL112:
 816:.\Generated_Source\PSoC5/ADC_DelSig_1.c ****     {   /*  Use default method to read result registers i.e. LSB byte read at the end*/
 1339              		.loc 1 816 0
 1340 0008 012B     		cmp	r3, #1
 1341 000a 07D8     		bhi	.L90
 827:.\Generated_Source\PSoC5/ADC_DelSig_1.c ****             result = (result << 16u) | (CY_GET_REG16(ADC_DelSig_1_DEC_SAMP_16B_PTR));
 1342              		.loc 1 827 0
 1343 000c 134B     		ldr	r3, .L94+4
 1344              	.LVL113:
 1345 000e 1888     		ldrh	r0, [r3]
 1346              	.LVL114:
 828:.\Generated_Source\PSoC5/ADC_DelSig_1.c ****         #endif /* CY_PSOC3 */
 1347              		.loc 1 828 0
 1348 0010 023B     		subs	r3, r3, #2
 1349 0012 1B88     		ldrh	r3, [r3]
 1350 0014 9BB2     		uxth	r3, r3
 1351 0016 43EA0040 		orr	r0, r3, r0, lsl #16
 1352              	.LVL115:
 1353 001a 13E0     		b	.L91
 1354              	.LVL116:
 1355              	.L90:
 831:.\Generated_Source\PSoC5/ADC_DelSig_1.c ****     {   /* Read middle byte at the end */
 1356              		.loc 1 831 0
 1357 001c 022B     		cmp	r3, #2
 1358 001e 0AD1     		bne	.L92
 841:.\Generated_Source\PSoC5/ADC_DelSig_1.c ****             result = (result << 16u) | ADC_DelSig_1_DEC_SAMP_REG;
 1359              		.loc 1 841 0
 1360 0020 0E4B     		ldr	r3, .L94+4
 1361              	.LVL117:
 1362 0022 1888     		ldrh	r0, [r3]
 1363              	.LVL118:
 842:.\Generated_Source\PSoC5/ADC_DelSig_1.c ****             result |=  (uint32)((uint32)ADC_DelSig_1_DEC_SAMPM_REG << 8u);
 1364              		.loc 1 842 0
 1365 0024 023B     		subs	r3, r3, #2
 1366 0026 1B78     		ldrb	r3, [r3]	@ zero_extendqisi2
 1367 0028 43EA0043 		orr	r3, r3, r0, lsl #16
 1368              	.LVL119:
 843:.\Generated_Source\PSoC5/ADC_DelSig_1.c ****         #endif /* CY_PSOC3 */
 1369              		.loc 1 843 0
 1370 002c 0C4A     		ldr	r2, .L94+8
 1371 002e 1078     		ldrb	r0, [r2]	@ zero_extendqisi2
 1372 0030 43EA0020 		orr	r0, r3, r0, lsl #8
 1373              	.LVL120:
 1374 0034 06E0     		b	.L91
 1375              	.LVL121:
 1376              	.L92:
 858:.\Generated_Source\PSoC5/ADC_DelSig_1.c ****             result |= (uint32)((uint32)CY_GET_REG16(ADC_DelSig_1_DEC_SAMPH_16B_PTR) << 16u);
 1377              		.loc 1 858 0
 1378 0036 0B4B     		ldr	r3, .L94+12
 1379              	.LVL122:
 1380 0038 1888     		ldrh	r0, [r3]
 1381 003a 83B2     		uxth	r3, r0
 1382              	.LVL123:
 859:.\Generated_Source\PSoC5/ADC_DelSig_1.c ****         #endif /* CY_PSOC3 */
 1383              		.loc 1 859 0
 1384 003c 074A     		ldr	r2, .L94+4
 1385 003e 1088     		ldrh	r0, [r2]
ARM GAS  C:\Users\HANNAL~1\AppData\Local\Temp\ccGbhEeb.s 			page 59


 1386 0040 43EA0040 		orr	r0, r3, r0, lsl #16
 1387              	.LVL124:
 1388              	.L91:
 863:.\Generated_Source\PSoC5/ADC_DelSig_1.c ****     {
 1389              		.loc 1 863 0
 1390 0044 084B     		ldr	r3, .L94+16
 1391 0046 1B79     		ldrb	r3, [r3, #4]	@ zero_extendqisi2
 1392 0048 13F0FF0F 		tst	r3, #255
 1393 004c 02D0     		beq	.L93
 865:.\Generated_Source\PSoC5/ADC_DelSig_1.c ****     }
 1394              		.loc 1 865 0
 1395 004e 0022     		movs	r2, #0
 1396 0050 054B     		ldr	r3, .L94+16
 1397 0052 5A71     		strb	r2, [r3, #5]
 1398              	.L93:
 869:.\Generated_Source\PSoC5/ADC_DelSig_1.c **** 
 1399              		.loc 1 869 0
 1400 0054 7047     		bx	lr
 1401              	.L95:
 1402 0056 00BF     		.align	2
 1403              	.L94:
 1404 0058 144E0040 		.word	1073761812
 1405 005c 124E0040 		.word	1073761810
 1406 0060 114E0040 		.word	1073761809
 1407 0064 104E0040 		.word	1073761808
 1408 0068 00000000 		.word	.LANCHOR0
 1409              		.cfi_endproc
 1410              	.LFE13:
 1411              		.size	ADC_DelSig_1_GetResult32, .-ADC_DelSig_1_GetResult32
 1412              		.section	.text.ADC_DelSig_1_SetOffset,"ax",%progbits
 1413              		.align	2
 1414              		.global	ADC_DelSig_1_SetOffset
 1415              		.thumb
 1416              		.thumb_func
 1417              		.type	ADC_DelSig_1_SetOffset, %function
 1418              	ADC_DelSig_1_SetOffset:
 1419              	.LFB14:
 899:.\Generated_Source\PSoC5/ADC_DelSig_1.c **** 
 1420              		.loc 1 899 0
 1421              		.cfi_startproc
 1422              		@ args = 0, pretend = 0, frame = 0
 1423              		@ frame_needed = 0, uses_anonymous_args = 0
 1424              		@ link register save eliminated.
 1425              	.LVL125:
 901:.\Generated_Source\PSoC5/ADC_DelSig_1.c **** }
 1426              		.loc 1 901 0
 1427 0000 014B     		ldr	r3, .L97
 1428 0002 1860     		str	r0, [r3]
 1429 0004 7047     		bx	lr
 1430              	.L98:
 1431 0006 00BF     		.align	2
 1432              	.L97:
 1433 0008 00000000 		.word	ADC_DelSig_1_Offset
 1434              		.cfi_endproc
 1435              	.LFE14:
 1436              		.size	ADC_DelSig_1_SetOffset, .-ADC_DelSig_1_SetOffset
 1437              		.section	.text.ADC_DelSig_1_SetGain,"ax",%progbits
ARM GAS  C:\Users\HANNAL~1\AppData\Local\Temp\ccGbhEeb.s 			page 60


 1438              		.align	2
 1439              		.global	ADC_DelSig_1_SetGain
 1440              		.thumb
 1441              		.thumb_func
 1442              		.type	ADC_DelSig_1_SetGain, %function
 1443              	ADC_DelSig_1_SetGain:
 1444              	.LFB15:
 934:.\Generated_Source\PSoC5/ADC_DelSig_1.c ****     ADC_DelSig_1_CountsPerVolt = adcGain;
 1445              		.loc 1 934 0
 1446              		.cfi_startproc
 1447              		@ args = 0, pretend = 0, frame = 0
 1448              		@ frame_needed = 0, uses_anonymous_args = 0
 1449              		@ link register save eliminated.
 1450              	.LVL126:
 935:.\Generated_Source\PSoC5/ADC_DelSig_1.c **** }
 1451              		.loc 1 935 0
 1452 0000 014B     		ldr	r3, .L100
 1453 0002 1860     		str	r0, [r3]
 1454 0004 7047     		bx	lr
 1455              	.L101:
 1456 0006 00BF     		.align	2
 1457              	.L100:
 1458 0008 00000000 		.word	ADC_DelSig_1_CountsPerVolt
 1459              		.cfi_endproc
 1460              	.LFE15:
 1461              		.size	ADC_DelSig_1_SetGain, .-ADC_DelSig_1_SetGain
 1462              		.section	.text.ADC_DelSig_1_CountsTo_mVolts,"ax",%progbits
 1463              		.align	2
 1464              		.global	ADC_DelSig_1_CountsTo_mVolts
 1465              		.thumb
 1466              		.thumb_func
 1467              		.type	ADC_DelSig_1_CountsTo_mVolts, %function
 1468              	ADC_DelSig_1_CountsTo_mVolts:
 1469              	.LFB16:
 961:.\Generated_Source\PSoC5/ADC_DelSig_1.c **** 
 1470              		.loc 1 961 0
 1471              		.cfi_startproc
 1472              		@ args = 0, pretend = 0, frame = 0
 1473              		@ frame_needed = 0, uses_anonymous_args = 0
 1474              		@ link register save eliminated.
 1475              	.LVL127:
 992:.\Generated_Source\PSoC5/ADC_DelSig_1.c **** 
 1476              		.loc 1 992 0
 1477 0000 064B     		ldr	r3, .L103
 1478 0002 1B68     		ldr	r3, [r3]
 1479 0004 C01A     		subs	r0, r0, r3
 1480              	.LVL128:
 994:.\Generated_Source\PSoC5/ADC_DelSig_1.c **** 
 1481              		.loc 1 994 0
 1482 0006 4FF47A73 		mov	r3, #1000
 1483 000a 03FB00F0 		mul	r0, r3, r0
 1484              	.LVL129:
 1485 000e 044B     		ldr	r3, .L103+4
 1486 0010 1B68     		ldr	r3, [r3]
 1487 0012 90FBF3F0 		sdiv	r0, r0, r3
 1488              	.LVL130:
 997:.\Generated_Source\PSoC5/ADC_DelSig_1.c **** 
ARM GAS  C:\Users\HANNAL~1\AppData\Local\Temp\ccGbhEeb.s 			page 61


 1489              		.loc 1 997 0
 1490 0016 00B2     		sxth	r0, r0
 1491 0018 7047     		bx	lr
 1492              	.L104:
 1493 001a 00BF     		.align	2
 1494              	.L103:
 1495 001c 00000000 		.word	ADC_DelSig_1_Offset
 1496 0020 00000000 		.word	ADC_DelSig_1_CountsPerVolt
 1497              		.cfi_endproc
 1498              	.LFE16:
 1499              		.size	ADC_DelSig_1_CountsTo_mVolts, .-ADC_DelSig_1_CountsTo_mVolts
 1500              		.global	__aeabi_i2f
 1501              		.global	__aeabi_fdiv
 1502              		.section	.text.ADC_DelSig_1_CountsTo_Volts,"ax",%progbits
 1503              		.align	2
 1504              		.global	ADC_DelSig_1_CountsTo_Volts
 1505              		.thumb
 1506              		.thumb_func
 1507              		.type	ADC_DelSig_1_CountsTo_Volts, %function
 1508              	ADC_DelSig_1_CountsTo_Volts:
 1509              	.LFB17:
1022:.\Generated_Source\PSoC5/ADC_DelSig_1.c **** 
 1510              		.loc 1 1022 0
 1511              		.cfi_startproc
 1512              		@ args = 0, pretend = 0, frame = 0
 1513              		@ frame_needed = 0, uses_anonymous_args = 0
 1514              	.LVL131:
 1515 0000 10B5     		push	{r4, lr}
 1516              		.cfi_def_cfa_offset 8
 1517              		.cfi_offset 4, -8
 1518              		.cfi_offset 14, -4
1053:.\Generated_Source\PSoC5/ADC_DelSig_1.c **** 
 1519              		.loc 1 1053 0
 1520 0002 074B     		ldr	r3, .L107
 1521 0004 1B68     		ldr	r3, [r3]
 1522              	.LVL132:
1055:.\Generated_Source\PSoC5/ADC_DelSig_1.c **** 
 1523              		.loc 1 1055 0
 1524 0006 C01A     		subs	r0, r0, r3
 1525              	.LVL133:
 1526 0008 FFF7FEFF 		bl	__aeabi_i2f
 1527              	.LVL134:
 1528 000c 0446     		mov	r4, r0
 1529 000e 054B     		ldr	r3, .L107+4
 1530 0010 1868     		ldr	r0, [r3]
 1531 0012 FFF7FEFF 		bl	__aeabi_i2f
 1532              	.LVL135:
 1533 0016 0146     		mov	r1, r0
 1534 0018 2046     		mov	r0, r4
 1535 001a FFF7FEFF 		bl	__aeabi_fdiv
 1536              	.LVL136:
1058:.\Generated_Source\PSoC5/ADC_DelSig_1.c **** 
 1537              		.loc 1 1058 0
 1538 001e 10BD     		pop	{r4, pc}
 1539              	.L108:
 1540              		.align	2
 1541              	.L107:
ARM GAS  C:\Users\HANNAL~1\AppData\Local\Temp\ccGbhEeb.s 			page 62


 1542 0020 00000000 		.word	ADC_DelSig_1_Offset
 1543 0024 00000000 		.word	ADC_DelSig_1_CountsPerVolt
 1544              		.cfi_endproc
 1545              	.LFE17:
 1546              		.size	ADC_DelSig_1_CountsTo_Volts, .-ADC_DelSig_1_CountsTo_Volts
 1547              		.section	.text.ADC_DelSig_1_CountsTo_uVolts,"ax",%progbits
 1548              		.align	2
 1549              		.global	ADC_DelSig_1_CountsTo_uVolts
 1550              		.thumb
 1551              		.thumb_func
 1552              		.type	ADC_DelSig_1_CountsTo_uVolts, %function
 1553              	ADC_DelSig_1_CountsTo_uVolts:
 1554              	.LFB18:
1088:.\Generated_Source\PSoC5/ADC_DelSig_1.c **** 
 1555              		.loc 1 1088 0
 1556              		.cfi_startproc
 1557              		@ args = 0, pretend = 0, frame = 0
 1558              		@ frame_needed = 0, uses_anonymous_args = 0
 1559              		@ link register save eliminated.
 1560              	.LVL137:
1097:.\Generated_Source\PSoC5/ADC_DelSig_1.c ****     {
 1561              		.loc 1 1097 0
 1562 0000 144B     		ldr	r3, .L117
 1563 0002 1B78     		ldrb	r3, [r3]	@ zero_extendqisi2
 1564 0004 DBB2     		uxtb	r3, r3
 1565 0006 012B     		cmp	r3, #1
 1566 0008 08D0     		beq	.L113
1104:.\Generated_Source\PSoC5/ADC_DelSig_1.c ****     {
 1567              		.loc 1 1104 0
 1568 000a 124B     		ldr	r3, .L117
 1569 000c 1B78     		ldrb	r3, [r3]	@ zero_extendqisi2
 1570 000e DBB2     		uxtb	r3, r3
 1571 0010 022B     		cmp	r3, #2
 1572 0012 05D0     		beq	.L114
1111:.\Generated_Source\PSoC5/ADC_DelSig_1.c ****     {
 1573              		.loc 1 1111 0
 1574 0014 0F4B     		ldr	r3, .L117
 1575 0016 1B78     		ldrb	r3, [r3]	@ zero_extendqisi2
1113:.\Generated_Source\PSoC5/ADC_DelSig_1.c ****         #if(ADC_DelSig_1_CFG3_DEC_DIV != 0)
 1576              		.loc 1 1113 0
 1577 0018 1023     		movs	r3, #16
 1578 001a 02E0     		b	.L110
 1579              	.L113:
1099:.\Generated_Source\PSoC5/ADC_DelSig_1.c ****         #if(ADC_DelSig_1_CFG1_DEC_DIV != 0)
 1580              		.loc 1 1099 0
 1581 001c 0823     		movs	r3, #8
 1582 001e 00E0     		b	.L110
 1583              	.L114:
1106:.\Generated_Source\PSoC5/ADC_DelSig_1.c ****         #if(ADC_DelSig_1_CFG2_DEC_DIV != 0)
 1584              		.loc 1 1106 0
 1585 0020 1023     		movs	r3, #16
 1586              	.L110:
 1587              	.LVL138:
1126:.\Generated_Source\PSoC5/ADC_DelSig_1.c ****     {
 1588              		.loc 1 1126 0
 1589 0022 102B     		cmp	r3, #16
 1590 0024 03D1     		bne	.L116
ARM GAS  C:\Users\HANNAL~1\AppData\Local\Temp\ccGbhEeb.s 			page 63


1170:.\Generated_Source\PSoC5/ADC_DelSig_1.c ****                 break;
 1591              		.loc 1 1170 0
 1592 0026 2021     		movs	r1, #32
1169:.\Generated_Source\PSoC5/ADC_DelSig_1.c ****                 coefB = ADC_DelSig_1_DIVISOR_32;
 1593              		.loc 1 1169 0
 1594 0028 47F61223 		movw	r3, #31250
 1595              	.LVL139:
 1596 002c 01E0     		b	.L111
 1597              	.LVL140:
 1598              	.L116:
1212:.\Generated_Source\PSoC5/ADC_DelSig_1.c ****             break;
 1599              		.loc 1 1212 0
 1600 002e 0121     		movs	r1, #1
1211:.\Generated_Source\PSoC5/ADC_DelSig_1.c ****             coefB = ADC_DelSig_1_DIVISOR_1;
 1601              		.loc 1 1211 0
 1602 0030 094B     		ldr	r3, .L117+4
 1603              	.LVL141:
 1604              	.L111:
1215:.\Generated_Source\PSoC5/ADC_DelSig_1.c ****     uVolts = ((coefA * adcCounts) / coefB) - ((coefA * ADC_DelSig_1_Offset) / coefB);
 1605              		.loc 1 1215 0
 1606 0032 0A4A     		ldr	r2, .L117+8
 1607 0034 1268     		ldr	r2, [r2]
 1608 0036 92FBF1F1 		sdiv	r1, r2, r1
 1609              	.LVL142:
1216:.\Generated_Source\PSoC5/ADC_DelSig_1.c **** 
 1610              		.loc 1 1216 0
 1611 003a 00FB03F0 		mul	r0, r0, r3
 1612              	.LVL143:
 1613 003e 90FBF1F0 		sdiv	r0, r0, r1
 1614 0042 074A     		ldr	r2, .L117+12
 1615 0044 1268     		ldr	r2, [r2]
 1616 0046 02FB03F3 		mul	r3, r2, r3
 1617              	.LVL144:
 1618 004a 93FBF1F3 		sdiv	r3, r3, r1
 1619              	.LVL145:
1219:.\Generated_Source\PSoC5/ADC_DelSig_1.c **** 
 1620              		.loc 1 1219 0
 1621 004e C01A     		subs	r0, r0, r3
 1622              	.LVL146:
 1623 0050 7047     		bx	lr
 1624              	.L118:
 1625 0052 00BF     		.align	2
 1626              	.L117:
 1627 0054 00000000 		.word	.LANCHOR1
 1628 0058 40420F00 		.word	1000000
 1629 005c 00000000 		.word	ADC_DelSig_1_CountsPerVolt
 1630 0060 00000000 		.word	ADC_DelSig_1_Offset
 1631              		.cfi_endproc
 1632              	.LFE18:
 1633              		.size	ADC_DelSig_1_CountsTo_uVolts, .-ADC_DelSig_1_CountsTo_uVolts
 1634              		.section	.text.ADC_DelSig_1_SelectConfiguration,"ax",%progbits
 1635              		.align	2
 1636              		.global	ADC_DelSig_1_SelectConfiguration
 1637              		.thumb
 1638              		.thumb_func
 1639              		.type	ADC_DelSig_1_SelectConfiguration, %function
 1640              	ADC_DelSig_1_SelectConfiguration:
ARM GAS  C:\Users\HANNAL~1\AppData\Local\Temp\ccGbhEeb.s 			page 64


 1641              	.LFB20:
1554:.\Generated_Source\PSoC5/ADC_DelSig_1.c ****     /* Check whether the configuration number is valid or not */
 1642              		.loc 1 1554 0
 1643              		.cfi_startproc
 1644              		@ args = 0, pretend = 0, frame = 0
 1645              		@ frame_needed = 0, uses_anonymous_args = 0
 1646              	.LVL147:
 1647 0000 38B5     		push	{r3, r4, r5, lr}
 1648              		.cfi_def_cfa_offset 16
 1649              		.cfi_offset 3, -16
 1650              		.cfi_offset 4, -12
 1651              		.cfi_offset 5, -8
 1652              		.cfi_offset 14, -4
 1653 0002 0446     		mov	r4, r0
1556:.\Generated_Source\PSoC5/ADC_DelSig_1.c ****     {
 1654              		.loc 1 1556 0
 1655 0004 0128     		cmp	r0, #1
 1656 0006 1FD1     		bne	.L120
 1657 0008 0D46     		mov	r5, r1
1561:.\Generated_Source\PSoC5/ADC_DelSig_1.c ****         {
 1658              		.loc 1 1561 0
 1659 000a 114B     		ldr	r3, .L124
 1660 000c 9B79     		ldrb	r3, [r3, #6]	@ zero_extendqisi2
 1661 000e 13B9     		cbnz	r3, .L121
1563:.\Generated_Source\PSoC5/ADC_DelSig_1.c ****         }
 1662              		.loc 1 1563 0
 1663 0010 0122     		movs	r2, #1
 1664 0012 0F4B     		ldr	r3, .L124
 1665 0014 DA71     		strb	r2, [r3, #7]
 1666              	.L121:
1567:.\Generated_Source\PSoC5/ADC_DelSig_1.c **** 
 1667              		.loc 1 1567 0
 1668 0016 0F4B     		ldr	r3, .L124+4
 1669 0018 1C70     		strb	r4, [r3]
1570:.\Generated_Source\PSoC5/ADC_DelSig_1.c **** 
 1670              		.loc 1 1570 0
 1671 001a FFF7FEFF 		bl	ADC_DelSig_1_Stop
 1672              	.LVL148:
1573:.\Generated_Source\PSoC5/ADC_DelSig_1.c **** 
 1673              		.loc 1 1573 0
 1674 001e 2046     		mov	r0, r4
 1675 0020 FFF7FEFF 		bl	ADC_DelSig_1_InitConfig
 1676              	.LVL149:
1576:.\Generated_Source\PSoC5/ADC_DelSig_1.c ****         CY_SET_REG16(ADC_DelSig_1_DEC_GCOR_16B_PTR, ADC_DelSig_1_gcor[config - 1u].gcor);
 1677              		.loc 1 1576 0
 1678 0024 013C     		subs	r4, r4, #1
 1679 0026 0A4B     		ldr	r3, .L124
 1680 0028 03EB8402 		add	r2, r3, r4, lsl #2
 1681 002c 9178     		ldrb	r1, [r2, #2]	@ zero_extendqisi2
 1682 002e 0A4A     		ldr	r2, .L124+8
 1683 0030 1170     		strb	r1, [r2]
1577:.\Generated_Source\PSoC5/ADC_DelSig_1.c **** 
 1684              		.loc 1 1577 0
 1685 0032 33F82420 		ldrh	r2, [r3, r4, lsl #2]
 1686 0036 094B     		ldr	r3, .L124+12
 1687 0038 1A80     		strh	r2, [r3]	@ movhi
1579:.\Generated_Source\PSoC5/ADC_DelSig_1.c ****         {
ARM GAS  C:\Users\HANNAL~1\AppData\Local\Temp\ccGbhEeb.s 			page 65


 1688              		.loc 1 1579 0
 1689 003a 012D     		cmp	r5, #1
 1690 003c 07D1     		bne	.L119
1582:.\Generated_Source\PSoC5/ADC_DelSig_1.c **** 
 1691              		.loc 1 1582 0
 1692 003e FFF7FEFF 		bl	ADC_DelSig_1_Start
 1693              	.LVL150:
1585:.\Generated_Source\PSoC5/ADC_DelSig_1.c ****         }
 1694              		.loc 1 1585 0
 1695 0042 FFF7FEFF 		bl	ADC_DelSig_1_StartConvert
 1696              	.LVL151:
 1697 0046 38BD     		pop	{r3, r4, r5, pc}
 1698              	.LVL152:
 1699              	.L120:
1591:.\Generated_Source\PSoC5/ADC_DelSig_1.c ****     }
 1700              		.loc 1 1591 0 discriminator 1
 1701 0048 0020     		movs	r0, #0
 1702              	.LVL153:
 1703 004a FFF7FEFF 		bl	CyHalt
 1704              	.LVL154:
 1705              	.L119:
 1706 004e 38BD     		pop	{r3, r4, r5, pc}
 1707              	.L125:
 1708              		.align	2
 1709              	.L124:
 1710 0050 00000000 		.word	.LANCHOR0
 1711 0054 00000000 		.word	.LANCHOR1
 1712 0058 0E4E0040 		.word	1073761806
 1713 005c 0C4E0040 		.word	1073761804
 1714              		.cfi_endproc
 1715              	.LFE20:
 1716              		.size	ADC_DelSig_1_SelectConfiguration, .-ADC_DelSig_1_SelectConfiguration
 1717              		.section	.text.ADC_DelSig_1_Read8,"ax",%progbits
 1718              		.align	2
 1719              		.global	ADC_DelSig_1_Read8
 1720              		.thumb
 1721              		.thumb_func
 1722              		.type	ADC_DelSig_1_Read8, %function
 1723              	ADC_DelSig_1_Read8:
 1724              	.LFB23:
1741:.\Generated_Source\PSoC5/ADC_DelSig_1.c **** }
1742:.\Generated_Source\PSoC5/ADC_DelSig_1.c **** 
1743:.\Generated_Source\PSoC5/ADC_DelSig_1.c **** 
1744:.\Generated_Source\PSoC5/ADC_DelSig_1.c **** /*******************************************************************************
1745:.\Generated_Source\PSoC5/ADC_DelSig_1.c **** * Function Name: ADC_DelSig_1_Read8
1746:.\Generated_Source\PSoC5/ADC_DelSig_1.c **** ********************************************************************************
1747:.\Generated_Source\PSoC5/ADC_DelSig_1.c **** *
1748:.\Generated_Source\PSoC5/ADC_DelSig_1.c **** * Summary:
1749:.\Generated_Source\PSoC5/ADC_DelSig_1.c **** *  This function simplifies getting results from the ADC when only a
1750:.\Generated_Source\PSoC5/ADC_DelSig_1.c **** *  single reading is required. When called, it will start ADC
1751:.\Generated_Source\PSoC5/ADC_DelSig_1.c **** *  conversions, wait for the conversion to be complete, stop ADC
1752:.\Generated_Source\PSoC5/ADC_DelSig_1.c **** *  conversion and return the result. This is a blocking function and will
1753:.\Generated_Source\PSoC5/ADC_DelSig_1.c **** *  not return until the result is ready.
1754:.\Generated_Source\PSoC5/ADC_DelSig_1.c **** *
1755:.\Generated_Source\PSoC5/ADC_DelSig_1.c **** * Parameters:
1756:.\Generated_Source\PSoC5/ADC_DelSig_1.c **** *  None
1757:.\Generated_Source\PSoC5/ADC_DelSig_1.c **** *
ARM GAS  C:\Users\HANNAL~1\AppData\Local\Temp\ccGbhEeb.s 			page 66


1758:.\Generated_Source\PSoC5/ADC_DelSig_1.c **** * Return:
1759:.\Generated_Source\PSoC5/ADC_DelSig_1.c **** *  int8:  ADC result.
1760:.\Generated_Source\PSoC5/ADC_DelSig_1.c **** *
1761:.\Generated_Source\PSoC5/ADC_DelSig_1.c **** *******************************************************************************/
1762:.\Generated_Source\PSoC5/ADC_DelSig_1.c **** int8 ADC_DelSig_1_Read8(void) 
1763:.\Generated_Source\PSoC5/ADC_DelSig_1.c **** {
 1725              		.loc 1 1763 0
 1726              		.cfi_startproc
 1727              		@ args = 0, pretend = 0, frame = 0
 1728              		@ frame_needed = 0, uses_anonymous_args = 0
 1729 0000 10B5     		push	{r4, lr}
 1730              		.cfi_def_cfa_offset 8
 1731              		.cfi_offset 4, -8
 1732              		.cfi_offset 14, -4
1764:.\Generated_Source\PSoC5/ADC_DelSig_1.c ****     int8 result;
1765:.\Generated_Source\PSoC5/ADC_DelSig_1.c **** 
1766:.\Generated_Source\PSoC5/ADC_DelSig_1.c ****     /* Clear pending conversion done status */
1767:.\Generated_Source\PSoC5/ADC_DelSig_1.c ****     ADC_DelSig_1_DEC_SR_REG |= ADC_DelSig_1_DEC_INTR_CLEAR;
 1733              		.loc 1 1767 0
 1734 0002 084A     		ldr	r2, .L128
 1735 0004 1378     		ldrb	r3, [r2]	@ zero_extendqisi2
 1736 0006 43F00403 		orr	r3, r3, #4
 1737 000a 1370     		strb	r3, [r2]
1768:.\Generated_Source\PSoC5/ADC_DelSig_1.c ****     ADC_DelSig_1_StartConvert();
 1738              		.loc 1 1768 0
 1739 000c FFF7FEFF 		bl	ADC_DelSig_1_StartConvert
 1740              	.LVL155:
1769:.\Generated_Source\PSoC5/ADC_DelSig_1.c ****     (void)ADC_DelSig_1_IsEndConversion(ADC_DelSig_1_WAIT_FOR_RESULT);
 1741              		.loc 1 1769 0
 1742 0010 0020     		movs	r0, #0
 1743 0012 FFF7FEFF 		bl	ADC_DelSig_1_IsEndConversion
 1744              	.LVL156:
1770:.\Generated_Source\PSoC5/ADC_DelSig_1.c ****      result = ADC_DelSig_1_GetResult8();
 1745              		.loc 1 1770 0
 1746 0016 FFF7FEFF 		bl	ADC_DelSig_1_GetResult8
 1747              	.LVL157:
 1748 001a 0446     		mov	r4, r0
 1749              	.LVL158:
1771:.\Generated_Source\PSoC5/ADC_DelSig_1.c ****     ADC_DelSig_1_StopConvert();
 1750              		.loc 1 1771 0
 1751 001c FFF7FEFF 		bl	ADC_DelSig_1_StopConvert
 1752              	.LVL159:
1772:.\Generated_Source\PSoC5/ADC_DelSig_1.c ****     
1773:.\Generated_Source\PSoC5/ADC_DelSig_1.c ****      return(result);
1774:.\Generated_Source\PSoC5/ADC_DelSig_1.c **** }
 1753              		.loc 1 1774 0
 1754 0020 2046     		mov	r0, r4
 1755 0022 10BD     		pop	{r4, pc}
 1756              	.LVL160:
 1757              	.L129:
 1758              		.align	2
 1759              	.L128:
 1760 0024 014E0040 		.word	1073761793
 1761              		.cfi_endproc
 1762              	.LFE23:
 1763              		.size	ADC_DelSig_1_Read8, .-ADC_DelSig_1_Read8
 1764              		.section	.text.ADC_DelSig_1_Read16,"ax",%progbits
ARM GAS  C:\Users\HANNAL~1\AppData\Local\Temp\ccGbhEeb.s 			page 67


 1765              		.align	2
 1766              		.global	ADC_DelSig_1_Read16
 1767              		.thumb
 1768              		.thumb_func
 1769              		.type	ADC_DelSig_1_Read16, %function
 1770              	ADC_DelSig_1_Read16:
 1771              	.LFB24:
1775:.\Generated_Source\PSoC5/ADC_DelSig_1.c **** 
1776:.\Generated_Source\PSoC5/ADC_DelSig_1.c **** 
1777:.\Generated_Source\PSoC5/ADC_DelSig_1.c **** /*******************************************************************************
1778:.\Generated_Source\PSoC5/ADC_DelSig_1.c **** * Function Name: ADC_DelSig_1_Read16
1779:.\Generated_Source\PSoC5/ADC_DelSig_1.c **** ********************************************************************************
1780:.\Generated_Source\PSoC5/ADC_DelSig_1.c **** *
1781:.\Generated_Source\PSoC5/ADC_DelSig_1.c **** * Summary:
1782:.\Generated_Source\PSoC5/ADC_DelSig_1.c **** *  This function simplifies getting results from the ADC when only a
1783:.\Generated_Source\PSoC5/ADC_DelSig_1.c **** *  single reading is required. When called, it will start ADC
1784:.\Generated_Source\PSoC5/ADC_DelSig_1.c **** *  conversions, wait for the conversion to be complete, stop ADC
1785:.\Generated_Source\PSoC5/ADC_DelSig_1.c **** *  conversion and return the result. This is a blocking function and will
1786:.\Generated_Source\PSoC5/ADC_DelSig_1.c **** *  not return until the result is ready.
1787:.\Generated_Source\PSoC5/ADC_DelSig_1.c **** *
1788:.\Generated_Source\PSoC5/ADC_DelSig_1.c **** * Parameters:
1789:.\Generated_Source\PSoC5/ADC_DelSig_1.c **** *   void
1790:.\Generated_Source\PSoC5/ADC_DelSig_1.c **** *
1791:.\Generated_Source\PSoC5/ADC_DelSig_1.c **** * Return:
1792:.\Generated_Source\PSoC5/ADC_DelSig_1.c **** *  int16:  ADC result.
1793:.\Generated_Source\PSoC5/ADC_DelSig_1.c **** *
1794:.\Generated_Source\PSoC5/ADC_DelSig_1.c **** *******************************************************************************/
1795:.\Generated_Source\PSoC5/ADC_DelSig_1.c **** int16 ADC_DelSig_1_Read16(void) 
1796:.\Generated_Source\PSoC5/ADC_DelSig_1.c **** {
 1772              		.loc 1 1796 0
 1773              		.cfi_startproc
 1774              		@ args = 0, pretend = 0, frame = 0
 1775              		@ frame_needed = 0, uses_anonymous_args = 0
 1776 0000 10B5     		push	{r4, lr}
 1777              		.cfi_def_cfa_offset 8
 1778              		.cfi_offset 4, -8
 1779              		.cfi_offset 14, -4
1797:.\Generated_Source\PSoC5/ADC_DelSig_1.c ****     int16 result;
1798:.\Generated_Source\PSoC5/ADC_DelSig_1.c **** 
1799:.\Generated_Source\PSoC5/ADC_DelSig_1.c ****     /* Clear pending conversion done status */
1800:.\Generated_Source\PSoC5/ADC_DelSig_1.c ****     ADC_DelSig_1_DEC_SR_REG |= ADC_DelSig_1_DEC_INTR_CLEAR;
 1780              		.loc 1 1800 0
 1781 0002 084A     		ldr	r2, .L132
 1782 0004 1378     		ldrb	r3, [r2]	@ zero_extendqisi2
 1783 0006 43F00403 		orr	r3, r3, #4
 1784 000a 1370     		strb	r3, [r2]
1801:.\Generated_Source\PSoC5/ADC_DelSig_1.c ****     ADC_DelSig_1_StartConvert();
 1785              		.loc 1 1801 0
 1786 000c FFF7FEFF 		bl	ADC_DelSig_1_StartConvert
 1787              	.LVL161:
1802:.\Generated_Source\PSoC5/ADC_DelSig_1.c ****     (void)ADC_DelSig_1_IsEndConversion(ADC_DelSig_1_WAIT_FOR_RESULT);
 1788              		.loc 1 1802 0
 1789 0010 0020     		movs	r0, #0
 1790 0012 FFF7FEFF 		bl	ADC_DelSig_1_IsEndConversion
 1791              	.LVL162:
1803:.\Generated_Source\PSoC5/ADC_DelSig_1.c ****      result = ADC_DelSig_1_GetResult16();
 1792              		.loc 1 1803 0
ARM GAS  C:\Users\HANNAL~1\AppData\Local\Temp\ccGbhEeb.s 			page 68


 1793 0016 FFF7FEFF 		bl	ADC_DelSig_1_GetResult16
 1794              	.LVL163:
 1795 001a 0446     		mov	r4, r0
 1796              	.LVL164:
1804:.\Generated_Source\PSoC5/ADC_DelSig_1.c ****     ADC_DelSig_1_StopConvert();
 1797              		.loc 1 1804 0
 1798 001c FFF7FEFF 		bl	ADC_DelSig_1_StopConvert
 1799              	.LVL165:
1805:.\Generated_Source\PSoC5/ADC_DelSig_1.c ****     
1806:.\Generated_Source\PSoC5/ADC_DelSig_1.c ****      return(result);
1807:.\Generated_Source\PSoC5/ADC_DelSig_1.c **** }
 1800              		.loc 1 1807 0
 1801 0020 2046     		mov	r0, r4
 1802 0022 10BD     		pop	{r4, pc}
 1803              	.LVL166:
 1804              	.L133:
 1805              		.align	2
 1806              	.L132:
 1807 0024 014E0040 		.word	1073761793
 1808              		.cfi_endproc
 1809              	.LFE24:
 1810              		.size	ADC_DelSig_1_Read16, .-ADC_DelSig_1_Read16
 1811              		.section	.text.ADC_DelSig_1_Read32,"ax",%progbits
 1812              		.align	2
 1813              		.global	ADC_DelSig_1_Read32
 1814              		.thumb
 1815              		.thumb_func
 1816              		.type	ADC_DelSig_1_Read32, %function
 1817              	ADC_DelSig_1_Read32:
 1818              	.LFB25:
1808:.\Generated_Source\PSoC5/ADC_DelSig_1.c **** 
1809:.\Generated_Source\PSoC5/ADC_DelSig_1.c **** 
1810:.\Generated_Source\PSoC5/ADC_DelSig_1.c **** /*******************************************************************************
1811:.\Generated_Source\PSoC5/ADC_DelSig_1.c **** * Function Name: ADC_DelSig_1_Read32
1812:.\Generated_Source\PSoC5/ADC_DelSig_1.c **** ********************************************************************************
1813:.\Generated_Source\PSoC5/ADC_DelSig_1.c **** *
1814:.\Generated_Source\PSoC5/ADC_DelSig_1.c **** * Summary:
1815:.\Generated_Source\PSoC5/ADC_DelSig_1.c **** *  This function simplifies getting results from the ADC when only a
1816:.\Generated_Source\PSoC5/ADC_DelSig_1.c **** *  single reading is required. When called, it will start ADC
1817:.\Generated_Source\PSoC5/ADC_DelSig_1.c **** *  conversions, wait for the conversion to be complete, stop ADC
1818:.\Generated_Source\PSoC5/ADC_DelSig_1.c **** *  conversion and return the result. This is a blocking function and will
1819:.\Generated_Source\PSoC5/ADC_DelSig_1.c **** *  not return until the result is ready.
1820:.\Generated_Source\PSoC5/ADC_DelSig_1.c **** *
1821:.\Generated_Source\PSoC5/ADC_DelSig_1.c **** * Parameters:
1822:.\Generated_Source\PSoC5/ADC_DelSig_1.c **** *  None
1823:.\Generated_Source\PSoC5/ADC_DelSig_1.c **** *
1824:.\Generated_Source\PSoC5/ADC_DelSig_1.c **** * Return:
1825:.\Generated_Source\PSoC5/ADC_DelSig_1.c **** *  int32: ADC result.
1826:.\Generated_Source\PSoC5/ADC_DelSig_1.c **** *
1827:.\Generated_Source\PSoC5/ADC_DelSig_1.c **** *******************************************************************************/
1828:.\Generated_Source\PSoC5/ADC_DelSig_1.c **** int32 ADC_DelSig_1_Read32(void) 
1829:.\Generated_Source\PSoC5/ADC_DelSig_1.c **** {
 1819              		.loc 1 1829 0
 1820              		.cfi_startproc
 1821              		@ args = 0, pretend = 0, frame = 0
 1822              		@ frame_needed = 0, uses_anonymous_args = 0
 1823 0000 10B5     		push	{r4, lr}
ARM GAS  C:\Users\HANNAL~1\AppData\Local\Temp\ccGbhEeb.s 			page 69


 1824              		.cfi_def_cfa_offset 8
 1825              		.cfi_offset 4, -8
 1826              		.cfi_offset 14, -4
1830:.\Generated_Source\PSoC5/ADC_DelSig_1.c ****     int32 result;
1831:.\Generated_Source\PSoC5/ADC_DelSig_1.c ****     
1832:.\Generated_Source\PSoC5/ADC_DelSig_1.c ****     /* Clear pending conversion done status */
1833:.\Generated_Source\PSoC5/ADC_DelSig_1.c ****     ADC_DelSig_1_DEC_SR_REG |= ADC_DelSig_1_DEC_INTR_CLEAR;
 1827              		.loc 1 1833 0
 1828 0002 084A     		ldr	r2, .L136
 1829 0004 1378     		ldrb	r3, [r2]	@ zero_extendqisi2
 1830 0006 43F00403 		orr	r3, r3, #4
 1831 000a 1370     		strb	r3, [r2]
1834:.\Generated_Source\PSoC5/ADC_DelSig_1.c ****     ADC_DelSig_1_StartConvert();
 1832              		.loc 1 1834 0
 1833 000c FFF7FEFF 		bl	ADC_DelSig_1_StartConvert
 1834              	.LVL167:
1835:.\Generated_Source\PSoC5/ADC_DelSig_1.c ****     (void)ADC_DelSig_1_IsEndConversion(ADC_DelSig_1_WAIT_FOR_RESULT);
 1835              		.loc 1 1835 0
 1836 0010 0020     		movs	r0, #0
 1837 0012 FFF7FEFF 		bl	ADC_DelSig_1_IsEndConversion
 1838              	.LVL168:
1836:.\Generated_Source\PSoC5/ADC_DelSig_1.c ****      result = ADC_DelSig_1_GetResult32();
 1839              		.loc 1 1836 0
 1840 0016 FFF7FEFF 		bl	ADC_DelSig_1_GetResult32
 1841              	.LVL169:
 1842 001a 0446     		mov	r4, r0
 1843              	.LVL170:
1837:.\Generated_Source\PSoC5/ADC_DelSig_1.c ****     ADC_DelSig_1_StopConvert();
 1844              		.loc 1 1837 0
 1845 001c FFF7FEFF 		bl	ADC_DelSig_1_StopConvert
 1846              	.LVL171:
1838:.\Generated_Source\PSoC5/ADC_DelSig_1.c ****     
1839:.\Generated_Source\PSoC5/ADC_DelSig_1.c ****      return(result);
1840:.\Generated_Source\PSoC5/ADC_DelSig_1.c **** }
 1847              		.loc 1 1840 0
 1848 0020 2046     		mov	r0, r4
 1849 0022 10BD     		pop	{r4, pc}
 1850              	.LVL172:
 1851              	.L137:
 1852              		.align	2
 1853              	.L136:
 1854 0024 014E0040 		.word	1073761793
 1855              		.cfi_endproc
 1856              	.LFE25:
 1857              		.size	ADC_DelSig_1_Read32, .-ADC_DelSig_1_Read32
 1858              		.comm	ADC_DelSig_1_CountsPerVolt,4,4
 1859              		.comm	ADC_DelSig_1_Offset,4,4
 1860              		.global	ADC_DelSig_1_Config
 1861              		.global	ADC_DelSig_1_started
 1862              		.global	ADC_DelSig_1_initVar
 1863              		.global	ADC_DelSig_1_stopConversion
 1864              		.global	ADC_DelSig_1_convDone
 1865              		.data
 1866              		.set	.LANCHOR1,. + 0
 1867              		.type	ADC_DelSig_1_Config, %object
 1868              		.size	ADC_DelSig_1_Config, 1
 1869              	ADC_DelSig_1_Config:
ARM GAS  C:\Users\HANNAL~1\AppData\Local\Temp\ccGbhEeb.s 			page 70


 1870 0000 01       		.byte	1
 1871              		.bss
 1872              		.align	2
 1873              		.set	.LANCHOR0,. + 0
 1874              		.type	ADC_DelSig_1_gcor, %object
 1875              		.size	ADC_DelSig_1_gcor, 4
 1876              	ADC_DelSig_1_gcor:
 1877 0000 00000000 		.space	4
 1878              		.type	ADC_DelSig_1_stopConversion, %object
 1879              		.size	ADC_DelSig_1_stopConversion, 1
 1880              	ADC_DelSig_1_stopConversion:
 1881 0004 00       		.space	1
 1882              		.type	ADC_DelSig_1_convDone, %object
 1883              		.size	ADC_DelSig_1_convDone, 1
 1884              	ADC_DelSig_1_convDone:
 1885 0005 00       		.space	1
 1886              		.type	ADC_DelSig_1_initVar, %object
 1887              		.size	ADC_DelSig_1_initVar, 1
 1888              	ADC_DelSig_1_initVar:
 1889 0006 00       		.space	1
 1890              		.type	ADC_DelSig_1_started, %object
 1891              		.size	ADC_DelSig_1_started, 1
 1892              	ADC_DelSig_1_started:
 1893 0007 00       		.space	1
 1894              		.text
 1895              	.Letext0:
 1896              		.file 2 ".\\Generated_Source\\PSoC5\\cytypes.h"
 1897              		.file 3 ".\\Generated_Source\\PSoC5\\ADC_DelSig_1.h"
 1898              		.file 4 ".\\Generated_Source\\PSoC5\\CyLib.h"
 1899              		.file 5 ".\\Generated_Source\\PSoC5\\ADC_DelSig_1_AMux.h"
 1900              		.file 6 ".\\Generated_Source\\PSoC5\\ADC_DelSig_1_Ext_CP_Clk.h"
 1901              		.file 7 ".\\Generated_Source\\PSoC5\\ADC_DelSig_1_theACLK.h"
 1902              		.section	.debug_info,"",%progbits
 1903              	.Ldebug_info0:
 1904 0000 740A0000 		.4byte	0xa74
 1905 0004 0400     		.2byte	0x4
 1906 0006 00000000 		.4byte	.Ldebug_abbrev0
 1907 000a 04       		.byte	0x4
 1908 000b 01       		.uleb128 0x1
 1909 000c 51050000 		.4byte	.LASF98
 1910 0010 01       		.byte	0x1
 1911 0011 84010000 		.4byte	.LASF99
 1912 0015 7B060000 		.4byte	.LASF100
 1913 0019 00000000 		.4byte	.Ldebug_ranges0+0
 1914 001d 00000000 		.4byte	0
 1915 0021 00000000 		.4byte	.Ldebug_line0
 1916 0025 02       		.uleb128 0x2
 1917 0026 04       		.byte	0x4
 1918 0027 04       		.byte	0x4
 1919 0028 73030000 		.4byte	.LASF0
 1920 002c 02       		.uleb128 0x2
 1921 002d 01       		.byte	0x1
 1922 002e 06       		.byte	0x6
 1923 002f 0E010000 		.4byte	.LASF1
 1924 0033 02       		.uleb128 0x2
 1925 0034 01       		.byte	0x1
 1926 0035 08       		.byte	0x8
ARM GAS  C:\Users\HANNAL~1\AppData\Local\Temp\ccGbhEeb.s 			page 71


 1927 0036 C7030000 		.4byte	.LASF2
 1928 003a 02       		.uleb128 0x2
 1929 003b 02       		.byte	0x2
 1930 003c 05       		.byte	0x5
 1931 003d EC030000 		.4byte	.LASF3
 1932 0041 02       		.uleb128 0x2
 1933 0042 02       		.byte	0x2
 1934 0043 07       		.byte	0x7
 1935 0044 13020000 		.4byte	.LASF4
 1936 0048 02       		.uleb128 0x2
 1937 0049 04       		.byte	0x4
 1938 004a 05       		.byte	0x5
 1939 004b 34010000 		.4byte	.LASF5
 1940 004f 02       		.uleb128 0x2
 1941 0050 04       		.byte	0x4
 1942 0051 07       		.byte	0x7
 1943 0052 D5010000 		.4byte	.LASF6
 1944 0056 02       		.uleb128 0x2
 1945 0057 08       		.byte	0x8
 1946 0058 05       		.byte	0x5
 1947 0059 00010000 		.4byte	.LASF7
 1948 005d 02       		.uleb128 0x2
 1949 005e 08       		.byte	0x8
 1950 005f 07       		.byte	0x7
 1951 0060 97000000 		.4byte	.LASF8
 1952 0064 03       		.uleb128 0x3
 1953 0065 04       		.byte	0x4
 1954 0066 05       		.byte	0x5
 1955 0067 696E7400 		.ascii	"int\000"
 1956 006b 02       		.uleb128 0x2
 1957 006c 04       		.byte	0x4
 1958 006d 07       		.byte	0x7
 1959 006e AC010000 		.4byte	.LASF9
 1960 0072 04       		.uleb128 0x4
 1961 0073 43010000 		.4byte	.LASF10
 1962 0077 02       		.byte	0x2
 1963 0078 3801     		.2byte	0x138
 1964 007a 33000000 		.4byte	0x33
 1965 007e 04       		.uleb128 0x4
 1966 007f 00000000 		.4byte	.LASF11
 1967 0083 02       		.byte	0x2
 1968 0084 3901     		.2byte	0x139
 1969 0086 41000000 		.4byte	0x41
 1970 008a 04       		.uleb128 0x4
 1971 008b 60010000 		.4byte	.LASF12
 1972 008f 02       		.byte	0x2
 1973 0090 3A01     		.2byte	0x13a
 1974 0092 4F000000 		.4byte	0x4f
 1975 0096 04       		.uleb128 0x4
 1976 0097 26020000 		.4byte	.LASF13
 1977 009b 02       		.byte	0x2
 1978 009c 3B01     		.2byte	0x13b
 1979 009e 2C000000 		.4byte	0x2c
 1980 00a2 04       		.uleb128 0x4
 1981 00a3 FD050000 		.4byte	.LASF14
 1982 00a7 02       		.byte	0x2
 1983 00a8 3C01     		.2byte	0x13c
ARM GAS  C:\Users\HANNAL~1\AppData\Local\Temp\ccGbhEeb.s 			page 72


 1984 00aa 3A000000 		.4byte	0x3a
 1985 00ae 04       		.uleb128 0x4
 1986 00af 1A010000 		.4byte	.LASF15
 1987 00b3 02       		.byte	0x2
 1988 00b4 3D01     		.2byte	0x13d
 1989 00b6 48000000 		.4byte	0x48
 1990 00ba 04       		.uleb128 0x4
 1991 00bb 8F020000 		.4byte	.LASF16
 1992 00bf 02       		.byte	0x2
 1993 00c0 3E01     		.2byte	0x13e
 1994 00c2 25000000 		.4byte	0x25
 1995 00c6 02       		.uleb128 0x2
 1996 00c7 08       		.byte	0x8
 1997 00c8 04       		.byte	0x4
 1998 00c9 53010000 		.4byte	.LASF17
 1999 00cd 02       		.uleb128 0x2
 2000 00ce 01       		.byte	0x1
 2001 00cf 08       		.byte	0x8
 2002 00d0 48040000 		.4byte	.LASF18
 2003 00d4 04       		.uleb128 0x4
 2004 00d5 A3030000 		.4byte	.LASF19
 2005 00d9 02       		.byte	0x2
 2006 00da E201     		.2byte	0x1e2
 2007 00dc E0000000 		.4byte	0xe0
 2008 00e0 05       		.uleb128 0x5
 2009 00e1 72000000 		.4byte	0x72
 2010 00e5 04       		.uleb128 0x4
 2011 00e6 3D010000 		.4byte	.LASF20
 2012 00ea 02       		.byte	0x2
 2013 00eb E301     		.2byte	0x1e3
 2014 00ed F1000000 		.4byte	0xf1
 2015 00f1 05       		.uleb128 0x5
 2016 00f2 7E000000 		.4byte	0x7e
 2017 00f6 04       		.uleb128 0x4
 2018 00f7 6D020000 		.4byte	.LASF21
 2019 00fb 02       		.byte	0x2
 2020 00fc E401     		.2byte	0x1e4
 2021 00fe 02010000 		.4byte	0x102
 2022 0102 05       		.uleb128 0x5
 2023 0103 8A000000 		.4byte	0x8a
 2024 0107 04       		.uleb128 0x4
 2025 0108 67040000 		.4byte	.LASF22
 2026 010c 02       		.byte	0x2
 2027 010d F401     		.2byte	0x1f4
 2028 010f 13010000 		.4byte	0x113
 2029 0113 06       		.uleb128 0x6
 2030 0114 04       		.byte	0x4
 2031 0115 19010000 		.4byte	0x119
 2032 0119 07       		.uleb128 0x7
 2033 011a 02       		.uleb128 0x2
 2034 011b 04       		.byte	0x4
 2035 011c 07       		.byte	0x7
 2036 011d B0020000 		.4byte	.LASF23
 2037 0121 08       		.uleb128 0x8
 2038 0122 04       		.byte	0x4
 2039 0123 03       		.byte	0x3
 2040 0124 2F       		.byte	0x2f
ARM GAS  C:\Users\HANNAL~1\AppData\Local\Temp\ccGbhEeb.s 			page 73


 2041 0125 42010000 		.4byte	0x142
 2042 0129 09       		.uleb128 0x9
 2043 012a 92000000 		.4byte	.LASF24
 2044 012e 03       		.byte	0x3
 2045 012f 31       		.byte	0x31
 2046 0130 7E000000 		.4byte	0x7e
 2047 0134 00       		.byte	0
 2048 0135 09       		.uleb128 0x9
 2049 0136 7B040000 		.4byte	.LASF25
 2050 013a 03       		.byte	0x3
 2051 013b 32       		.byte	0x32
 2052 013c 72000000 		.4byte	0x72
 2053 0140 02       		.byte	0x2
 2054 0141 00       		.byte	0
 2055 0142 0A       		.uleb128 0xa
 2056 0143 5A030000 		.4byte	.LASF26
 2057 0147 03       		.byte	0x3
 2058 0148 33       		.byte	0x33
 2059 0149 21010000 		.4byte	0x121
 2060 014d 0B       		.uleb128 0xb
 2061 014e E2040000 		.4byte	.LASF36
 2062 0152 01       		.byte	0x1
 2063 0153 5106     		.2byte	0x651
 2064 0155 00000000 		.4byte	.LFB21
 2065 0159 CC000000 		.4byte	.LFE21-.LFB21
 2066 015d 01       		.uleb128 0x1
 2067 015e 9C       		.byte	0x9c
 2068 015f 03020000 		.4byte	0x203
 2069 0163 0C       		.uleb128 0xc
 2070 0164 23000000 		.4byte	.LASF27
 2071 0168 01       		.byte	0x1
 2072 0169 5106     		.2byte	0x651
 2073 016b 72000000 		.4byte	0x72
 2074 016f 00000000 		.4byte	.LLST0
 2075 0173 0C       		.uleb128 0xc
 2076 0174 A8030000 		.4byte	.LASF28
 2077 0178 01       		.byte	0x1
 2078 0179 5106     		.2byte	0x651
 2079 017b 7E000000 		.4byte	0x7e
 2080 017f 3A000000 		.4byte	.LLST1
 2081 0183 0C       		.uleb128 0xc
 2082 0184 C0000000 		.4byte	.LASF29
 2083 0188 01       		.byte	0x1
 2084 0189 5106     		.2byte	0x651
 2085 018b 7E000000 		.4byte	0x7e
 2086 018f 74000000 		.4byte	.LLST2
 2087 0193 0C       		.uleb128 0xc
 2088 0194 18040000 		.4byte	.LASF30
 2089 0198 01       		.byte	0x1
 2090 0199 5206     		.2byte	0x652
 2091 019b 72000000 		.4byte	0x72
 2092 019f AE000000 		.4byte	.LLST3
 2093 01a3 0C       		.uleb128 0xc
 2094 01a4 74040000 		.4byte	.LASF31
 2095 01a8 01       		.byte	0x1
 2096 01a9 5206     		.2byte	0x652
 2097 01ab 72000000 		.4byte	0x72
ARM GAS  C:\Users\HANNAL~1\AppData\Local\Temp\ccGbhEeb.s 			page 74


 2098 01af 01010000 		.4byte	.LLST4
 2099 01b3 0D       		.uleb128 0xd
 2100 01b4 67020000 		.4byte	.LASF32
 2101 01b8 01       		.byte	0x1
 2102 01b9 5406     		.2byte	0x654
 2103 01bb 96000000 		.4byte	0x96
 2104 01bf 2D010000 		.4byte	.LLST5
 2105 01c3 0D       		.uleb128 0xd
 2106 01c4 B5030000 		.4byte	.LASF33
 2107 01c8 01       		.byte	0x1
 2108 01c9 5506     		.2byte	0x655
 2109 01cb AE000000 		.4byte	0xae
 2110 01cf 98010000 		.4byte	.LLST6
 2111 01d3 0D       		.uleb128 0xd
 2112 01d4 2B020000 		.4byte	.LASF34
 2113 01d8 01       		.byte	0x1
 2114 01d9 5606     		.2byte	0x656
 2115 01db 7E000000 		.4byte	0x7e
 2116 01df AB010000 		.4byte	.LLST7
 2117 01e3 0D       		.uleb128 0xd
 2118 01e4 F6030000 		.4byte	.LASF35
 2119 01e8 01       		.byte	0x1
 2120 01e9 5706     		.2byte	0x657
 2121 01eb 8A000000 		.4byte	0x8a
 2122 01ef D4010000 		.4byte	.LLST8
 2123 01f3 0E       		.uleb128 0xe
 2124 01f4 A6000000 		.4byte	.LVL31
 2125 01f8 AE090000 		.4byte	0x9ae
 2126 01fc 0F       		.uleb128 0xf
 2127 01fd 01       		.uleb128 0x1
 2128 01fe 50       		.byte	0x50
 2129 01ff 01       		.uleb128 0x1
 2130 0200 30       		.byte	0x30
 2131 0201 00       		.byte	0
 2132 0202 00       		.byte	0
 2133 0203 0B       		.uleb128 0xb
 2134 0204 91040000 		.4byte	.LASF37
 2135 0208 01       		.byte	0x1
 2136 0209 BC06     		.2byte	0x6bc
 2137 020b 00000000 		.4byte	.LFB22
 2138 020f 4C000000 		.4byte	.LFE22-.LFB22
 2139 0213 01       		.uleb128 0x1
 2140 0214 9C       		.byte	0x9c
 2141 0215 66020000 		.4byte	0x266
 2142 0219 0C       		.uleb128 0xc
 2143 021a 76010000 		.4byte	.LASF38
 2144 021e 01       		.byte	0x1
 2145 021f BC06     		.2byte	0x6bc
 2146 0221 72000000 		.4byte	0x72
 2147 0225 E7010000 		.4byte	.LLST9
 2148 0229 0D       		.uleb128 0xd
 2149 022a 00050000 		.4byte	.LASF39
 2150 022e 01       		.byte	0x1
 2151 022f BE06     		.2byte	0x6be
 2152 0231 72000000 		.4byte	0x72
 2153 0235 08020000 		.4byte	.LLST10
 2154 0239 10       		.uleb128 0x10
ARM GAS  C:\Users\HANNAL~1\AppData\Local\Temp\ccGbhEeb.s 			page 75


 2155 023a 08000000 		.4byte	.LVL34
 2156 023e BF090000 		.4byte	0x9bf
 2157 0242 11       		.uleb128 0x11
 2158 0243 28000000 		.4byte	.LVL36
 2159 0247 CA090000 		.4byte	0x9ca
 2160 024b 55020000 		.4byte	0x255
 2161 024f 0F       		.uleb128 0xf
 2162 0250 01       		.uleb128 0x1
 2163 0251 50       		.byte	0x50
 2164 0252 01       		.uleb128 0x1
 2165 0253 33       		.byte	0x33
 2166 0254 00       		.byte	0
 2167 0255 0E       		.uleb128 0xe
 2168 0256 3E000000 		.4byte	.LVL37
 2169 025a DB090000 		.4byte	0x9db
 2170 025e 0F       		.uleb128 0xf
 2171 025f 01       		.uleb128 0x1
 2172 0260 50       		.byte	0x50
 2173 0261 02       		.uleb128 0x2
 2174 0262 76       		.byte	0x76
 2175 0263 00       		.sleb128 0
 2176 0264 00       		.byte	0
 2177 0265 00       		.byte	0
 2178 0266 0B       		.uleb128 0xb
 2179 0267 D0000000 		.4byte	.LASF40
 2180 026b 01       		.byte	0x1
 2181 026c DA04     		.2byte	0x4da
 2182 026e 00000000 		.4byte	.LFB19
 2183 0272 DC000000 		.4byte	.LFE19-.LFB19
 2184 0276 01       		.uleb128 0x1
 2185 0277 9C       		.byte	0x9c
 2186 0278 F8020000 		.4byte	0x2f8
 2187 027c 0C       		.uleb128 0xc
 2188 027d 74040000 		.4byte	.LASF31
 2189 0281 01       		.byte	0x1
 2190 0282 DA04     		.2byte	0x4da
 2191 0284 72000000 		.4byte	0x72
 2192 0288 1B020000 		.4byte	.LLST11
 2193 028c 11       		.uleb128 0x11
 2194 028d 84000000 		.4byte	.LVL41
 2195 0291 03020000 		.4byte	0x203
 2196 0295 A0020000 		.4byte	0x2a0
 2197 0299 0F       		.uleb128 0xf
 2198 029a 01       		.uleb128 0x1
 2199 029b 50       		.byte	0x50
 2200 029c 02       		.uleb128 0x2
 2201 029d 08       		.byte	0x8
 2202 029e 52       		.byte	0x52
 2203 029f 00       		.byte	0
 2204 02a0 11       		.uleb128 0x11
 2205 02a1 A6000000 		.4byte	.LVL42
 2206 02a5 EC090000 		.4byte	0x9ec
 2207 02a9 B4020000 		.4byte	0x2b4
 2208 02ad 0F       		.uleb128 0xf
 2209 02ae 01       		.uleb128 0x1
 2210 02af 50       		.byte	0x50
 2211 02b0 02       		.uleb128 0x2
ARM GAS  C:\Users\HANNAL~1\AppData\Local\Temp\ccGbhEeb.s 			page 76


 2212 02b1 74       		.byte	0x74
 2213 02b2 00       		.sleb128 0
 2214 02b3 00       		.byte	0
 2215 02b4 11       		.uleb128 0x11
 2216 02b5 B4000000 		.4byte	.LVL43
 2217 02b9 FD090000 		.4byte	0x9fd
 2218 02bd CE020000 		.4byte	0x2ce
 2219 02c1 0F       		.uleb128 0xf
 2220 02c2 01       		.uleb128 0x1
 2221 02c3 51       		.byte	0x51
 2222 02c4 02       		.uleb128 0x2
 2223 02c5 75       		.byte	0x75
 2224 02c6 00       		.sleb128 0
 2225 02c7 0F       		.uleb128 0xf
 2226 02c8 01       		.uleb128 0x1
 2227 02c9 50       		.byte	0x50
 2228 02ca 02       		.uleb128 0x2
 2229 02cb 08       		.byte	0x8
 2230 02cc 24       		.byte	0x24
 2231 02cd 00       		.byte	0
 2232 02ce 11       		.uleb128 0x11
 2233 02cf BC000000 		.4byte	.LVL44
 2234 02d3 130A0000 		.4byte	0xa13
 2235 02d7 E8020000 		.4byte	0x2e8
 2236 02db 0F       		.uleb128 0xf
 2237 02dc 01       		.uleb128 0x1
 2238 02dd 51       		.byte	0x51
 2239 02de 02       		.uleb128 0x2
 2240 02df 75       		.byte	0x75
 2241 02e0 00       		.sleb128 0
 2242 02e1 0F       		.uleb128 0xf
 2243 02e2 01       		.uleb128 0x1
 2244 02e3 50       		.byte	0x50
 2245 02e4 02       		.uleb128 0x2
 2246 02e5 08       		.byte	0x8
 2247 02e6 95       		.byte	0x95
 2248 02e7 00       		.byte	0
 2249 02e8 0E       		.uleb128 0xe
 2250 02e9 C4000000 		.4byte	.LVL45
 2251 02ed 290A0000 		.4byte	0xa29
 2252 02f1 0F       		.uleb128 0xf
 2253 02f2 01       		.uleb128 0x1
 2254 02f3 50       		.byte	0x50
 2255 02f4 01       		.uleb128 0x1
 2256 02f5 4D       		.byte	0x4d
 2257 02f6 00       		.byte	0
 2258 02f7 00       		.byte	0
 2259 02f8 12       		.uleb128 0x12
 2260 02f9 CF020000 		.4byte	.LASF41
 2261 02fd 01       		.byte	0x1
 2262 02fe 5B       		.byte	0x5b
 2263 02ff 00000000 		.4byte	.LFB0
 2264 0303 C4000000 		.4byte	.LFE0-.LFB0
 2265 0307 01       		.uleb128 0x1
 2266 0308 9C       		.byte	0x9c
 2267 0309 82030000 		.4byte	0x382
 2268 030d 11       		.uleb128 0x11
ARM GAS  C:\Users\HANNAL~1\AppData\Local\Temp\ccGbhEeb.s 			page 77


 2269 030e 16000000 		.4byte	.LVL47
 2270 0312 430A0000 		.4byte	0xa43
 2271 0316 20030000 		.4byte	0x320
 2272 031a 0F       		.uleb128 0xf
 2273 031b 01       		.uleb128 0x1
 2274 031c 50       		.byte	0x50
 2275 031d 01       		.uleb128 0x1
 2276 031e 40       		.byte	0x40
 2277 031f 00       		.byte	0
 2278 0320 11       		.uleb128 0x11
 2279 0321 1C000000 		.4byte	.LVL48
 2280 0325 540A0000 		.4byte	0xa54
 2281 0329 33030000 		.4byte	0x333
 2282 032d 0F       		.uleb128 0xf
 2283 032e 01       		.uleb128 0x1
 2284 032f 50       		.byte	0x50
 2285 0330 01       		.uleb128 0x1
 2286 0331 40       		.byte	0x40
 2287 0332 00       		.byte	0
 2288 0333 11       		.uleb128 0x11
 2289 0334 24000000 		.4byte	.LVL49
 2290 0338 650A0000 		.4byte	0xa65
 2291 033c 4B030000 		.4byte	0x34b
 2292 0340 0F       		.uleb128 0xf
 2293 0341 01       		.uleb128 0x1
 2294 0342 51       		.byte	0x51
 2295 0343 01       		.uleb128 0x1
 2296 0344 37       		.byte	0x37
 2297 0345 0F       		.uleb128 0xf
 2298 0346 01       		.uleb128 0x1
 2299 0347 50       		.byte	0x50
 2300 0348 01       		.uleb128 0x1
 2301 0349 4D       		.byte	0x4d
 2302 034a 00       		.byte	0
 2303 034b 11       		.uleb128 0x11
 2304 034c 84000000 		.4byte	.LVL50
 2305 0350 4D010000 		.4byte	0x14d
 2306 0354 78030000 		.4byte	0x378
 2307 0358 0F       		.uleb128 0xf
 2308 0359 01       		.uleb128 0x1
 2309 035a 53       		.byte	0x53
 2310 035b 01       		.uleb128 0x1
 2311 035c 38       		.byte	0x38
 2312 035d 0F       		.uleb128 0xf
 2313 035e 01       		.uleb128 0x1
 2314 035f 52       		.byte	0x52
 2315 0360 03       		.uleb128 0x3
 2316 0361 0B       		.byte	0xb
 2317 0362 0080     		.2byte	0x8000
 2318 0364 0F       		.uleb128 0xf
 2319 0365 01       		.uleb128 0x1
 2320 0366 51       		.byte	0x51
 2321 0367 03       		.uleb128 0x3
 2322 0368 0B       		.byte	0xb
 2323 0369 6B8D     		.2byte	0x8d6b
 2324 036b 0F       		.uleb128 0xf
 2325 036c 01       		.uleb128 0x1
ARM GAS  C:\Users\HANNAL~1\AppData\Local\Temp\ccGbhEeb.s 			page 78


 2326 036d 50       		.byte	0x50
 2327 036e 01       		.uleb128 0x1
 2328 036f 32       		.byte	0x32
 2329 0370 0F       		.uleb128 0xf
 2330 0371 02       		.uleb128 0x2
 2331 0372 7D       		.byte	0x7d
 2332 0373 00       		.sleb128 0
 2333 0374 02       		.uleb128 0x2
 2334 0375 77       		.byte	0x77
 2335 0376 00       		.sleb128 0
 2336 0377 00       		.byte	0
 2337 0378 10       		.uleb128 0x10
 2338 0379 A4000000 		.4byte	.LVL51
 2339 037d 66020000 		.4byte	0x266
 2340 0381 00       		.byte	0
 2341 0382 12       		.uleb128 0x12
 2342 0383 0F000000 		.4byte	.LASF42
 2343 0387 01       		.byte	0x1
 2344 0388 B8       		.byte	0xb8
 2345 0389 00000000 		.4byte	.LFB1
 2346 038d D8000000 		.4byte	.LFE1-.LFB1
 2347 0391 01       		.uleb128 0x1
 2348 0392 9C       		.byte	0x9c
 2349 0393 DE030000 		.4byte	0x3de
 2350 0397 13       		.uleb128 0x13
 2351 0398 74040000 		.4byte	.LASF31
 2352 039c 01       		.byte	0x1
 2353 039d BA       		.byte	0xba
 2354 039e 72000000 		.4byte	0x72
 2355 03a2 14       		.uleb128 0x14
 2356 03a3 00050000 		.4byte	.LASF39
 2357 03a7 01       		.byte	0x1
 2358 03a8 BB       		.byte	0xbb
 2359 03a9 72000000 		.4byte	0x72
 2360 03ad 47020000 		.4byte	.LLST12
 2361 03b1 10       		.uleb128 0x10
 2362 03b2 06000000 		.4byte	.LVL52
 2363 03b6 BF090000 		.4byte	0x9bf
 2364 03ba 11       		.uleb128 0x11
 2365 03bb 54000000 		.4byte	.LVL55
 2366 03bf CA090000 		.4byte	0x9ca
 2367 03c3 CD030000 		.4byte	0x3cd
 2368 03c7 0F       		.uleb128 0xf
 2369 03c8 01       		.uleb128 0x1
 2370 03c9 50       		.byte	0x50
 2371 03ca 01       		.uleb128 0x1
 2372 03cb 33       		.byte	0x33
 2373 03cc 00       		.byte	0
 2374 03cd 0E       		.uleb128 0xe
 2375 03ce B0000000 		.4byte	.LVL56
 2376 03d2 DB090000 		.4byte	0x9db
 2377 03d6 0F       		.uleb128 0xf
 2378 03d7 01       		.uleb128 0x1
 2379 03d8 50       		.byte	0x50
 2380 03d9 02       		.uleb128 0x2
 2381 03da 76       		.byte	0x76
 2382 03db 00       		.sleb128 0
ARM GAS  C:\Users\HANNAL~1\AppData\Local\Temp\ccGbhEeb.s 			page 79


 2383 03dc 00       		.byte	0
 2384 03dd 00       		.byte	0
 2385 03de 15       		.uleb128 0x15
 2386 03df EA050000 		.4byte	.LASF43
 2387 03e3 01       		.byte	0x1
 2388 03e4 4901     		.2byte	0x149
 2389 03e6 00000000 		.4byte	.LFB2
 2390 03ea 28000000 		.4byte	.LFE2-.LFB2
 2391 03ee 01       		.uleb128 0x1
 2392 03ef 9C       		.byte	0x9c
 2393 03f0 07040000 		.4byte	0x407
 2394 03f4 10       		.uleb128 0x10
 2395 03f5 16000000 		.4byte	.LVL58
 2396 03f9 F8020000 		.4byte	0x2f8
 2397 03fd 10       		.uleb128 0x10
 2398 03fe 20000000 		.4byte	.LVL59
 2399 0402 82030000 		.4byte	0x382
 2400 0406 00       		.byte	0
 2401 0407 15       		.uleb128 0x15
 2402 0408 AE000000 		.4byte	.LASF44
 2403 040c 01       		.byte	0x1
 2404 040d 6A01     		.2byte	0x16a
 2405 040f 00000000 		.4byte	.LFB3
 2406 0413 E4000000 		.4byte	.LFE3-.LFB3
 2407 0417 01       		.uleb128 0x1
 2408 0418 9C       		.byte	0x9c
 2409 0419 5A040000 		.4byte	0x45a
 2410 041d 0D       		.uleb128 0xd
 2411 041e 00050000 		.4byte	.LASF39
 2412 0422 01       		.byte	0x1
 2413 0423 6C01     		.2byte	0x16c
 2414 0425 72000000 		.4byte	0x72
 2415 0429 5A020000 		.4byte	.LLST13
 2416 042d 10       		.uleb128 0x10
 2417 042e 06000000 		.4byte	.LVL60
 2418 0432 BF090000 		.4byte	0x9bf
 2419 0436 11       		.uleb128 0x11
 2420 0437 4C000000 		.4byte	.LVL62
 2421 043b CA090000 		.4byte	0x9ca
 2422 043f 49040000 		.4byte	0x449
 2423 0443 0F       		.uleb128 0xf
 2424 0444 01       		.uleb128 0x1
 2425 0445 50       		.byte	0x50
 2426 0446 01       		.uleb128 0x1
 2427 0447 33       		.byte	0x33
 2428 0448 00       		.byte	0
 2429 0449 0E       		.uleb128 0xe
 2430 044a CC000000 		.4byte	.LVL63
 2431 044e DB090000 		.4byte	0x9db
 2432 0452 0F       		.uleb128 0xf
 2433 0453 01       		.uleb128 0x1
 2434 0454 50       		.byte	0x50
 2435 0455 02       		.uleb128 0x2
 2436 0456 76       		.byte	0x76
 2437 0457 00       		.sleb128 0
 2438 0458 00       		.byte	0
 2439 0459 00       		.byte	0
ARM GAS  C:\Users\HANNAL~1\AppData\Local\Temp\ccGbhEeb.s 			page 80


 2440 045a 15       		.uleb128 0x15
 2441 045b C4060000 		.4byte	.LASF45
 2442 045f 01       		.byte	0x1
 2443 0460 AD01     		.2byte	0x1ad
 2444 0462 00000000 		.4byte	.LFB4
 2445 0466 18000000 		.4byte	.LFE4-.LFB4
 2446 046a 01       		.uleb128 0x1
 2447 046b 9C       		.byte	0x9c
 2448 046c 91040000 		.4byte	0x491
 2449 0470 0C       		.uleb128 0xc
 2450 0471 FE020000 		.4byte	.LASF46
 2451 0475 01       		.byte	0x1
 2452 0476 AD01     		.2byte	0x1ad
 2453 0478 72000000 		.4byte	0x72
 2454 047c 6D020000 		.4byte	.LLST14
 2455 0480 0D       		.uleb128 0xd
 2456 0481 DF060000 		.4byte	.LASF47
 2457 0485 01       		.byte	0x1
 2458 0486 AF01     		.2byte	0x1af
 2459 0488 72000000 		.4byte	0x72
 2460 048c 8E020000 		.4byte	.LLST15
 2461 0490 00       		.byte	0
 2462 0491 15       		.uleb128 0x15
 2463 0492 4D040000 		.4byte	.LASF48
 2464 0496 01       		.byte	0x1
 2465 0497 D101     		.2byte	0x1d1
 2466 0499 00000000 		.4byte	.LFB5
 2467 049d 18000000 		.4byte	.LFE5-.LFB5
 2468 04a1 01       		.uleb128 0x1
 2469 04a2 9C       		.byte	0x9c
 2470 04a3 C8040000 		.4byte	0x4c8
 2471 04a7 0C       		.uleb128 0xc
 2472 04a8 17030000 		.4byte	.LASF49
 2473 04ac 01       		.byte	0x1
 2474 04ad D101     		.2byte	0x1d1
 2475 04af 72000000 		.4byte	0x72
 2476 04b3 AC020000 		.4byte	.LLST16
 2477 04b7 0D       		.uleb128 0xd
 2478 04b8 DF060000 		.4byte	.LASF47
 2479 04bc 01       		.byte	0x1
 2480 04bd D301     		.2byte	0x1d3
 2481 04bf 72000000 		.4byte	0x72
 2482 04c3 CD020000 		.4byte	.LLST17
 2483 04c7 00       		.byte	0
 2484 04c8 16       		.uleb128 0x16
 2485 04c9 2E050000 		.4byte	.LASF53
 2486 04cd 01       		.byte	0x1
 2487 04ce F901     		.2byte	0x1f9
 2488 04d0 72000000 		.4byte	0x72
 2489 04d4 00000000 		.4byte	.LFB6
 2490 04d8 74000000 		.4byte	.LFE6-.LFB6
 2491 04dc 01       		.uleb128 0x1
 2492 04dd 9C       		.byte	0x9c
 2493 04de 23050000 		.4byte	0x523
 2494 04e2 0C       		.uleb128 0xc
 2495 04e3 DF050000 		.4byte	.LASF50
 2496 04e7 01       		.byte	0x1
ARM GAS  C:\Users\HANNAL~1\AppData\Local\Temp\ccGbhEeb.s 			page 81


 2497 04e8 F901     		.2byte	0x1f9
 2498 04ea BA000000 		.4byte	0xba
 2499 04ee EB020000 		.4byte	.LLST18
 2500 04f2 0D       		.uleb128 0xd
 2501 04f3 DF060000 		.4byte	.LASF47
 2502 04f7 01       		.byte	0x1
 2503 04f8 FB01     		.2byte	0x1fb
 2504 04fa 7E000000 		.4byte	0x7e
 2505 04fe 19030000 		.4byte	.LLST19
 2506 0502 0D       		.uleb128 0xd
 2507 0503 4A050000 		.4byte	.LASF51
 2508 0507 01       		.byte	0x1
 2509 0508 FC01     		.2byte	0x1fc
 2510 050a 72000000 		.4byte	0x72
 2511 050e 51030000 		.4byte	.LLST20
 2512 0512 0D       		.uleb128 0xd
 2513 0513 88040000 		.4byte	.LASF52
 2514 0517 01       		.byte	0x1
 2515 0518 FD01     		.2byte	0x1fd
 2516 051a BA000000 		.4byte	0xba
 2517 051e 70030000 		.4byte	.LLST21
 2518 0522 00       		.byte	0
 2519 0523 17       		.uleb128 0x17
 2520 0524 1C070000 		.4byte	.LASF54
 2521 0528 01       		.byte	0x1
 2522 0529 2802     		.2byte	0x228
 2523 052b 7E000000 		.4byte	0x7e
 2524 052f 00000000 		.4byte	.LFB7
 2525 0533 24000000 		.4byte	.LFE7-.LFB7
 2526 0537 01       		.uleb128 0x1
 2527 0538 9C       		.byte	0x9c
 2528 0539 5E050000 		.4byte	0x55e
 2529 053d 0D       		.uleb128 0xd
 2530 053e 43050000 		.4byte	.LASF55
 2531 0542 01       		.byte	0x1
 2532 0543 2A02     		.2byte	0x22a
 2533 0545 72000000 		.4byte	0x72
 2534 0549 AF030000 		.4byte	.LLST22
 2535 054d 0D       		.uleb128 0xd
 2536 054e 2B020000 		.4byte	.LASF34
 2537 0552 01       		.byte	0x1
 2538 0553 2B02     		.2byte	0x22b
 2539 0555 7E000000 		.4byte	0x7e
 2540 0559 C2030000 		.4byte	.LLST23
 2541 055d 00       		.byte	0
 2542 055e 18       		.uleb128 0x18
 2543 055f FE030000 		.4byte	.LASF56
 2544 0563 01       		.byte	0x1
 2545 0564 4A02     		.2byte	0x24a
 2546 0566 00000000 		.4byte	.LFB8
 2547 056a 10000000 		.4byte	.LFE8-.LFB8
 2548 056e 01       		.uleb128 0x1
 2549 056f 9C       		.byte	0x9c
 2550 0570 18       		.uleb128 0x18
 2551 0571 03060000 		.4byte	.LASF57
 2552 0575 01       		.byte	0x1
 2553 0576 6102     		.2byte	0x261
ARM GAS  C:\Users\HANNAL~1\AppData\Local\Temp\ccGbhEeb.s 			page 82


 2554 0578 00000000 		.4byte	.LFB9
 2555 057c 10000000 		.4byte	.LFE9-.LFB9
 2556 0580 01       		.uleb128 0x1
 2557 0581 9C       		.byte	0x9c
 2558 0582 17       		.uleb128 0x17
 2559 0583 11050000 		.4byte	.LASF58
 2560 0587 01       		.byte	0x1
 2561 0588 8402     		.2byte	0x284
 2562 058a 72000000 		.4byte	0x72
 2563 058e 00000000 		.4byte	.LFB10
 2564 0592 30000000 		.4byte	.LFE10-.LFB10
 2565 0596 01       		.uleb128 0x1
 2566 0597 9C       		.byte	0x9c
 2567 0598 BD050000 		.4byte	0x5bd
 2568 059c 0C       		.uleb128 0xc
 2569 059d 7C010000 		.4byte	.LASF59
 2570 05a1 01       		.byte	0x1
 2571 05a2 8402     		.2byte	0x284
 2572 05a4 72000000 		.4byte	0x72
 2573 05a8 E0030000 		.4byte	.LLST24
 2574 05ac 0D       		.uleb128 0xd
 2575 05ad 4A050000 		.4byte	.LASF51
 2576 05b1 01       		.byte	0x1
 2577 05b2 8602     		.2byte	0x286
 2578 05b4 72000000 		.4byte	0x72
 2579 05b8 01040000 		.4byte	.LLST25
 2580 05bc 00       		.byte	0
 2581 05bd 17       		.uleb128 0x17
 2582 05be E8000000 		.4byte	.LASF60
 2583 05c2 01       		.byte	0x1
 2584 05c3 B302     		.2byte	0x2b3
 2585 05c5 96000000 		.4byte	0x96
 2586 05c9 00000000 		.4byte	.LFB11
 2587 05cd 48000000 		.4byte	.LFE11-.LFB11
 2588 05d1 01       		.uleb128 0x1
 2589 05d2 9C       		.byte	0x9c
 2590 05d3 F6050000 		.4byte	0x5f6
 2591 05d7 19       		.uleb128 0x19
 2592 05d8 F9060000 		.4byte	.LASF61
 2593 05dc 01       		.byte	0x1
 2594 05dd B502     		.2byte	0x2b5
 2595 05df 96000000 		.4byte	0x96
 2596 05e3 01       		.uleb128 0x1
 2597 05e4 50       		.byte	0x50
 2598 05e5 0D       		.uleb128 0xd
 2599 05e6 17030000 		.4byte	.LASF49
 2600 05ea 01       		.byte	0x1
 2601 05eb B602     		.2byte	0x2b6
 2602 05ed 72000000 		.4byte	0x72
 2603 05f1 1F040000 		.4byte	.LLST26
 2604 05f5 00       		.byte	0
 2605 05f6 17       		.uleb128 0x17
 2606 05f7 97020000 		.4byte	.LASF62
 2607 05fb 01       		.byte	0x1
 2608 05fc E902     		.2byte	0x2e9
 2609 05fe A2000000 		.4byte	0xa2
 2610 0602 00000000 		.4byte	.LFB12
ARM GAS  C:\Users\HANNAL~1\AppData\Local\Temp\ccGbhEeb.s 			page 83


 2611 0606 50000000 		.4byte	.LFE12-.LFB12
 2612 060a 01       		.uleb128 0x1
 2613 060b 9C       		.byte	0x9c
 2614 060c 31060000 		.4byte	0x631
 2615 0610 0D       		.uleb128 0xd
 2616 0611 F9060000 		.4byte	.LASF61
 2617 0615 01       		.byte	0x1
 2618 0616 EB02     		.2byte	0x2eb
 2619 0618 7E000000 		.4byte	0x7e
 2620 061c 3D040000 		.4byte	.LLST27
 2621 0620 0D       		.uleb128 0xd
 2622 0621 17030000 		.4byte	.LASF49
 2623 0625 01       		.byte	0x1
 2624 0626 EC02     		.2byte	0x2ec
 2625 0628 72000000 		.4byte	0x72
 2626 062c 66040000 		.4byte	.LLST28
 2627 0630 00       		.byte	0
 2628 0631 17       		.uleb128 0x17
 2629 0632 2F040000 		.4byte	.LASF63
 2630 0636 01       		.byte	0x1
 2631 0637 2503     		.2byte	0x325
 2632 0639 AE000000 		.4byte	0xae
 2633 063d 00000000 		.4byte	.LFB13
 2634 0641 6C000000 		.4byte	.LFE13-.LFB13
 2635 0645 01       		.uleb128 0x1
 2636 0646 9C       		.byte	0x9c
 2637 0647 6C060000 		.4byte	0x66c
 2638 064b 0D       		.uleb128 0xd
 2639 064c F9060000 		.4byte	.LASF61
 2640 0650 01       		.byte	0x1
 2641 0651 2703     		.2byte	0x327
 2642 0653 8A000000 		.4byte	0x8a
 2643 0657 84040000 		.4byte	.LLST29
 2644 065b 0D       		.uleb128 0xd
 2645 065c 17030000 		.4byte	.LASF49
 2646 0660 01       		.byte	0x1
 2647 0661 2803     		.2byte	0x328
 2648 0663 72000000 		.4byte	0x72
 2649 0667 E5040000 		.4byte	.LLST30
 2650 066b 00       		.byte	0
 2651 066c 15       		.uleb128 0x15
 2652 066d D5030000 		.4byte	.LASF64
 2653 0671 01       		.byte	0x1
 2654 0672 8203     		.2byte	0x382
 2655 0674 00000000 		.4byte	.LFB14
 2656 0678 0C000000 		.4byte	.LFE14-.LFB14
 2657 067c 01       		.uleb128 0x1
 2658 067d 9C       		.byte	0x9c
 2659 067e 91060000 		.4byte	0x691
 2660 0682 1A       		.uleb128 0x1a
 2661 0683 AC040000 		.4byte	.LASF65
 2662 0687 01       		.byte	0x1
 2663 0688 8203     		.2byte	0x382
 2664 068a AE000000 		.4byte	0xae
 2665 068e 01       		.uleb128 0x1
 2666 068f 50       		.byte	0x50
 2667 0690 00       		.byte	0
ARM GAS  C:\Users\HANNAL~1\AppData\Local\Temp\ccGbhEeb.s 			page 84


 2668 0691 15       		.uleb128 0x15
 2669 0692 35060000 		.4byte	.LASF66
 2670 0696 01       		.byte	0x1
 2671 0697 A503     		.2byte	0x3a5
 2672 0699 00000000 		.4byte	.LFB15
 2673 069d 0C000000 		.4byte	.LFE15-.LFB15
 2674 06a1 01       		.uleb128 0x1
 2675 06a2 9C       		.byte	0x9c
 2676 06a3 B6060000 		.4byte	0x6b6
 2677 06a7 1A       		.uleb128 0x1a
 2678 06a8 07000000 		.4byte	.LASF67
 2679 06ac 01       		.byte	0x1
 2680 06ad A503     		.2byte	0x3a5
 2681 06af AE000000 		.4byte	0xae
 2682 06b3 01       		.uleb128 0x1
 2683 06b4 50       		.byte	0x50
 2684 06b5 00       		.byte	0
 2685 06b6 17       		.uleb128 0x17
 2686 06b7 5E060000 		.4byte	.LASF68
 2687 06bb 01       		.byte	0x1
 2688 06bc C003     		.2byte	0x3c0
 2689 06be A2000000 		.4byte	0xa2
 2690 06c2 00000000 		.4byte	.LFB16
 2691 06c6 24000000 		.4byte	.LFE16-.LFB16
 2692 06ca 01       		.uleb128 0x1
 2693 06cb 9C       		.byte	0x9c
 2694 06cc EF060000 		.4byte	0x6ef
 2695 06d0 0C       		.uleb128 0xc
 2696 06d1 D8040000 		.4byte	.LASF69
 2697 06d5 01       		.byte	0x1
 2698 06d6 C003     		.2byte	0x3c0
 2699 06d8 AE000000 		.4byte	0xae
 2700 06dc 0E050000 		.4byte	.LLST31
 2701 06e0 19       		.uleb128 0x19
 2702 06e1 60020000 		.4byte	.LASF70
 2703 06e5 01       		.byte	0x1
 2704 06e6 C303     		.2byte	0x3c3
 2705 06e8 A2000000 		.4byte	0xa2
 2706 06ec 01       		.uleb128 0x1
 2707 06ed 50       		.byte	0x50
 2708 06ee 00       		.byte	0
 2709 06ef 16       		.uleb128 0x16
 2710 06f0 73020000 		.4byte	.LASF71
 2711 06f4 01       		.byte	0x1
 2712 06f5 FD03     		.2byte	0x3fd
 2713 06f7 BA000000 		.4byte	0xba
 2714 06fb 00000000 		.4byte	.LFB17
 2715 06ff 28000000 		.4byte	.LFE17-.LFB17
 2716 0703 01       		.uleb128 0x1
 2717 0704 9C       		.byte	0x9c
 2718 0705 28070000 		.4byte	0x728
 2719 0709 0C       		.uleb128 0xc
 2720 070a D8040000 		.4byte	.LASF69
 2721 070e 01       		.byte	0x1
 2722 070f FD03     		.2byte	0x3fd
 2723 0711 AE000000 		.4byte	0xae
 2724 0715 2C050000 		.4byte	.LLST32
ARM GAS  C:\Users\HANNAL~1\AppData\Local\Temp\ccGbhEeb.s 			page 85


 2725 0719 19       		.uleb128 0x19
 2726 071a 5A010000 		.4byte	.LASF72
 2727 071e 01       		.byte	0x1
 2728 071f 0004     		.2byte	0x400
 2729 0721 BA000000 		.4byte	0xba
 2730 0725 01       		.uleb128 0x1
 2731 0726 50       		.byte	0x50
 2732 0727 00       		.byte	0
 2733 0728 17       		.uleb128 0x17
 2734 0729 E1020000 		.4byte	.LASF73
 2735 072d 01       		.byte	0x1
 2736 072e 3F04     		.2byte	0x43f
 2737 0730 AE000000 		.4byte	0xae
 2738 0734 00000000 		.4byte	.LFB18
 2739 0738 64000000 		.4byte	.LFE18-.LFB18
 2740 073c 01       		.uleb128 0x1
 2741 073d 9C       		.byte	0x9c
 2742 073e 91070000 		.4byte	0x791
 2743 0742 0C       		.uleb128 0xc
 2744 0743 D8040000 		.4byte	.LASF69
 2745 0747 01       		.byte	0x1
 2746 0748 3F04     		.2byte	0x43f
 2747 074a AE000000 		.4byte	0xae
 2748 074e 5A050000 		.4byte	.LLST33
 2749 0752 0D       		.uleb128 0xd
 2750 0753 B9010000 		.4byte	.LASF74
 2751 0757 01       		.byte	0x1
 2752 0758 4204     		.2byte	0x442
 2753 075a AE000000 		.4byte	0xae
 2754 075e 7B050000 		.4byte	.LLST34
 2755 0762 0D       		.uleb128 0xd
 2756 0763 23040000 		.4byte	.LASF75
 2757 0767 01       		.byte	0x1
 2758 0768 4304     		.2byte	0x443
 2759 076a AE000000 		.4byte	0xae
 2760 076e 9E050000 		.4byte	.LLST35
 2761 0772 19       		.uleb128 0x19
 2762 0773 29040000 		.4byte	.LASF76
 2763 0777 01       		.byte	0x1
 2764 0778 4404     		.2byte	0x444
 2765 077a AE000000 		.4byte	0xae
 2766 077e 01       		.uleb128 0x1
 2767 077f 51       		.byte	0x51
 2768 0780 0D       		.uleb128 0xd
 2769 0781 18040000 		.4byte	.LASF30
 2770 0785 01       		.byte	0x1
 2771 0786 4504     		.2byte	0x445
 2772 0788 72000000 		.4byte	0x72
 2773 078c B1050000 		.4byte	.LLST36
 2774 0790 00       		.byte	0
 2775 0791 15       		.uleb128 0x15
 2776 0792 71000000 		.4byte	.LASF77
 2777 0796 01       		.byte	0x1
 2778 0797 1006     		.2byte	0x610
 2779 0799 00000000 		.4byte	.LFB20
 2780 079d 60000000 		.4byte	.LFE20-.LFB20
 2781 07a1 01       		.uleb128 0x1
ARM GAS  C:\Users\HANNAL~1\AppData\Local\Temp\ccGbhEeb.s 			page 86


 2782 07a2 9C       		.byte	0x9c
 2783 07a3 06080000 		.4byte	0x806
 2784 07a7 0C       		.uleb128 0xc
 2785 07a8 74040000 		.4byte	.LASF31
 2786 07ac 01       		.byte	0x1
 2787 07ad 1006     		.2byte	0x610
 2788 07af 72000000 		.4byte	0x72
 2789 07b3 CF050000 		.4byte	.LLST37
 2790 07b7 0C       		.uleb128 0xc
 2791 07b8 80040000 		.4byte	.LASF78
 2792 07bc 01       		.byte	0x1
 2793 07bd 1006     		.2byte	0x610
 2794 07bf 72000000 		.4byte	0x72
 2795 07c3 09060000 		.4byte	.LLST38
 2796 07c7 10       		.uleb128 0x10
 2797 07c8 1E000000 		.4byte	.LVL148
 2798 07cc 07040000 		.4byte	0x407
 2799 07d0 11       		.uleb128 0x11
 2800 07d1 24000000 		.4byte	.LVL149
 2801 07d5 66020000 		.4byte	0x266
 2802 07d9 E4070000 		.4byte	0x7e4
 2803 07dd 0F       		.uleb128 0xf
 2804 07de 01       		.uleb128 0x1
 2805 07df 50       		.byte	0x50
 2806 07e0 02       		.uleb128 0x2
 2807 07e1 74       		.byte	0x74
 2808 07e2 00       		.sleb128 0
 2809 07e3 00       		.byte	0
 2810 07e4 10       		.uleb128 0x10
 2811 07e5 42000000 		.4byte	.LVL150
 2812 07e9 DE030000 		.4byte	0x3de
 2813 07ed 10       		.uleb128 0x10
 2814 07ee 46000000 		.4byte	.LVL151
 2815 07f2 5E050000 		.4byte	0x55e
 2816 07f6 0E       		.uleb128 0xe
 2817 07f7 4E000000 		.4byte	.LVL154
 2818 07fb AE090000 		.4byte	0x9ae
 2819 07ff 0F       		.uleb128 0xf
 2820 0800 01       		.uleb128 0x1
 2821 0801 50       		.byte	0x50
 2822 0802 01       		.uleb128 0x1
 2823 0803 30       		.byte	0x30
 2824 0804 00       		.byte	0
 2825 0805 00       		.byte	0
 2826 0806 17       		.uleb128 0x17
 2827 0807 E6060000 		.4byte	.LASF79
 2828 080b 01       		.byte	0x1
 2829 080c E206     		.2byte	0x6e2
 2830 080e 96000000 		.4byte	0x96
 2831 0812 00000000 		.4byte	.LFB23
 2832 0816 28000000 		.4byte	.LFE23-.LFB23
 2833 081a 01       		.uleb128 0x1
 2834 081b 9C       		.byte	0x9c
 2835 081c 5F080000 		.4byte	0x85f
 2836 0820 0D       		.uleb128 0xd
 2837 0821 F9060000 		.4byte	.LASF61
 2838 0825 01       		.byte	0x1
ARM GAS  C:\Users\HANNAL~1\AppData\Local\Temp\ccGbhEeb.s 			page 87


 2839 0826 E406     		.2byte	0x6e4
 2840 0828 96000000 		.4byte	0x96
 2841 082c 43060000 		.4byte	.LLST39
 2842 0830 10       		.uleb128 0x10
 2843 0831 10000000 		.4byte	.LVL155
 2844 0835 5E050000 		.4byte	0x55e
 2845 0839 11       		.uleb128 0x11
 2846 083a 16000000 		.4byte	.LVL156
 2847 083e 82050000 		.4byte	0x582
 2848 0842 4C080000 		.4byte	0x84c
 2849 0846 0F       		.uleb128 0xf
 2850 0847 01       		.uleb128 0x1
 2851 0848 50       		.byte	0x50
 2852 0849 01       		.uleb128 0x1
 2853 084a 30       		.byte	0x30
 2854 084b 00       		.byte	0
 2855 084c 10       		.uleb128 0x10
 2856 084d 1A000000 		.4byte	.LVL157
 2857 0851 BD050000 		.4byte	0x5bd
 2858 0855 10       		.uleb128 0x10
 2859 0856 20000000 		.4byte	.LVL159
 2860 085a 70050000 		.4byte	0x570
 2861 085e 00       		.byte	0
 2862 085f 17       		.uleb128 0x17
 2863 0860 4A060000 		.4byte	.LASF80
 2864 0864 01       		.byte	0x1
 2865 0865 0307     		.2byte	0x703
 2866 0867 A2000000 		.4byte	0xa2
 2867 086b 00000000 		.4byte	.LFB24
 2868 086f 28000000 		.4byte	.LFE24-.LFB24
 2869 0873 01       		.uleb128 0x1
 2870 0874 9C       		.byte	0x9c
 2871 0875 B8080000 		.4byte	0x8b8
 2872 0879 0D       		.uleb128 0xd
 2873 087a F9060000 		.4byte	.LASF61
 2874 087e 01       		.byte	0x1
 2875 087f 0507     		.2byte	0x705
 2876 0881 A2000000 		.4byte	0xa2
 2877 0885 56060000 		.4byte	.LLST40
 2878 0889 10       		.uleb128 0x10
 2879 088a 10000000 		.4byte	.LVL161
 2880 088e 5E050000 		.4byte	0x55e
 2881 0892 11       		.uleb128 0x11
 2882 0893 16000000 		.4byte	.LVL162
 2883 0897 82050000 		.4byte	0x582
 2884 089b A5080000 		.4byte	0x8a5
 2885 089f 0F       		.uleb128 0xf
 2886 08a0 01       		.uleb128 0x1
 2887 08a1 50       		.byte	0x50
 2888 08a2 01       		.uleb128 0x1
 2889 08a3 30       		.byte	0x30
 2890 08a4 00       		.byte	0
 2891 08a5 10       		.uleb128 0x10
 2892 08a6 1A000000 		.4byte	.LVL163
 2893 08aa F6050000 		.4byte	0x5f6
 2894 08ae 10       		.uleb128 0x10
 2895 08af 20000000 		.4byte	.LVL165
ARM GAS  C:\Users\HANNAL~1\AppData\Local\Temp\ccGbhEeb.s 			page 88


 2896 08b3 70050000 		.4byte	0x570
 2897 08b7 00       		.byte	0
 2898 08b8 17       		.uleb128 0x17
 2899 08b9 20010000 		.4byte	.LASF81
 2900 08bd 01       		.byte	0x1
 2901 08be 2407     		.2byte	0x724
 2902 08c0 AE000000 		.4byte	0xae
 2903 08c4 00000000 		.4byte	.LFB25
 2904 08c8 28000000 		.4byte	.LFE25-.LFB25
 2905 08cc 01       		.uleb128 0x1
 2906 08cd 9C       		.byte	0x9c
 2907 08ce 11090000 		.4byte	0x911
 2908 08d2 0D       		.uleb128 0xd
 2909 08d3 F9060000 		.4byte	.LASF61
 2910 08d7 01       		.byte	0x1
 2911 08d8 2607     		.2byte	0x726
 2912 08da AE000000 		.4byte	0xae
 2913 08de 69060000 		.4byte	.LLST41
 2914 08e2 10       		.uleb128 0x10
 2915 08e3 10000000 		.4byte	.LVL167
 2916 08e7 5E050000 		.4byte	0x55e
 2917 08eb 11       		.uleb128 0x11
 2918 08ec 16000000 		.4byte	.LVL168
 2919 08f0 82050000 		.4byte	0x582
 2920 08f4 FE080000 		.4byte	0x8fe
 2921 08f8 0F       		.uleb128 0xf
 2922 08f9 01       		.uleb128 0x1
 2923 08fa 50       		.byte	0x50
 2924 08fb 01       		.uleb128 0x1
 2925 08fc 30       		.byte	0x30
 2926 08fd 00       		.byte	0
 2927 08fe 10       		.uleb128 0x10
 2928 08ff 1A000000 		.4byte	.LVL169
 2929 0903 31060000 		.4byte	0x631
 2930 0907 10       		.uleb128 0x10
 2931 0908 20000000 		.4byte	.LVL171
 2932 090c 70050000 		.4byte	0x570
 2933 0910 00       		.byte	0
 2934 0911 1B       		.uleb128 0x1b
 2935 0912 42010000 		.4byte	0x142
 2936 0916 21090000 		.4byte	0x921
 2937 091a 1C       		.uleb128 0x1c
 2938 091b 1A010000 		.4byte	0x11a
 2939 091f 00       		.byte	0
 2940 0920 00       		.byte	0
 2941 0921 1D       		.uleb128 0x1d
 2942 0922 32070000 		.4byte	.LASF82
 2943 0926 01       		.byte	0x1
 2944 0927 3D       		.byte	0x3d
 2945 0928 11090000 		.4byte	0x911
 2946 092c 05       		.uleb128 0x5
 2947 092d 03       		.byte	0x3
 2948 092e 00000000 		.4byte	ADC_DelSig_1_gcor
 2949 0932 1E       		.uleb128 0x1e
 2950 0933 C0010000 		.4byte	.LASF83
 2951 0937 01       		.byte	0x1
 2952 0938 2C       		.byte	0x2c
ARM GAS  C:\Users\HANNAL~1\AppData\Local\Temp\ccGbhEeb.s 			page 89


 2953 0939 72000000 		.4byte	0x72
 2954 093d 05       		.uleb128 0x5
 2955 093e 03       		.byte	0x3
 2956 093f 00000000 		.4byte	ADC_DelSig_1_initVar
 2957 0943 1E       		.uleb128 0x1e
 2958 0944 B9020000 		.4byte	.LASF84
 2959 0948 01       		.byte	0x1
 2960 0949 24       		.byte	0x24
 2961 094a E0000000 		.4byte	0xe0
 2962 094e 05       		.uleb128 0x5
 2963 094f 03       		.byte	0x3
 2964 0950 00000000 		.4byte	ADC_DelSig_1_convDone
 2965 0954 1E       		.uleb128 0x1e
 2966 0955 00070000 		.4byte	.LASF85
 2967 0959 01       		.byte	0x1
 2968 095a 29       		.byte	0x29
 2969 095b E0000000 		.4byte	0xe0
 2970 095f 05       		.uleb128 0x5
 2971 0960 03       		.byte	0x3
 2972 0961 00000000 		.4byte	ADC_DelSig_1_stopConversion
 2973 0965 1E       		.uleb128 0x1e
 2974 0966 FE010000 		.4byte	.LASF86
 2975 096a 01       		.byte	0x1
 2976 096b 2F       		.byte	0x2f
 2977 096c E0000000 		.4byte	0xe0
 2978 0970 05       		.uleb128 0x5
 2979 0971 03       		.byte	0x3
 2980 0972 00000000 		.4byte	ADC_DelSig_1_started
 2981 0976 1E       		.uleb128 0x1e
 2982 0977 03030000 		.4byte	.LASF87
 2983 097b 01       		.byte	0x1
 2984 097c 32       		.byte	0x32
 2985 097d E0000000 		.4byte	0xe0
 2986 0981 05       		.uleb128 0x5
 2987 0982 03       		.byte	0x3
 2988 0983 00000000 		.4byte	ADC_DelSig_1_Config
 2989 0987 1E       		.uleb128 0x1e
 2990 0988 8F030000 		.4byte	.LASF88
 2991 098c 01       		.byte	0x1
 2992 098d 34       		.byte	0x34
 2993 098e 98090000 		.4byte	0x998
 2994 0992 05       		.uleb128 0x5
 2995 0993 03       		.byte	0x3
 2996 0994 00000000 		.4byte	ADC_DelSig_1_Offset
 2997 0998 05       		.uleb128 0x5
 2998 0999 AE000000 		.4byte	0xae
 2999 099d 1E       		.uleb128 0x1e
 3000 099e 2E000000 		.4byte	.LASF89
 3001 09a2 01       		.byte	0x1
 3002 09a3 35       		.byte	0x35
 3003 09a4 98090000 		.4byte	0x998
 3004 09a8 05       		.uleb128 0x5
 3005 09a9 03       		.byte	0x3
 3006 09aa 00000000 		.4byte	ADC_DelSig_1_CountsPerVolt
 3007 09ae 1F       		.uleb128 0x1f
 3008 09af C0030000 		.4byte	.LASF90
 3009 09b3 04       		.byte	0x4
ARM GAS  C:\Users\HANNAL~1\AppData\Local\Temp\ccGbhEeb.s 			page 90


 3010 09b4 80       		.byte	0x80
 3011 09b5 BF090000 		.4byte	0x9bf
 3012 09b9 20       		.uleb128 0x20
 3013 09ba 72000000 		.4byte	0x72
 3014 09be 00       		.byte	0
 3015 09bf 21       		.uleb128 0x21
 3016 09c0 E7010000 		.4byte	.LASF101
 3017 09c4 04       		.byte	0x4
 3018 09c5 7E       		.byte	0x7e
 3019 09c6 72000000 		.4byte	0x72
 3020 09ca 1F       		.uleb128 0x1f
 3021 09cb 49010000 		.4byte	.LASF91
 3022 09cf 04       		.byte	0x4
 3023 09d0 78       		.byte	0x78
 3024 09d1 DB090000 		.4byte	0x9db
 3025 09d5 20       		.uleb128 0x20
 3026 09d6 7E000000 		.4byte	0x7e
 3027 09da 00       		.byte	0
 3028 09db 1F       		.uleb128 0x1f
 3029 09dc 79030000 		.4byte	.LASF92
 3030 09e0 04       		.byte	0x4
 3031 09e1 7F       		.byte	0x7f
 3032 09e2 EC090000 		.4byte	0x9ec
 3033 09e6 20       		.uleb128 0x20
 3034 09e7 72000000 		.4byte	0x72
 3035 09eb 00       		.byte	0
 3036 09ec 1F       		.uleb128 0x1f
 3037 09ed 1C060000 		.4byte	.LASF93
 3038 09f1 05       		.byte	0x5
 3039 09f2 50       		.byte	0x50
 3040 09f3 FD090000 		.4byte	0x9fd
 3041 09f7 20       		.uleb128 0x20
 3042 09f8 72000000 		.4byte	0x72
 3043 09fc 00       		.byte	0
 3044 09fd 1F       		.uleb128 0x1f
 3045 09fe 35020000 		.4byte	.LASF94
 3046 0a02 06       		.byte	0x6
 3047 0a03 2F       		.byte	0x2f
 3048 0a04 130A0000 		.4byte	0xa13
 3049 0a08 20       		.uleb128 0x20
 3050 0a09 7E000000 		.4byte	0x7e
 3051 0a0d 20       		.uleb128 0x20
 3052 0a0e 72000000 		.4byte	0x72
 3053 0a12 00       		.byte	0
 3054 0a13 1F       		.uleb128 0x1f
 3055 0a14 49000000 		.4byte	.LASF95
 3056 0a18 07       		.byte	0x7
 3057 0a19 2F       		.byte	0x2f
 3058 0a1a 290A0000 		.4byte	0xa29
 3059 0a1e 20       		.uleb128 0x20
 3060 0a1f 7E000000 		.4byte	0x7e
 3061 0a23 20       		.uleb128 0x20
 3062 0a24 72000000 		.4byte	0x72
 3063 0a28 00       		.byte	0
 3064 0a29 22       		.uleb128 0x22
 3065 0a2a 67010000 		.4byte	.LASF102
 3066 0a2e 04       		.byte	0x4
ARM GAS  C:\Users\HANNAL~1\AppData\Local\Temp\ccGbhEeb.s 			page 91


 3067 0a2f 89       		.byte	0x89
 3068 0a30 07010000 		.4byte	0x107
 3069 0a34 430A0000 		.4byte	0xa43
 3070 0a38 20       		.uleb128 0x20
 3071 0a39 72000000 		.4byte	0x72
 3072 0a3d 20       		.uleb128 0x20
 3073 0a3e 07010000 		.4byte	0x107
 3074 0a42 00       		.byte	0
 3075 0a43 1F       		.uleb128 0x1f
 3076 0a44 32030000 		.4byte	.LASF96
 3077 0a48 06       		.byte	0x6
 3078 0a49 32       		.byte	0x32
 3079 0a4a 540A0000 		.4byte	0xa54
 3080 0a4e 20       		.uleb128 0x20
 3081 0a4f 72000000 		.4byte	0x72
 3082 0a53 00       		.byte	0
 3083 0a54 1F       		.uleb128 0x1f
 3084 0a55 B3040000 		.4byte	.LASF97
 3085 0a59 07       		.byte	0x7
 3086 0a5a 32       		.byte	0x32
 3087 0a5b 650A0000 		.4byte	0xa65
 3088 0a5f 20       		.uleb128 0x20
 3089 0a60 72000000 		.4byte	0x72
 3090 0a64 00       		.byte	0
 3091 0a65 23       		.uleb128 0x23
 3092 0a66 21030000 		.4byte	.LASF103
 3093 0a6a 04       		.byte	0x4
 3094 0a6b 8C       		.byte	0x8c
 3095 0a6c 20       		.uleb128 0x20
 3096 0a6d 72000000 		.4byte	0x72
 3097 0a71 20       		.uleb128 0x20
 3098 0a72 72000000 		.4byte	0x72
 3099 0a76 00       		.byte	0
 3100 0a77 00       		.byte	0
 3101              		.section	.debug_abbrev,"",%progbits
 3102              	.Ldebug_abbrev0:
 3103 0000 01       		.uleb128 0x1
 3104 0001 11       		.uleb128 0x11
 3105 0002 01       		.byte	0x1
 3106 0003 25       		.uleb128 0x25
 3107 0004 0E       		.uleb128 0xe
 3108 0005 13       		.uleb128 0x13
 3109 0006 0B       		.uleb128 0xb
 3110 0007 03       		.uleb128 0x3
 3111 0008 0E       		.uleb128 0xe
 3112 0009 1B       		.uleb128 0x1b
 3113 000a 0E       		.uleb128 0xe
 3114 000b 55       		.uleb128 0x55
 3115 000c 17       		.uleb128 0x17
 3116 000d 11       		.uleb128 0x11
 3117 000e 01       		.uleb128 0x1
 3118 000f 10       		.uleb128 0x10
 3119 0010 17       		.uleb128 0x17
 3120 0011 00       		.byte	0
 3121 0012 00       		.byte	0
 3122 0013 02       		.uleb128 0x2
 3123 0014 24       		.uleb128 0x24
ARM GAS  C:\Users\HANNAL~1\AppData\Local\Temp\ccGbhEeb.s 			page 92


 3124 0015 00       		.byte	0
 3125 0016 0B       		.uleb128 0xb
 3126 0017 0B       		.uleb128 0xb
 3127 0018 3E       		.uleb128 0x3e
 3128 0019 0B       		.uleb128 0xb
 3129 001a 03       		.uleb128 0x3
 3130 001b 0E       		.uleb128 0xe
 3131 001c 00       		.byte	0
 3132 001d 00       		.byte	0
 3133 001e 03       		.uleb128 0x3
 3134 001f 24       		.uleb128 0x24
 3135 0020 00       		.byte	0
 3136 0021 0B       		.uleb128 0xb
 3137 0022 0B       		.uleb128 0xb
 3138 0023 3E       		.uleb128 0x3e
 3139 0024 0B       		.uleb128 0xb
 3140 0025 03       		.uleb128 0x3
 3141 0026 08       		.uleb128 0x8
 3142 0027 00       		.byte	0
 3143 0028 00       		.byte	0
 3144 0029 04       		.uleb128 0x4
 3145 002a 16       		.uleb128 0x16
 3146 002b 00       		.byte	0
 3147 002c 03       		.uleb128 0x3
 3148 002d 0E       		.uleb128 0xe
 3149 002e 3A       		.uleb128 0x3a
 3150 002f 0B       		.uleb128 0xb
 3151 0030 3B       		.uleb128 0x3b
 3152 0031 05       		.uleb128 0x5
 3153 0032 49       		.uleb128 0x49
 3154 0033 13       		.uleb128 0x13
 3155 0034 00       		.byte	0
 3156 0035 00       		.byte	0
 3157 0036 05       		.uleb128 0x5
 3158 0037 35       		.uleb128 0x35
 3159 0038 00       		.byte	0
 3160 0039 49       		.uleb128 0x49
 3161 003a 13       		.uleb128 0x13
 3162 003b 00       		.byte	0
 3163 003c 00       		.byte	0
 3164 003d 06       		.uleb128 0x6
 3165 003e 0F       		.uleb128 0xf
 3166 003f 00       		.byte	0
 3167 0040 0B       		.uleb128 0xb
 3168 0041 0B       		.uleb128 0xb
 3169 0042 49       		.uleb128 0x49
 3170 0043 13       		.uleb128 0x13
 3171 0044 00       		.byte	0
 3172 0045 00       		.byte	0
 3173 0046 07       		.uleb128 0x7
 3174 0047 15       		.uleb128 0x15
 3175 0048 00       		.byte	0
 3176 0049 27       		.uleb128 0x27
 3177 004a 19       		.uleb128 0x19
 3178 004b 00       		.byte	0
 3179 004c 00       		.byte	0
 3180 004d 08       		.uleb128 0x8
ARM GAS  C:\Users\HANNAL~1\AppData\Local\Temp\ccGbhEeb.s 			page 93


 3181 004e 13       		.uleb128 0x13
 3182 004f 01       		.byte	0x1
 3183 0050 0B       		.uleb128 0xb
 3184 0051 0B       		.uleb128 0xb
 3185 0052 3A       		.uleb128 0x3a
 3186 0053 0B       		.uleb128 0xb
 3187 0054 3B       		.uleb128 0x3b
 3188 0055 0B       		.uleb128 0xb
 3189 0056 01       		.uleb128 0x1
 3190 0057 13       		.uleb128 0x13
 3191 0058 00       		.byte	0
 3192 0059 00       		.byte	0
 3193 005a 09       		.uleb128 0x9
 3194 005b 0D       		.uleb128 0xd
 3195 005c 00       		.byte	0
 3196 005d 03       		.uleb128 0x3
 3197 005e 0E       		.uleb128 0xe
 3198 005f 3A       		.uleb128 0x3a
 3199 0060 0B       		.uleb128 0xb
 3200 0061 3B       		.uleb128 0x3b
 3201 0062 0B       		.uleb128 0xb
 3202 0063 49       		.uleb128 0x49
 3203 0064 13       		.uleb128 0x13
 3204 0065 38       		.uleb128 0x38
 3205 0066 0B       		.uleb128 0xb
 3206 0067 00       		.byte	0
 3207 0068 00       		.byte	0
 3208 0069 0A       		.uleb128 0xa
 3209 006a 16       		.uleb128 0x16
 3210 006b 00       		.byte	0
 3211 006c 03       		.uleb128 0x3
 3212 006d 0E       		.uleb128 0xe
 3213 006e 3A       		.uleb128 0x3a
 3214 006f 0B       		.uleb128 0xb
 3215 0070 3B       		.uleb128 0x3b
 3216 0071 0B       		.uleb128 0xb
 3217 0072 49       		.uleb128 0x49
 3218 0073 13       		.uleb128 0x13
 3219 0074 00       		.byte	0
 3220 0075 00       		.byte	0
 3221 0076 0B       		.uleb128 0xb
 3222 0077 2E       		.uleb128 0x2e
 3223 0078 01       		.byte	0x1
 3224 0079 03       		.uleb128 0x3
 3225 007a 0E       		.uleb128 0xe
 3226 007b 3A       		.uleb128 0x3a
 3227 007c 0B       		.uleb128 0xb
 3228 007d 3B       		.uleb128 0x3b
 3229 007e 05       		.uleb128 0x5
 3230 007f 27       		.uleb128 0x27
 3231 0080 19       		.uleb128 0x19
 3232 0081 11       		.uleb128 0x11
 3233 0082 01       		.uleb128 0x1
 3234 0083 12       		.uleb128 0x12
 3235 0084 06       		.uleb128 0x6
 3236 0085 40       		.uleb128 0x40
 3237 0086 18       		.uleb128 0x18
ARM GAS  C:\Users\HANNAL~1\AppData\Local\Temp\ccGbhEeb.s 			page 94


 3238 0087 9742     		.uleb128 0x2117
 3239 0089 19       		.uleb128 0x19
 3240 008a 01       		.uleb128 0x1
 3241 008b 13       		.uleb128 0x13
 3242 008c 00       		.byte	0
 3243 008d 00       		.byte	0
 3244 008e 0C       		.uleb128 0xc
 3245 008f 05       		.uleb128 0x5
 3246 0090 00       		.byte	0
 3247 0091 03       		.uleb128 0x3
 3248 0092 0E       		.uleb128 0xe
 3249 0093 3A       		.uleb128 0x3a
 3250 0094 0B       		.uleb128 0xb
 3251 0095 3B       		.uleb128 0x3b
 3252 0096 05       		.uleb128 0x5
 3253 0097 49       		.uleb128 0x49
 3254 0098 13       		.uleb128 0x13
 3255 0099 02       		.uleb128 0x2
 3256 009a 17       		.uleb128 0x17
 3257 009b 00       		.byte	0
 3258 009c 00       		.byte	0
 3259 009d 0D       		.uleb128 0xd
 3260 009e 34       		.uleb128 0x34
 3261 009f 00       		.byte	0
 3262 00a0 03       		.uleb128 0x3
 3263 00a1 0E       		.uleb128 0xe
 3264 00a2 3A       		.uleb128 0x3a
 3265 00a3 0B       		.uleb128 0xb
 3266 00a4 3B       		.uleb128 0x3b
 3267 00a5 05       		.uleb128 0x5
 3268 00a6 49       		.uleb128 0x49
 3269 00a7 13       		.uleb128 0x13
 3270 00a8 02       		.uleb128 0x2
 3271 00a9 17       		.uleb128 0x17
 3272 00aa 00       		.byte	0
 3273 00ab 00       		.byte	0
 3274 00ac 0E       		.uleb128 0xe
 3275 00ad 898201   		.uleb128 0x4109
 3276 00b0 01       		.byte	0x1
 3277 00b1 11       		.uleb128 0x11
 3278 00b2 01       		.uleb128 0x1
 3279 00b3 31       		.uleb128 0x31
 3280 00b4 13       		.uleb128 0x13
 3281 00b5 00       		.byte	0
 3282 00b6 00       		.byte	0
 3283 00b7 0F       		.uleb128 0xf
 3284 00b8 8A8201   		.uleb128 0x410a
 3285 00bb 00       		.byte	0
 3286 00bc 02       		.uleb128 0x2
 3287 00bd 18       		.uleb128 0x18
 3288 00be 9142     		.uleb128 0x2111
 3289 00c0 18       		.uleb128 0x18
 3290 00c1 00       		.byte	0
 3291 00c2 00       		.byte	0
 3292 00c3 10       		.uleb128 0x10
 3293 00c4 898201   		.uleb128 0x4109
 3294 00c7 00       		.byte	0
ARM GAS  C:\Users\HANNAL~1\AppData\Local\Temp\ccGbhEeb.s 			page 95


 3295 00c8 11       		.uleb128 0x11
 3296 00c9 01       		.uleb128 0x1
 3297 00ca 31       		.uleb128 0x31
 3298 00cb 13       		.uleb128 0x13
 3299 00cc 00       		.byte	0
 3300 00cd 00       		.byte	0
 3301 00ce 11       		.uleb128 0x11
 3302 00cf 898201   		.uleb128 0x4109
 3303 00d2 01       		.byte	0x1
 3304 00d3 11       		.uleb128 0x11
 3305 00d4 01       		.uleb128 0x1
 3306 00d5 31       		.uleb128 0x31
 3307 00d6 13       		.uleb128 0x13
 3308 00d7 01       		.uleb128 0x1
 3309 00d8 13       		.uleb128 0x13
 3310 00d9 00       		.byte	0
 3311 00da 00       		.byte	0
 3312 00db 12       		.uleb128 0x12
 3313 00dc 2E       		.uleb128 0x2e
 3314 00dd 01       		.byte	0x1
 3315 00de 3F       		.uleb128 0x3f
 3316 00df 19       		.uleb128 0x19
 3317 00e0 03       		.uleb128 0x3
 3318 00e1 0E       		.uleb128 0xe
 3319 00e2 3A       		.uleb128 0x3a
 3320 00e3 0B       		.uleb128 0xb
 3321 00e4 3B       		.uleb128 0x3b
 3322 00e5 0B       		.uleb128 0xb
 3323 00e6 27       		.uleb128 0x27
 3324 00e7 19       		.uleb128 0x19
 3325 00e8 11       		.uleb128 0x11
 3326 00e9 01       		.uleb128 0x1
 3327 00ea 12       		.uleb128 0x12
 3328 00eb 06       		.uleb128 0x6
 3329 00ec 40       		.uleb128 0x40
 3330 00ed 18       		.uleb128 0x18
 3331 00ee 9742     		.uleb128 0x2117
 3332 00f0 19       		.uleb128 0x19
 3333 00f1 01       		.uleb128 0x1
 3334 00f2 13       		.uleb128 0x13
 3335 00f3 00       		.byte	0
 3336 00f4 00       		.byte	0
 3337 00f5 13       		.uleb128 0x13
 3338 00f6 34       		.uleb128 0x34
 3339 00f7 00       		.byte	0
 3340 00f8 03       		.uleb128 0x3
 3341 00f9 0E       		.uleb128 0xe
 3342 00fa 3A       		.uleb128 0x3a
 3343 00fb 0B       		.uleb128 0xb
 3344 00fc 3B       		.uleb128 0x3b
 3345 00fd 0B       		.uleb128 0xb
 3346 00fe 49       		.uleb128 0x49
 3347 00ff 13       		.uleb128 0x13
 3348 0100 00       		.byte	0
 3349 0101 00       		.byte	0
 3350 0102 14       		.uleb128 0x14
 3351 0103 34       		.uleb128 0x34
ARM GAS  C:\Users\HANNAL~1\AppData\Local\Temp\ccGbhEeb.s 			page 96


 3352 0104 00       		.byte	0
 3353 0105 03       		.uleb128 0x3
 3354 0106 0E       		.uleb128 0xe
 3355 0107 3A       		.uleb128 0x3a
 3356 0108 0B       		.uleb128 0xb
 3357 0109 3B       		.uleb128 0x3b
 3358 010a 0B       		.uleb128 0xb
 3359 010b 49       		.uleb128 0x49
 3360 010c 13       		.uleb128 0x13
 3361 010d 02       		.uleb128 0x2
 3362 010e 17       		.uleb128 0x17
 3363 010f 00       		.byte	0
 3364 0110 00       		.byte	0
 3365 0111 15       		.uleb128 0x15
 3366 0112 2E       		.uleb128 0x2e
 3367 0113 01       		.byte	0x1
 3368 0114 3F       		.uleb128 0x3f
 3369 0115 19       		.uleb128 0x19
 3370 0116 03       		.uleb128 0x3
 3371 0117 0E       		.uleb128 0xe
 3372 0118 3A       		.uleb128 0x3a
 3373 0119 0B       		.uleb128 0xb
 3374 011a 3B       		.uleb128 0x3b
 3375 011b 05       		.uleb128 0x5
 3376 011c 27       		.uleb128 0x27
 3377 011d 19       		.uleb128 0x19
 3378 011e 11       		.uleb128 0x11
 3379 011f 01       		.uleb128 0x1
 3380 0120 12       		.uleb128 0x12
 3381 0121 06       		.uleb128 0x6
 3382 0122 40       		.uleb128 0x40
 3383 0123 18       		.uleb128 0x18
 3384 0124 9742     		.uleb128 0x2117
 3385 0126 19       		.uleb128 0x19
 3386 0127 01       		.uleb128 0x1
 3387 0128 13       		.uleb128 0x13
 3388 0129 00       		.byte	0
 3389 012a 00       		.byte	0
 3390 012b 16       		.uleb128 0x16
 3391 012c 2E       		.uleb128 0x2e
 3392 012d 01       		.byte	0x1
 3393 012e 3F       		.uleb128 0x3f
 3394 012f 19       		.uleb128 0x19
 3395 0130 03       		.uleb128 0x3
 3396 0131 0E       		.uleb128 0xe
 3397 0132 3A       		.uleb128 0x3a
 3398 0133 0B       		.uleb128 0xb
 3399 0134 3B       		.uleb128 0x3b
 3400 0135 05       		.uleb128 0x5
 3401 0136 27       		.uleb128 0x27
 3402 0137 19       		.uleb128 0x19
 3403 0138 49       		.uleb128 0x49
 3404 0139 13       		.uleb128 0x13
 3405 013a 11       		.uleb128 0x11
 3406 013b 01       		.uleb128 0x1
 3407 013c 12       		.uleb128 0x12
 3408 013d 06       		.uleb128 0x6
ARM GAS  C:\Users\HANNAL~1\AppData\Local\Temp\ccGbhEeb.s 			page 97


 3409 013e 40       		.uleb128 0x40
 3410 013f 18       		.uleb128 0x18
 3411 0140 9642     		.uleb128 0x2116
 3412 0142 19       		.uleb128 0x19
 3413 0143 01       		.uleb128 0x1
 3414 0144 13       		.uleb128 0x13
 3415 0145 00       		.byte	0
 3416 0146 00       		.byte	0
 3417 0147 17       		.uleb128 0x17
 3418 0148 2E       		.uleb128 0x2e
 3419 0149 01       		.byte	0x1
 3420 014a 3F       		.uleb128 0x3f
 3421 014b 19       		.uleb128 0x19
 3422 014c 03       		.uleb128 0x3
 3423 014d 0E       		.uleb128 0xe
 3424 014e 3A       		.uleb128 0x3a
 3425 014f 0B       		.uleb128 0xb
 3426 0150 3B       		.uleb128 0x3b
 3427 0151 05       		.uleb128 0x5
 3428 0152 27       		.uleb128 0x27
 3429 0153 19       		.uleb128 0x19
 3430 0154 49       		.uleb128 0x49
 3431 0155 13       		.uleb128 0x13
 3432 0156 11       		.uleb128 0x11
 3433 0157 01       		.uleb128 0x1
 3434 0158 12       		.uleb128 0x12
 3435 0159 06       		.uleb128 0x6
 3436 015a 40       		.uleb128 0x40
 3437 015b 18       		.uleb128 0x18
 3438 015c 9742     		.uleb128 0x2117
 3439 015e 19       		.uleb128 0x19
 3440 015f 01       		.uleb128 0x1
 3441 0160 13       		.uleb128 0x13
 3442 0161 00       		.byte	0
 3443 0162 00       		.byte	0
 3444 0163 18       		.uleb128 0x18
 3445 0164 2E       		.uleb128 0x2e
 3446 0165 00       		.byte	0
 3447 0166 3F       		.uleb128 0x3f
 3448 0167 19       		.uleb128 0x19
 3449 0168 03       		.uleb128 0x3
 3450 0169 0E       		.uleb128 0xe
 3451 016a 3A       		.uleb128 0x3a
 3452 016b 0B       		.uleb128 0xb
 3453 016c 3B       		.uleb128 0x3b
 3454 016d 05       		.uleb128 0x5
 3455 016e 27       		.uleb128 0x27
 3456 016f 19       		.uleb128 0x19
 3457 0170 11       		.uleb128 0x11
 3458 0171 01       		.uleb128 0x1
 3459 0172 12       		.uleb128 0x12
 3460 0173 06       		.uleb128 0x6
 3461 0174 40       		.uleb128 0x40
 3462 0175 18       		.uleb128 0x18
 3463 0176 9742     		.uleb128 0x2117
 3464 0178 19       		.uleb128 0x19
 3465 0179 00       		.byte	0
ARM GAS  C:\Users\HANNAL~1\AppData\Local\Temp\ccGbhEeb.s 			page 98


 3466 017a 00       		.byte	0
 3467 017b 19       		.uleb128 0x19
 3468 017c 34       		.uleb128 0x34
 3469 017d 00       		.byte	0
 3470 017e 03       		.uleb128 0x3
 3471 017f 0E       		.uleb128 0xe
 3472 0180 3A       		.uleb128 0x3a
 3473 0181 0B       		.uleb128 0xb
 3474 0182 3B       		.uleb128 0x3b
 3475 0183 05       		.uleb128 0x5
 3476 0184 49       		.uleb128 0x49
 3477 0185 13       		.uleb128 0x13
 3478 0186 02       		.uleb128 0x2
 3479 0187 18       		.uleb128 0x18
 3480 0188 00       		.byte	0
 3481 0189 00       		.byte	0
 3482 018a 1A       		.uleb128 0x1a
 3483 018b 05       		.uleb128 0x5
 3484 018c 00       		.byte	0
 3485 018d 03       		.uleb128 0x3
 3486 018e 0E       		.uleb128 0xe
 3487 018f 3A       		.uleb128 0x3a
 3488 0190 0B       		.uleb128 0xb
 3489 0191 3B       		.uleb128 0x3b
 3490 0192 05       		.uleb128 0x5
 3491 0193 49       		.uleb128 0x49
 3492 0194 13       		.uleb128 0x13
 3493 0195 02       		.uleb128 0x2
 3494 0196 18       		.uleb128 0x18
 3495 0197 00       		.byte	0
 3496 0198 00       		.byte	0
 3497 0199 1B       		.uleb128 0x1b
 3498 019a 01       		.uleb128 0x1
 3499 019b 01       		.byte	0x1
 3500 019c 49       		.uleb128 0x49
 3501 019d 13       		.uleb128 0x13
 3502 019e 01       		.uleb128 0x1
 3503 019f 13       		.uleb128 0x13
 3504 01a0 00       		.byte	0
 3505 01a1 00       		.byte	0
 3506 01a2 1C       		.uleb128 0x1c
 3507 01a3 21       		.uleb128 0x21
 3508 01a4 00       		.byte	0
 3509 01a5 49       		.uleb128 0x49
 3510 01a6 13       		.uleb128 0x13
 3511 01a7 2F       		.uleb128 0x2f
 3512 01a8 0B       		.uleb128 0xb
 3513 01a9 00       		.byte	0
 3514 01aa 00       		.byte	0
 3515 01ab 1D       		.uleb128 0x1d
 3516 01ac 34       		.uleb128 0x34
 3517 01ad 00       		.byte	0
 3518 01ae 03       		.uleb128 0x3
 3519 01af 0E       		.uleb128 0xe
 3520 01b0 3A       		.uleb128 0x3a
 3521 01b1 0B       		.uleb128 0xb
 3522 01b2 3B       		.uleb128 0x3b
ARM GAS  C:\Users\HANNAL~1\AppData\Local\Temp\ccGbhEeb.s 			page 99


 3523 01b3 0B       		.uleb128 0xb
 3524 01b4 49       		.uleb128 0x49
 3525 01b5 13       		.uleb128 0x13
 3526 01b6 02       		.uleb128 0x2
 3527 01b7 18       		.uleb128 0x18
 3528 01b8 00       		.byte	0
 3529 01b9 00       		.byte	0
 3530 01ba 1E       		.uleb128 0x1e
 3531 01bb 34       		.uleb128 0x34
 3532 01bc 00       		.byte	0
 3533 01bd 03       		.uleb128 0x3
 3534 01be 0E       		.uleb128 0xe
 3535 01bf 3A       		.uleb128 0x3a
 3536 01c0 0B       		.uleb128 0xb
 3537 01c1 3B       		.uleb128 0x3b
 3538 01c2 0B       		.uleb128 0xb
 3539 01c3 49       		.uleb128 0x49
 3540 01c4 13       		.uleb128 0x13
 3541 01c5 3F       		.uleb128 0x3f
 3542 01c6 19       		.uleb128 0x19
 3543 01c7 02       		.uleb128 0x2
 3544 01c8 18       		.uleb128 0x18
 3545 01c9 00       		.byte	0
 3546 01ca 00       		.byte	0
 3547 01cb 1F       		.uleb128 0x1f
 3548 01cc 2E       		.uleb128 0x2e
 3549 01cd 01       		.byte	0x1
 3550 01ce 3F       		.uleb128 0x3f
 3551 01cf 19       		.uleb128 0x19
 3552 01d0 03       		.uleb128 0x3
 3553 01d1 0E       		.uleb128 0xe
 3554 01d2 3A       		.uleb128 0x3a
 3555 01d3 0B       		.uleb128 0xb
 3556 01d4 3B       		.uleb128 0x3b
 3557 01d5 0B       		.uleb128 0xb
 3558 01d6 27       		.uleb128 0x27
 3559 01d7 19       		.uleb128 0x19
 3560 01d8 3C       		.uleb128 0x3c
 3561 01d9 19       		.uleb128 0x19
 3562 01da 01       		.uleb128 0x1
 3563 01db 13       		.uleb128 0x13
 3564 01dc 00       		.byte	0
 3565 01dd 00       		.byte	0
 3566 01de 20       		.uleb128 0x20
 3567 01df 05       		.uleb128 0x5
 3568 01e0 00       		.byte	0
 3569 01e1 49       		.uleb128 0x49
 3570 01e2 13       		.uleb128 0x13
 3571 01e3 00       		.byte	0
 3572 01e4 00       		.byte	0
 3573 01e5 21       		.uleb128 0x21
 3574 01e6 2E       		.uleb128 0x2e
 3575 01e7 00       		.byte	0
 3576 01e8 3F       		.uleb128 0x3f
 3577 01e9 19       		.uleb128 0x19
 3578 01ea 03       		.uleb128 0x3
 3579 01eb 0E       		.uleb128 0xe
ARM GAS  C:\Users\HANNAL~1\AppData\Local\Temp\ccGbhEeb.s 			page 100


 3580 01ec 3A       		.uleb128 0x3a
 3581 01ed 0B       		.uleb128 0xb
 3582 01ee 3B       		.uleb128 0x3b
 3583 01ef 0B       		.uleb128 0xb
 3584 01f0 27       		.uleb128 0x27
 3585 01f1 19       		.uleb128 0x19
 3586 01f2 49       		.uleb128 0x49
 3587 01f3 13       		.uleb128 0x13
 3588 01f4 3C       		.uleb128 0x3c
 3589 01f5 19       		.uleb128 0x19
 3590 01f6 00       		.byte	0
 3591 01f7 00       		.byte	0
 3592 01f8 22       		.uleb128 0x22
 3593 01f9 2E       		.uleb128 0x2e
 3594 01fa 01       		.byte	0x1
 3595 01fb 3F       		.uleb128 0x3f
 3596 01fc 19       		.uleb128 0x19
 3597 01fd 03       		.uleb128 0x3
 3598 01fe 0E       		.uleb128 0xe
 3599 01ff 3A       		.uleb128 0x3a
 3600 0200 0B       		.uleb128 0xb
 3601 0201 3B       		.uleb128 0x3b
 3602 0202 0B       		.uleb128 0xb
 3603 0203 27       		.uleb128 0x27
 3604 0204 19       		.uleb128 0x19
 3605 0205 49       		.uleb128 0x49
 3606 0206 13       		.uleb128 0x13
 3607 0207 3C       		.uleb128 0x3c
 3608 0208 19       		.uleb128 0x19
 3609 0209 01       		.uleb128 0x1
 3610 020a 13       		.uleb128 0x13
 3611 020b 00       		.byte	0
 3612 020c 00       		.byte	0
 3613 020d 23       		.uleb128 0x23
 3614 020e 2E       		.uleb128 0x2e
 3615 020f 01       		.byte	0x1
 3616 0210 3F       		.uleb128 0x3f
 3617 0211 19       		.uleb128 0x19
 3618 0212 03       		.uleb128 0x3
 3619 0213 0E       		.uleb128 0xe
 3620 0214 3A       		.uleb128 0x3a
 3621 0215 0B       		.uleb128 0xb
 3622 0216 3B       		.uleb128 0x3b
 3623 0217 0B       		.uleb128 0xb
 3624 0218 27       		.uleb128 0x27
 3625 0219 19       		.uleb128 0x19
 3626 021a 3C       		.uleb128 0x3c
 3627 021b 19       		.uleb128 0x19
 3628 021c 00       		.byte	0
 3629 021d 00       		.byte	0
 3630 021e 00       		.byte	0
 3631              		.section	.debug_loc,"",%progbits
 3632              	.Ldebug_loc0:
 3633              	.LLST0:
 3634 0000 00000000 		.4byte	.LVL0
 3635 0004 0C000000 		.4byte	.LVL1
 3636 0008 0100     		.2byte	0x1
ARM GAS  C:\Users\HANNAL~1\AppData\Local\Temp\ccGbhEeb.s 			page 101


 3637 000a 50       		.byte	0x50
 3638 000b 0C000000 		.4byte	.LVL1
 3639 000f A0000000 		.4byte	.LVL29
 3640 0013 0400     		.2byte	0x4
 3641 0015 F3       		.byte	0xf3
 3642 0016 01       		.uleb128 0x1
 3643 0017 50       		.byte	0x50
 3644 0018 9F       		.byte	0x9f
 3645 0019 A0000000 		.4byte	.LVL29
 3646 001d A2000000 		.4byte	.LVL30
 3647 0021 0100     		.2byte	0x1
 3648 0023 50       		.byte	0x50
 3649 0024 A2000000 		.4byte	.LVL30
 3650 0028 CC000000 		.4byte	.LFE21
 3651 002c 0400     		.2byte	0x4
 3652 002e F3       		.byte	0xf3
 3653 002f 01       		.uleb128 0x1
 3654 0030 50       		.byte	0x50
 3655 0031 9F       		.byte	0x9f
 3656 0032 00000000 		.4byte	0
 3657 0036 00000000 		.4byte	0
 3658              	.LLST1:
 3659 003a 00000000 		.4byte	.LVL0
 3660 003e 66000000 		.4byte	.LVL19
 3661 0042 0100     		.2byte	0x1
 3662 0044 51       		.byte	0x51
 3663 0045 66000000 		.4byte	.LVL19
 3664 0049 A0000000 		.4byte	.LVL29
 3665 004d 0400     		.2byte	0x4
 3666 004f F3       		.byte	0xf3
 3667 0050 01       		.uleb128 0x1
 3668 0051 51       		.byte	0x51
 3669 0052 9F       		.byte	0x9f
 3670 0053 A0000000 		.4byte	.LVL29
 3671 0057 A5000000 		.4byte	.LVL31-1
 3672 005b 0100     		.2byte	0x1
 3673 005d 51       		.byte	0x51
 3674 005e A5000000 		.4byte	.LVL31-1
 3675 0062 CC000000 		.4byte	.LFE21
 3676 0066 0400     		.2byte	0x4
 3677 0068 F3       		.byte	0xf3
 3678 0069 01       		.uleb128 0x1
 3679 006a 51       		.byte	0x51
 3680 006b 9F       		.byte	0x9f
 3681 006c 00000000 		.4byte	0
 3682 0070 00000000 		.4byte	0
 3683              	.LLST2:
 3684 0074 00000000 		.4byte	.LVL0
 3685 0078 6E000000 		.4byte	.LVL22
 3686 007c 0100     		.2byte	0x1
 3687 007e 52       		.byte	0x52
 3688 007f 6E000000 		.4byte	.LVL22
 3689 0083 A0000000 		.4byte	.LVL29
 3690 0087 0400     		.2byte	0x4
 3691 0089 F3       		.byte	0xf3
 3692 008a 01       		.uleb128 0x1
 3693 008b 52       		.byte	0x52
ARM GAS  C:\Users\HANNAL~1\AppData\Local\Temp\ccGbhEeb.s 			page 102


 3694 008c 9F       		.byte	0x9f
 3695 008d A0000000 		.4byte	.LVL29
 3696 0091 A5000000 		.4byte	.LVL31-1
 3697 0095 0100     		.2byte	0x1
 3698 0097 52       		.byte	0x52
 3699 0098 A5000000 		.4byte	.LVL31-1
 3700 009c CC000000 		.4byte	.LFE21
 3701 00a0 0400     		.2byte	0x4
 3702 00a2 F3       		.byte	0xf3
 3703 00a3 01       		.uleb128 0x1
 3704 00a4 52       		.byte	0x52
 3705 00a5 9F       		.byte	0x9f
 3706 00a6 00000000 		.4byte	0
 3707 00aa 00000000 		.4byte	0
 3708              	.LLST3:
 3709 00ae 00000000 		.4byte	.LVL0
 3710 00b2 84000000 		.4byte	.LVL26
 3711 00b6 0100     		.2byte	0x1
 3712 00b8 53       		.byte	0x53
 3713 00b9 84000000 		.4byte	.LVL26
 3714 00bd 8A000000 		.4byte	.LVL27
 3715 00c1 0400     		.2byte	0x4
 3716 00c3 F3       		.byte	0xf3
 3717 00c4 01       		.uleb128 0x1
 3718 00c5 53       		.byte	0x53
 3719 00c6 9F       		.byte	0x9f
 3720 00c7 8A000000 		.4byte	.LVL27
 3721 00cb 8C000000 		.4byte	.LVL28
 3722 00cf 0100     		.2byte	0x1
 3723 00d1 53       		.byte	0x53
 3724 00d2 8C000000 		.4byte	.LVL28
 3725 00d6 A0000000 		.4byte	.LVL29
 3726 00da 0400     		.2byte	0x4
 3727 00dc F3       		.byte	0xf3
 3728 00dd 01       		.uleb128 0x1
 3729 00de 53       		.byte	0x53
 3730 00df 9F       		.byte	0x9f
 3731 00e0 A0000000 		.4byte	.LVL29
 3732 00e4 A5000000 		.4byte	.LVL31-1
 3733 00e8 0100     		.2byte	0x1
 3734 00ea 53       		.byte	0x53
 3735 00eb A5000000 		.4byte	.LVL31-1
 3736 00ef CC000000 		.4byte	.LFE21
 3737 00f3 0400     		.2byte	0x4
 3738 00f5 F3       		.byte	0xf3
 3739 00f6 01       		.uleb128 0x1
 3740 00f7 53       		.byte	0x53
 3741 00f8 9F       		.byte	0x9f
 3742 00f9 00000000 		.4byte	0
 3743 00fd 00000000 		.4byte	0
 3744              	.LLST4:
 3745 0101 00000000 		.4byte	.LVL0
 3746 0105 A0000000 		.4byte	.LVL29
 3747 0109 0200     		.2byte	0x2
 3748 010b 91       		.byte	0x91
 3749 010c 00       		.sleb128 0
 3750 010d A0000000 		.4byte	.LVL29
ARM GAS  C:\Users\HANNAL~1\AppData\Local\Temp\ccGbhEeb.s 			page 103


 3751 0111 A8000000 		.4byte	.LVL32
 3752 0115 0200     		.2byte	0x2
 3753 0117 91       		.byte	0x91
 3754 0118 00       		.sleb128 0
 3755 0119 A8000000 		.4byte	.LVL32
 3756 011d CC000000 		.4byte	.LFE21
 3757 0121 0200     		.2byte	0x2
 3758 0123 7D       		.byte	0x7d
 3759 0124 00       		.sleb128 0
 3760 0125 00000000 		.4byte	0
 3761 0129 00000000 		.4byte	0
 3762              	.LLST5:
 3763 012d 26000000 		.4byte	.LVL2
 3764 0131 28000000 		.4byte	.LVL3
 3765 0135 0100     		.2byte	0x1
 3766 0137 50       		.byte	0x50
 3767 0138 2C000000 		.4byte	.LVL4
 3768 013c 2E000000 		.4byte	.LVL5
 3769 0140 0100     		.2byte	0x1
 3770 0142 50       		.byte	0x50
 3771 0143 36000000 		.4byte	.LVL6
 3772 0147 38000000 		.4byte	.LVL7
 3773 014b 0100     		.2byte	0x1
 3774 014d 50       		.byte	0x50
 3775 014e 3C000000 		.4byte	.LVL8
 3776 0152 3E000000 		.4byte	.LVL9
 3777 0156 0100     		.2byte	0x1
 3778 0158 50       		.byte	0x50
 3779 0159 46000000 		.4byte	.LVL10
 3780 015d 48000000 		.4byte	.LVL11
 3781 0161 0100     		.2byte	0x1
 3782 0163 50       		.byte	0x50
 3783 0164 4C000000 		.4byte	.LVL12
 3784 0168 4E000000 		.4byte	.LVL13
 3785 016c 0100     		.2byte	0x1
 3786 016e 50       		.byte	0x50
 3787 016f 56000000 		.4byte	.LVL14
 3788 0173 58000000 		.4byte	.LVL15
 3789 0177 0100     		.2byte	0x1
 3790 0179 50       		.byte	0x50
 3791 017a 5C000000 		.4byte	.LVL16
 3792 017e 5E000000 		.4byte	.LVL17
 3793 0182 0100     		.2byte	0x1
 3794 0184 50       		.byte	0x50
 3795 0185 60000000 		.4byte	.LVL18
 3796 0189 A0000000 		.4byte	.LVL29
 3797 018d 0100     		.2byte	0x1
 3798 018f 50       		.byte	0x50
 3799 0190 00000000 		.4byte	0
 3800 0194 00000000 		.4byte	0
 3801              	.LLST6:
 3802 0198 66000000 		.4byte	.LVL19
 3803 019c 6A000000 		.4byte	.LVL20
 3804 01a0 0100     		.2byte	0x1
 3805 01a2 51       		.byte	0x51
 3806 01a3 00000000 		.4byte	0
 3807 01a7 00000000 		.4byte	0
ARM GAS  C:\Users\HANNAL~1\AppData\Local\Temp\ccGbhEeb.s 			page 104


 3808              	.LLST7:
 3809 01ab 6E000000 		.4byte	.LVL22
 3810 01af 76000000 		.4byte	.LVL23
 3811 01b3 0100     		.2byte	0x1
 3812 01b5 52       		.byte	0x52
 3813 01b6 76000000 		.4byte	.LVL23
 3814 01ba 7A000000 		.4byte	.LVL24
 3815 01be 0100     		.2byte	0x1
 3816 01c0 51       		.byte	0x51
 3817 01c1 7C000000 		.4byte	.LVL25
 3818 01c5 A0000000 		.4byte	.LVL29
 3819 01c9 0100     		.2byte	0x1
 3820 01cb 52       		.byte	0x52
 3821 01cc 00000000 		.4byte	0
 3822 01d0 00000000 		.4byte	0
 3823              	.LLST8:
 3824 01d4 6A000000 		.4byte	.LVL20
 3825 01d8 6C000000 		.4byte	.LVL21
 3826 01dc 0100     		.2byte	0x1
 3827 01de 51       		.byte	0x51
 3828 01df 00000000 		.4byte	0
 3829 01e3 00000000 		.4byte	0
 3830              	.LLST9:
 3831 01e7 00000000 		.4byte	.LVL33
 3832 01eb 07000000 		.4byte	.LVL34-1
 3833 01ef 0100     		.2byte	0x1
 3834 01f1 50       		.byte	0x50
 3835 01f2 07000000 		.4byte	.LVL34-1
 3836 01f6 4C000000 		.4byte	.LFE22
 3837 01fa 0400     		.2byte	0x4
 3838 01fc F3       		.byte	0xf3
 3839 01fd 01       		.uleb128 0x1
 3840 01fe 50       		.byte	0x50
 3841 01ff 9F       		.byte	0x9f
 3842 0200 00000000 		.4byte	0
 3843 0204 00000000 		.4byte	0
 3844              	.LLST10:
 3845 0208 0A000000 		.4byte	.LVL35
 3846 020c 40000000 		.4byte	.LVL38
 3847 0210 0100     		.2byte	0x1
 3848 0212 56       		.byte	0x56
 3849 0213 00000000 		.4byte	0
 3850 0217 00000000 		.4byte	0
 3851              	.LLST11:
 3852 021b 00000000 		.4byte	.LVL39
 3853 021f 80000000 		.4byte	.LVL40
 3854 0223 0100     		.2byte	0x1
 3855 0225 50       		.byte	0x50
 3856 0226 80000000 		.4byte	.LVL40
 3857 022a C6000000 		.4byte	.LVL46
 3858 022e 0400     		.2byte	0x4
 3859 0230 F3       		.byte	0xf3
 3860 0231 01       		.uleb128 0x1
 3861 0232 50       		.byte	0x50
 3862 0233 9F       		.byte	0x9f
 3863 0234 C6000000 		.4byte	.LVL46
 3864 0238 DC000000 		.4byte	.LFE19
ARM GAS  C:\Users\HANNAL~1\AppData\Local\Temp\ccGbhEeb.s 			page 105


 3865 023c 0100     		.2byte	0x1
 3866 023e 50       		.byte	0x50
 3867 023f 00000000 		.4byte	0
 3868 0243 00000000 		.4byte	0
 3869              	.LLST12:
 3870 0247 08000000 		.4byte	.LVL53
 3871 024b B2000000 		.4byte	.LVL57
 3872 024f 0100     		.2byte	0x1
 3873 0251 56       		.byte	0x56
 3874 0252 00000000 		.4byte	0
 3875 0256 00000000 		.4byte	0
 3876              	.LLST13:
 3877 025a 08000000 		.4byte	.LVL61
 3878 025e CE000000 		.4byte	.LVL64
 3879 0262 0100     		.2byte	0x1
 3880 0264 56       		.byte	0x56
 3881 0265 00000000 		.4byte	0
 3882 0269 00000000 		.4byte	0
 3883              	.LLST14:
 3884 026d 00000000 		.4byte	.LVL65
 3885 0271 0A000000 		.4byte	.LVL67
 3886 0275 0100     		.2byte	0x1
 3887 0277 50       		.byte	0x50
 3888 0278 0A000000 		.4byte	.LVL67
 3889 027c 18000000 		.4byte	.LFE4
 3890 0280 0400     		.2byte	0x4
 3891 0282 F3       		.byte	0xf3
 3892 0283 01       		.uleb128 0x1
 3893 0284 50       		.byte	0x50
 3894 0285 9F       		.byte	0x9f
 3895 0286 00000000 		.4byte	0
 3896 028a 00000000 		.4byte	0
 3897              	.LLST15:
 3898 028e 08000000 		.4byte	.LVL66
 3899 0292 10000000 		.4byte	.LVL68
 3900 0296 0100     		.2byte	0x1
 3901 0298 53       		.byte	0x53
 3902 0299 10000000 		.4byte	.LVL68
 3903 029d 18000000 		.4byte	.LFE4
 3904 02a1 0100     		.2byte	0x1
 3905 02a3 50       		.byte	0x50
 3906 02a4 00000000 		.4byte	0
 3907 02a8 00000000 		.4byte	0
 3908              	.LLST16:
 3909 02ac 00000000 		.4byte	.LVL69
 3910 02b0 0C000000 		.4byte	.LVL71
 3911 02b4 0100     		.2byte	0x1
 3912 02b6 50       		.byte	0x50
 3913 02b7 0C000000 		.4byte	.LVL71
 3914 02bb 18000000 		.4byte	.LFE5
 3915 02bf 0400     		.2byte	0x4
 3916 02c1 F3       		.byte	0xf3
 3917 02c2 01       		.uleb128 0x1
 3918 02c3 50       		.byte	0x50
 3919 02c4 9F       		.byte	0x9f
 3920 02c5 00000000 		.4byte	0
 3921 02c9 00000000 		.4byte	0
ARM GAS  C:\Users\HANNAL~1\AppData\Local\Temp\ccGbhEeb.s 			page 106


 3922              	.LLST17:
 3923 02cd 08000000 		.4byte	.LVL70
 3924 02d1 0E000000 		.4byte	.LVL72
 3925 02d5 0100     		.2byte	0x1
 3926 02d7 53       		.byte	0x53
 3927 02d8 0E000000 		.4byte	.LVL72
 3928 02dc 18000000 		.4byte	.LFE5
 3929 02e0 0100     		.2byte	0x1
 3930 02e2 50       		.byte	0x50
 3931 02e3 00000000 		.4byte	0
 3932 02e7 00000000 		.4byte	0
 3933              	.LLST18:
 3934 02eb 00000000 		.4byte	.LVL73
 3935 02ef 10000000 		.4byte	.LVL75
 3936 02f3 0100     		.2byte	0x1
 3937 02f5 50       		.byte	0x50
 3938 02f6 10000000 		.4byte	.LVL75
 3939 02fa 24000000 		.4byte	.LVL79
 3940 02fe 0100     		.2byte	0x1
 3941 0300 54       		.byte	0x54
 3942 0301 24000000 		.4byte	.LVL79
 3943 0305 74000000 		.4byte	.LFE6
 3944 0309 0600     		.2byte	0x6
 3945 030b F3       		.byte	0xf3
 3946 030c 03       		.uleb128 0x3
 3947 030d F5       		.byte	0xf5
 3948 030e 00       		.uleb128 0
 3949 030f 25       		.uleb128 0x25
 3950 0310 9F       		.byte	0x9f
 3951 0311 00000000 		.4byte	0
 3952 0315 00000000 		.4byte	0
 3953              	.LLST19:
 3954 0319 0A000000 		.4byte	.LVL74
 3955 031d 13000000 		.4byte	.LVL76-1
 3956 0321 0A00     		.2byte	0xa
 3957 0323 73       		.byte	0x73
 3958 0324 00       		.sleb128 0
 3959 0325 32       		.byte	0x32
 3960 0326 24       		.byte	0x24
 3961 0327 03       		.byte	0x3
 3962 0328 00000000 		.4byte	.LANCHOR0
 3963 032c 22       		.byte	0x22
 3964 032d 44000000 		.4byte	.LVL84
 3965 0331 56000000 		.4byte	.LVL86
 3966 0335 0100     		.2byte	0x1
 3967 0337 50       		.byte	0x50
 3968 0338 56000000 		.4byte	.LVL86
 3969 033c 58000000 		.4byte	.LVL87
 3970 0340 0700     		.2byte	0x7
 3971 0342 73       		.byte	0x73
 3972 0343 00       		.sleb128 0
 3973 0344 32       		.byte	0x32
 3974 0345 24       		.byte	0x24
 3975 0346 72       		.byte	0x72
 3976 0347 00       		.sleb128 0
 3977 0348 22       		.byte	0x22
 3978 0349 00000000 		.4byte	0
ARM GAS  C:\Users\HANNAL~1\AppData\Local\Temp\ccGbhEeb.s 			page 107


 3979 034d 00000000 		.4byte	0
 3980              	.LLST20:
 3981 0351 54000000 		.4byte	.LVL85
 3982 0355 58000000 		.4byte	.LVL87
 3983 0359 0200     		.2byte	0x2
 3984 035b 30       		.byte	0x30
 3985 035c 9F       		.byte	0x9f
 3986 035d 5A000000 		.4byte	.LVL88
 3987 0361 74000000 		.4byte	.LFE6
 3988 0365 0100     		.2byte	0x1
 3989 0367 50       		.byte	0x50
 3990 0368 00000000 		.4byte	0
 3991 036c 00000000 		.4byte	0
 3992              	.LLST21:
 3993 0370 1C000000 		.4byte	.LVL77
 3994 0374 21000000 		.4byte	.LVL78-1
 3995 0378 0100     		.2byte	0x1
 3996 037a 50       		.byte	0x50
 3997 037b 24000000 		.4byte	.LVL79
 3998 037f 27000000 		.4byte	.LVL80-1
 3999 0383 0100     		.2byte	0x1
 4000 0385 50       		.byte	0x50
 4001 0386 27000000 		.4byte	.LVL80-1
 4002 038a 3E000000 		.4byte	.LVL82
 4003 038e 0100     		.2byte	0x1
 4004 0390 54       		.byte	0x54
 4005 0391 3E000000 		.4byte	.LVL82
 4006 0395 41000000 		.4byte	.LVL83-1
 4007 0399 0100     		.2byte	0x1
 4008 039b 50       		.byte	0x50
 4009 039c 58000000 		.4byte	.LVL87
 4010 03a0 5C000000 		.4byte	.LVL89
 4011 03a4 0100     		.2byte	0x1
 4012 03a6 54       		.byte	0x54
 4013 03a7 00000000 		.4byte	0
 4014 03ab 00000000 		.4byte	0
 4015              	.LLST22:
 4016 03af 06000000 		.4byte	.LVL90
 4017 03b3 14000000 		.4byte	.LVL92
 4018 03b7 0100     		.2byte	0x1
 4019 03b9 53       		.byte	0x53
 4020 03ba 00000000 		.4byte	0
 4021 03be 00000000 		.4byte	0
 4022              	.LLST23:
 4023 03c2 0C000000 		.4byte	.LVL91
 4024 03c6 16000000 		.4byte	.LVL93
 4025 03ca 0100     		.2byte	0x1
 4026 03cc 50       		.byte	0x50
 4027 03cd 18000000 		.4byte	.LVL94
 4028 03d1 24000000 		.4byte	.LFE7
 4029 03d5 0100     		.2byte	0x1
 4030 03d7 50       		.byte	0x50
 4031 03d8 00000000 		.4byte	0
 4032 03dc 00000000 		.4byte	0
 4033              	.LLST24:
 4034 03e0 00000000 		.4byte	.LVL95
 4035 03e4 24000000 		.4byte	.LVL99
ARM GAS  C:\Users\HANNAL~1\AppData\Local\Temp\ccGbhEeb.s 			page 108


 4036 03e8 0100     		.2byte	0x1
 4037 03ea 50       		.byte	0x50
 4038 03eb 24000000 		.4byte	.LVL99
 4039 03ef 30000000 		.4byte	.LFE10
 4040 03f3 0400     		.2byte	0x4
 4041 03f5 F3       		.byte	0xf3
 4042 03f6 01       		.uleb128 0x1
 4043 03f7 50       		.byte	0x50
 4044 03f8 9F       		.byte	0x9f
 4045 03f9 00000000 		.4byte	0
 4046 03fd 00000000 		.4byte	0
 4047              	.LLST25:
 4048 0401 10000000 		.4byte	.LVL96
 4049 0405 12000000 		.4byte	.LVL97
 4050 0409 0100     		.2byte	0x1
 4051 040b 53       		.byte	0x53
 4052 040c 1A000000 		.4byte	.LVL98
 4053 0410 30000000 		.4byte	.LFE10
 4054 0414 0100     		.2byte	0x1
 4055 0416 53       		.byte	0x53
 4056 0417 00000000 		.4byte	0
 4057 041b 00000000 		.4byte	0
 4058              	.LLST26:
 4059 041f 08000000 		.4byte	.LVL100
 4060 0423 12000000 		.4byte	.LVL102
 4061 0427 0100     		.2byte	0x1
 4062 0429 53       		.byte	0x53
 4063 042a 16000000 		.4byte	.LVL103
 4064 042e 1C000000 		.4byte	.LVL104
 4065 0432 0100     		.2byte	0x1
 4066 0434 53       		.byte	0x53
 4067 0435 00000000 		.4byte	0
 4068 0439 00000000 		.4byte	0
 4069              	.LLST27:
 4070 043d 12000000 		.4byte	.LVL107
 4071 0441 14000000 		.4byte	.LVL108
 4072 0445 0100     		.2byte	0x1
 4073 0447 50       		.byte	0x50
 4074 0448 18000000 		.4byte	.LVL109
 4075 044c 20000000 		.4byte	.LVL110
 4076 0450 0100     		.2byte	0x1
 4077 0452 52       		.byte	0x52
 4078 0453 20000000 		.4byte	.LVL110
 4079 0457 50000000 		.4byte	.LFE12
 4080 045b 0100     		.2byte	0x1
 4081 045d 50       		.byte	0x50
 4082 045e 00000000 		.4byte	0
 4083 0462 00000000 		.4byte	0
 4084              	.LLST28:
 4085 0466 08000000 		.4byte	.LVL105
 4086 046a 0E000000 		.4byte	.LVL106
 4087 046e 0100     		.2byte	0x1
 4088 0470 53       		.byte	0x53
 4089 0471 14000000 		.4byte	.LVL108
 4090 0475 26000000 		.4byte	.LVL111
 4091 0479 0100     		.2byte	0x1
 4092 047b 53       		.byte	0x53
ARM GAS  C:\Users\HANNAL~1\AppData\Local\Temp\ccGbhEeb.s 			page 109


 4093 047c 00000000 		.4byte	0
 4094 0480 00000000 		.4byte	0
 4095              	.LLST29:
 4096 0484 10000000 		.4byte	.LVL114
 4097 0488 1A000000 		.4byte	.LVL115
 4098 048c 0700     		.2byte	0x7
 4099 048e 70       		.byte	0x70
 4100 048f 00       		.sleb128 0
 4101 0490 0A       		.byte	0xa
 4102 0491 FFFF     		.2byte	0xffff
 4103 0493 1A       		.byte	0x1a
 4104 0494 9F       		.byte	0x9f
 4105 0495 1A000000 		.4byte	.LVL115
 4106 0499 1C000000 		.4byte	.LVL116
 4107 049d 0100     		.2byte	0x1
 4108 049f 50       		.byte	0x50
 4109 04a0 24000000 		.4byte	.LVL118
 4110 04a4 2C000000 		.4byte	.LVL119
 4111 04a8 0700     		.2byte	0x7
 4112 04aa 70       		.byte	0x70
 4113 04ab 00       		.sleb128 0
 4114 04ac 0A       		.byte	0xa
 4115 04ad FFFF     		.2byte	0xffff
 4116 04af 1A       		.byte	0x1a
 4117 04b0 9F       		.byte	0x9f
 4118 04b1 2C000000 		.4byte	.LVL119
 4119 04b5 34000000 		.4byte	.LVL120
 4120 04b9 0100     		.2byte	0x1
 4121 04bb 53       		.byte	0x53
 4122 04bc 34000000 		.4byte	.LVL120
 4123 04c0 36000000 		.4byte	.LVL121
 4124 04c4 0100     		.2byte	0x1
 4125 04c6 50       		.byte	0x50
 4126 04c7 3C000000 		.4byte	.LVL123
 4127 04cb 44000000 		.4byte	.LVL124
 4128 04cf 0100     		.2byte	0x1
 4129 04d1 53       		.byte	0x53
 4130 04d2 44000000 		.4byte	.LVL124
 4131 04d6 6C000000 		.4byte	.LFE13
 4132 04da 0100     		.2byte	0x1
 4133 04dc 50       		.byte	0x50
 4134 04dd 00000000 		.4byte	0
 4135 04e1 00000000 		.4byte	0
 4136              	.LLST30:
 4137 04e5 08000000 		.4byte	.LVL112
 4138 04e9 0E000000 		.4byte	.LVL113
 4139 04ed 0100     		.2byte	0x1
 4140 04ef 53       		.byte	0x53
 4141 04f0 1C000000 		.4byte	.LVL116
 4142 04f4 22000000 		.4byte	.LVL117
 4143 04f8 0100     		.2byte	0x1
 4144 04fa 53       		.byte	0x53
 4145 04fb 36000000 		.4byte	.LVL121
 4146 04ff 38000000 		.4byte	.LVL122
 4147 0503 0100     		.2byte	0x1
 4148 0505 53       		.byte	0x53
 4149 0506 00000000 		.4byte	0
ARM GAS  C:\Users\HANNAL~1\AppData\Local\Temp\ccGbhEeb.s 			page 110


 4150 050a 00000000 		.4byte	0
 4151              	.LLST31:
 4152 050e 00000000 		.4byte	.LVL127
 4153 0512 06000000 		.4byte	.LVL128
 4154 0516 0100     		.2byte	0x1
 4155 0518 50       		.byte	0x50
 4156 0519 06000000 		.4byte	.LVL128
 4157 051d 0E000000 		.4byte	.LVL129
 4158 0521 0100     		.2byte	0x1
 4159 0523 50       		.byte	0x50
 4160 0524 00000000 		.4byte	0
 4161 0528 00000000 		.4byte	0
 4162              	.LLST32:
 4163 052c 00000000 		.4byte	.LVL131
 4164 0530 06000000 		.4byte	.LVL132
 4165 0534 0100     		.2byte	0x1
 4166 0536 50       		.byte	0x50
 4167 0537 06000000 		.4byte	.LVL132
 4168 053b 08000000 		.4byte	.LVL133
 4169 053f 0600     		.2byte	0x6
 4170 0541 70       		.byte	0x70
 4171 0542 00       		.sleb128 0
 4172 0543 73       		.byte	0x73
 4173 0544 00       		.sleb128 0
 4174 0545 1C       		.byte	0x1c
 4175 0546 9F       		.byte	0x9f
 4176 0547 08000000 		.4byte	.LVL133
 4177 054b 0B000000 		.4byte	.LVL134-1
 4178 054f 0100     		.2byte	0x1
 4179 0551 50       		.byte	0x50
 4180 0552 00000000 		.4byte	0
 4181 0556 00000000 		.4byte	0
 4182              	.LLST33:
 4183 055a 00000000 		.4byte	.LVL137
 4184 055e 3E000000 		.4byte	.LVL143
 4185 0562 0100     		.2byte	0x1
 4186 0564 50       		.byte	0x50
 4187 0565 3E000000 		.4byte	.LVL143
 4188 0569 64000000 		.4byte	.LFE18
 4189 056d 0400     		.2byte	0x4
 4190 056f F3       		.byte	0xf3
 4191 0570 01       		.uleb128 0x1
 4192 0571 50       		.byte	0x50
 4193 0572 9F       		.byte	0x9f
 4194 0573 00000000 		.4byte	0
 4195 0577 00000000 		.4byte	0
 4196              	.LLST34:
 4197 057b 4E000000 		.4byte	.LVL145
 4198 057f 50000000 		.4byte	.LVL146
 4199 0583 0600     		.2byte	0x6
 4200 0585 70       		.byte	0x70
 4201 0586 00       		.sleb128 0
 4202 0587 73       		.byte	0x73
 4203 0588 00       		.sleb128 0
 4204 0589 1C       		.byte	0x1c
 4205 058a 9F       		.byte	0x9f
 4206 058b 50000000 		.4byte	.LVL146
ARM GAS  C:\Users\HANNAL~1\AppData\Local\Temp\ccGbhEeb.s 			page 111


 4207 058f 64000000 		.4byte	.LFE18
 4208 0593 0100     		.2byte	0x1
 4209 0595 50       		.byte	0x50
 4210 0596 00000000 		.4byte	0
 4211 059a 00000000 		.4byte	0
 4212              	.LLST35:
 4213 059e 32000000 		.4byte	.LVL141
 4214 05a2 4A000000 		.4byte	.LVL144
 4215 05a6 0100     		.2byte	0x1
 4216 05a8 53       		.byte	0x53
 4217 05a9 00000000 		.4byte	0
 4218 05ad 00000000 		.4byte	0
 4219              	.LLST36:
 4220 05b1 22000000 		.4byte	.LVL138
 4221 05b5 2C000000 		.4byte	.LVL139
 4222 05b9 0100     		.2byte	0x1
 4223 05bb 53       		.byte	0x53
 4224 05bc 2E000000 		.4byte	.LVL140
 4225 05c0 32000000 		.4byte	.LVL141
 4226 05c4 0100     		.2byte	0x1
 4227 05c6 53       		.byte	0x53
 4228 05c7 00000000 		.4byte	0
 4229 05cb 00000000 		.4byte	0
 4230              	.LLST37:
 4231 05cf 00000000 		.4byte	.LVL147
 4232 05d3 1D000000 		.4byte	.LVL148-1
 4233 05d7 0100     		.2byte	0x1
 4234 05d9 50       		.byte	0x50
 4235 05da 1D000000 		.4byte	.LVL148-1
 4236 05de 48000000 		.4byte	.LVL152
 4237 05e2 0400     		.2byte	0x4
 4238 05e4 F3       		.byte	0xf3
 4239 05e5 01       		.uleb128 0x1
 4240 05e6 50       		.byte	0x50
 4241 05e7 9F       		.byte	0x9f
 4242 05e8 48000000 		.4byte	.LVL152
 4243 05ec 4A000000 		.4byte	.LVL153
 4244 05f0 0100     		.2byte	0x1
 4245 05f2 50       		.byte	0x50
 4246 05f3 4A000000 		.4byte	.LVL153
 4247 05f7 60000000 		.4byte	.LFE20
 4248 05fb 0400     		.2byte	0x4
 4249 05fd F3       		.byte	0xf3
 4250 05fe 01       		.uleb128 0x1
 4251 05ff 50       		.byte	0x50
 4252 0600 9F       		.byte	0x9f
 4253 0601 00000000 		.4byte	0
 4254 0605 00000000 		.4byte	0
 4255              	.LLST38:
 4256 0609 00000000 		.4byte	.LVL147
 4257 060d 1D000000 		.4byte	.LVL148-1
 4258 0611 0100     		.2byte	0x1
 4259 0613 51       		.byte	0x51
 4260 0614 1D000000 		.4byte	.LVL148-1
 4261 0618 48000000 		.4byte	.LVL152
 4262 061c 0400     		.2byte	0x4
 4263 061e F3       		.byte	0xf3
ARM GAS  C:\Users\HANNAL~1\AppData\Local\Temp\ccGbhEeb.s 			page 112


 4264 061f 01       		.uleb128 0x1
 4265 0620 51       		.byte	0x51
 4266 0621 9F       		.byte	0x9f
 4267 0622 48000000 		.4byte	.LVL152
 4268 0626 4D000000 		.4byte	.LVL154-1
 4269 062a 0100     		.2byte	0x1
 4270 062c 51       		.byte	0x51
 4271 062d 4D000000 		.4byte	.LVL154-1
 4272 0631 60000000 		.4byte	.LFE20
 4273 0635 0400     		.2byte	0x4
 4274 0637 F3       		.byte	0xf3
 4275 0638 01       		.uleb128 0x1
 4276 0639 51       		.byte	0x51
 4277 063a 9F       		.byte	0x9f
 4278 063b 00000000 		.4byte	0
 4279 063f 00000000 		.4byte	0
 4280              	.LLST39:
 4281 0643 1C000000 		.4byte	.LVL158
 4282 0647 24000000 		.4byte	.LVL160
 4283 064b 0100     		.2byte	0x1
 4284 064d 54       		.byte	0x54
 4285 064e 00000000 		.4byte	0
 4286 0652 00000000 		.4byte	0
 4287              	.LLST40:
 4288 0656 1C000000 		.4byte	.LVL164
 4289 065a 24000000 		.4byte	.LVL166
 4290 065e 0100     		.2byte	0x1
 4291 0660 54       		.byte	0x54
 4292 0661 00000000 		.4byte	0
 4293 0665 00000000 		.4byte	0
 4294              	.LLST41:
 4295 0669 1C000000 		.4byte	.LVL170
 4296 066d 1F000000 		.4byte	.LVL171-1
 4297 0671 0100     		.2byte	0x1
 4298 0673 50       		.byte	0x50
 4299 0674 1F000000 		.4byte	.LVL171-1
 4300 0678 24000000 		.4byte	.LVL172
 4301 067c 0100     		.2byte	0x1
 4302 067e 54       		.byte	0x54
 4303 067f 24000000 		.4byte	.LVL172
 4304 0683 28000000 		.4byte	.LFE25
 4305 0687 0100     		.2byte	0x1
 4306 0689 50       		.byte	0x50
 4307 068a 00000000 		.4byte	0
 4308 068e 00000000 		.4byte	0
 4309              		.section	.debug_aranges,"",%progbits
 4310 0000 E4000000 		.4byte	0xe4
 4311 0004 0200     		.2byte	0x2
 4312 0006 00000000 		.4byte	.Ldebug_info0
 4313 000a 04       		.byte	0x4
 4314 000b 00       		.byte	0
 4315 000c 0000     		.2byte	0
 4316 000e 0000     		.2byte	0
 4317 0010 00000000 		.4byte	.LFB21
 4318 0014 CC000000 		.4byte	.LFE21-.LFB21
 4319 0018 00000000 		.4byte	.LFB22
 4320 001c 4C000000 		.4byte	.LFE22-.LFB22
ARM GAS  C:\Users\HANNAL~1\AppData\Local\Temp\ccGbhEeb.s 			page 113


 4321 0020 00000000 		.4byte	.LFB19
 4322 0024 DC000000 		.4byte	.LFE19-.LFB19
 4323 0028 00000000 		.4byte	.LFB0
 4324 002c C4000000 		.4byte	.LFE0-.LFB0
 4325 0030 00000000 		.4byte	.LFB1
 4326 0034 D8000000 		.4byte	.LFE1-.LFB1
 4327 0038 00000000 		.4byte	.LFB2
 4328 003c 28000000 		.4byte	.LFE2-.LFB2
 4329 0040 00000000 		.4byte	.LFB3
 4330 0044 E4000000 		.4byte	.LFE3-.LFB3
 4331 0048 00000000 		.4byte	.LFB4
 4332 004c 18000000 		.4byte	.LFE4-.LFB4
 4333 0050 00000000 		.4byte	.LFB5
 4334 0054 18000000 		.4byte	.LFE5-.LFB5
 4335 0058 00000000 		.4byte	.LFB6
 4336 005c 74000000 		.4byte	.LFE6-.LFB6
 4337 0060 00000000 		.4byte	.LFB7
 4338 0064 24000000 		.4byte	.LFE7-.LFB7
 4339 0068 00000000 		.4byte	.LFB8
 4340 006c 10000000 		.4byte	.LFE8-.LFB8
 4341 0070 00000000 		.4byte	.LFB9
 4342 0074 10000000 		.4byte	.LFE9-.LFB9
 4343 0078 00000000 		.4byte	.LFB10
 4344 007c 30000000 		.4byte	.LFE10-.LFB10
 4345 0080 00000000 		.4byte	.LFB11
 4346 0084 48000000 		.4byte	.LFE11-.LFB11
 4347 0088 00000000 		.4byte	.LFB12
 4348 008c 50000000 		.4byte	.LFE12-.LFB12
 4349 0090 00000000 		.4byte	.LFB13
 4350 0094 6C000000 		.4byte	.LFE13-.LFB13
 4351 0098 00000000 		.4byte	.LFB14
 4352 009c 0C000000 		.4byte	.LFE14-.LFB14
 4353 00a0 00000000 		.4byte	.LFB15
 4354 00a4 0C000000 		.4byte	.LFE15-.LFB15
 4355 00a8 00000000 		.4byte	.LFB16
 4356 00ac 24000000 		.4byte	.LFE16-.LFB16
 4357 00b0 00000000 		.4byte	.LFB17
 4358 00b4 28000000 		.4byte	.LFE17-.LFB17
 4359 00b8 00000000 		.4byte	.LFB18
 4360 00bc 64000000 		.4byte	.LFE18-.LFB18
 4361 00c0 00000000 		.4byte	.LFB20
 4362 00c4 60000000 		.4byte	.LFE20-.LFB20
 4363 00c8 00000000 		.4byte	.LFB23
 4364 00cc 28000000 		.4byte	.LFE23-.LFB23
 4365 00d0 00000000 		.4byte	.LFB24
 4366 00d4 28000000 		.4byte	.LFE24-.LFB24
 4367 00d8 00000000 		.4byte	.LFB25
 4368 00dc 28000000 		.4byte	.LFE25-.LFB25
 4369 00e0 00000000 		.4byte	0
 4370 00e4 00000000 		.4byte	0
 4371              		.section	.debug_ranges,"",%progbits
 4372              	.Ldebug_ranges0:
 4373 0000 00000000 		.4byte	.LFB21
 4374 0004 CC000000 		.4byte	.LFE21
 4375 0008 00000000 		.4byte	.LFB22
 4376 000c 4C000000 		.4byte	.LFE22
 4377 0010 00000000 		.4byte	.LFB19
ARM GAS  C:\Users\HANNAL~1\AppData\Local\Temp\ccGbhEeb.s 			page 114


 4378 0014 DC000000 		.4byte	.LFE19
 4379 0018 00000000 		.4byte	.LFB0
 4380 001c C4000000 		.4byte	.LFE0
 4381 0020 00000000 		.4byte	.LFB1
 4382 0024 D8000000 		.4byte	.LFE1
 4383 0028 00000000 		.4byte	.LFB2
 4384 002c 28000000 		.4byte	.LFE2
 4385 0030 00000000 		.4byte	.LFB3
 4386 0034 E4000000 		.4byte	.LFE3
 4387 0038 00000000 		.4byte	.LFB4
 4388 003c 18000000 		.4byte	.LFE4
 4389 0040 00000000 		.4byte	.LFB5
 4390 0044 18000000 		.4byte	.LFE5
 4391 0048 00000000 		.4byte	.LFB6
 4392 004c 74000000 		.4byte	.LFE6
 4393 0050 00000000 		.4byte	.LFB7
 4394 0054 24000000 		.4byte	.LFE7
 4395 0058 00000000 		.4byte	.LFB8
 4396 005c 10000000 		.4byte	.LFE8
 4397 0060 00000000 		.4byte	.LFB9
 4398 0064 10000000 		.4byte	.LFE9
 4399 0068 00000000 		.4byte	.LFB10
 4400 006c 30000000 		.4byte	.LFE10
 4401 0070 00000000 		.4byte	.LFB11
 4402 0074 48000000 		.4byte	.LFE11
 4403 0078 00000000 		.4byte	.LFB12
 4404 007c 50000000 		.4byte	.LFE12
 4405 0080 00000000 		.4byte	.LFB13
 4406 0084 6C000000 		.4byte	.LFE13
 4407 0088 00000000 		.4byte	.LFB14
 4408 008c 0C000000 		.4byte	.LFE14
 4409 0090 00000000 		.4byte	.LFB15
 4410 0094 0C000000 		.4byte	.LFE15
 4411 0098 00000000 		.4byte	.LFB16
 4412 009c 24000000 		.4byte	.LFE16
 4413 00a0 00000000 		.4byte	.LFB17
 4414 00a4 28000000 		.4byte	.LFE17
 4415 00a8 00000000 		.4byte	.LFB18
 4416 00ac 64000000 		.4byte	.LFE18
 4417 00b0 00000000 		.4byte	.LFB20
 4418 00b4 60000000 		.4byte	.LFE20
 4419 00b8 00000000 		.4byte	.LFB23
 4420 00bc 28000000 		.4byte	.LFE23
 4421 00c0 00000000 		.4byte	.LFB24
 4422 00c4 28000000 		.4byte	.LFE24
 4423 00c8 00000000 		.4byte	.LFB25
 4424 00cc 28000000 		.4byte	.LFE25
 4425 00d0 00000000 		.4byte	0
 4426 00d4 00000000 		.4byte	0
 4427              		.section	.debug_line,"",%progbits
 4428              	.Ldebug_line0:
 4429 0000 88030000 		.section	.debug_str,"MS",%progbits,1
 4429      0200B600 
 4429      00000201 
 4429      FB0E0D00 
 4429      01010101 
 4430              	.LASF11:
ARM GAS  C:\Users\HANNAL~1\AppData\Local\Temp\ccGbhEeb.s 			page 115


 4431 0000 75696E74 		.ascii	"uint16\000"
 4431      313600
 4432              	.LASF67:
 4433 0007 61646347 		.ascii	"adcGain\000"
 4433      61696E00 
 4434              	.LASF42:
 4435 000f 4144435F 		.ascii	"ADC_DelSig_1_Enable\000"
 4435      44656C53 
 4435      69675F31 
 4435      5F456E61 
 4435      626C6500 
 4436              	.LASF27:
 4437 0023 696E7075 		.ascii	"inputRange\000"
 4437      7452616E 
 4437      676500
 4438              	.LASF89:
 4439 002e 4144435F 		.ascii	"ADC_DelSig_1_CountsPerVolt\000"
 4439      44656C53 
 4439      69675F31 
 4439      5F436F75 
 4439      6E747350 
 4440              	.LASF95:
 4441 0049 4144435F 		.ascii	"ADC_DelSig_1_theACLK_SetDividerRegister\000"
 4441      44656C53 
 4441      69675F31 
 4441      5F746865 
 4441      41434C4B 
 4442              	.LASF77:
 4443 0071 4144435F 		.ascii	"ADC_DelSig_1_SelectConfiguration\000"
 4443      44656C53 
 4443      69675F31 
 4443      5F53656C 
 4443      65637443 
 4444              	.LASF24:
 4445 0092 67636F72 		.ascii	"gcor\000"
 4445      00
 4446              	.LASF8:
 4447 0097 6C6F6E67 		.ascii	"long long unsigned int\000"
 4447      206C6F6E 
 4447      6720756E 
 4447      7369676E 
 4447      65642069 
 4448              	.LASF44:
 4449 00ae 4144435F 		.ascii	"ADC_DelSig_1_Stop\000"
 4449      44656C53 
 4449      69675F31 
 4449      5F53746F 
 4449      7000
 4450              	.LASF29:
 4451 00c0 69646561 		.ascii	"idealOddDecGain\000"
 4451      6C4F6464 
 4451      44656347 
 4451      61696E00 
 4452              	.LASF40:
 4453 00d0 4144435F 		.ascii	"ADC_DelSig_1_InitConfig\000"
 4453      44656C53 
 4453      69675F31 
ARM GAS  C:\Users\HANNAL~1\AppData\Local\Temp\ccGbhEeb.s 			page 116


 4453      5F496E69 
 4453      74436F6E 
 4454              	.LASF60:
 4455 00e8 4144435F 		.ascii	"ADC_DelSig_1_GetResult8\000"
 4455      44656C53 
 4455      69675F31 
 4455      5F476574 
 4455      52657375 
 4456              	.LASF7:
 4457 0100 6C6F6E67 		.ascii	"long long int\000"
 4457      206C6F6E 
 4457      6720696E 
 4457      7400
 4458              	.LASF1:
 4459 010e 7369676E 		.ascii	"signed char\000"
 4459      65642063 
 4459      68617200 
 4460              	.LASF15:
 4461 011a 696E7433 		.ascii	"int32\000"
 4461      3200
 4462              	.LASF81:
 4463 0120 4144435F 		.ascii	"ADC_DelSig_1_Read32\000"
 4463      44656C53 
 4463      69675F31 
 4463      5F526561 
 4463      64333200 
 4464              	.LASF5:
 4465 0134 6C6F6E67 		.ascii	"long int\000"
 4465      20696E74 
 4465      00
 4466              	.LASF20:
 4467 013d 72656731 		.ascii	"reg16\000"
 4467      3600
 4468              	.LASF10:
 4469 0143 75696E74 		.ascii	"uint8\000"
 4469      3800
 4470              	.LASF91:
 4471 0149 43794465 		.ascii	"CyDelayUs\000"
 4471      6C617955 
 4471      7300
 4472              	.LASF17:
 4473 0153 646F7562 		.ascii	"double\000"
 4473      6C6500
 4474              	.LASF72:
 4475 015a 566F6C74 		.ascii	"Volts\000"
 4475      7300
 4476              	.LASF12:
 4477 0160 75696E74 		.ascii	"uint32\000"
 4477      333200
 4478              	.LASF102:
 4479 0167 4379496E 		.ascii	"CyIntSetVector\000"
 4479      74536574 
 4479      56656374 
 4479      6F7200
 4480              	.LASF38:
 4481 0176 76616C75 		.ascii	"value\000"
 4481      6500
ARM GAS  C:\Users\HANNAL~1\AppData\Local\Temp\ccGbhEeb.s 			page 117


 4482              	.LASF59:
 4483 017c 7265744D 		.ascii	"retMode\000"
 4483      6F646500 
 4484              	.LASF99:
 4485 0184 2E5C4765 		.ascii	".\\Generated_Source\\PSoC5\\ADC_DelSig_1.c\000"
 4485      6E657261 
 4485      7465645F 
 4485      536F7572 
 4485      63655C50 
 4486              	.LASF9:
 4487 01ac 756E7369 		.ascii	"unsigned int\000"
 4487      676E6564 
 4487      20696E74 
 4487      00
 4488              	.LASF74:
 4489 01b9 75566F6C 		.ascii	"uVolts\000"
 4489      747300
 4490              	.LASF83:
 4491 01c0 4144435F 		.ascii	"ADC_DelSig_1_initVar\000"
 4491      44656C53 
 4491      69675F31 
 4491      5F696E69 
 4491      74566172 
 4492              	.LASF6:
 4493 01d5 6C6F6E67 		.ascii	"long unsigned int\000"
 4493      20756E73 
 4493      69676E65 
 4493      6420696E 
 4493      7400
 4494              	.LASF101:
 4495 01e7 4379456E 		.ascii	"CyEnterCriticalSection\000"
 4495      74657243 
 4495      72697469 
 4495      63616C53 
 4495      65637469 
 4496              	.LASF86:
 4497 01fe 4144435F 		.ascii	"ADC_DelSig_1_started\000"
 4497      44656C53 
 4497      69675F31 
 4497      5F737461 
 4497      72746564 
 4498              	.LASF4:
 4499 0213 73686F72 		.ascii	"short unsigned int\000"
 4499      7420756E 
 4499      7369676E 
 4499      65642069 
 4499      6E7400
 4500              	.LASF13:
 4501 0226 696E7438 		.ascii	"int8\000"
 4501      00
 4502              	.LASF34:
 4503 022b 67636F72 		.ascii	"gcorValue\000"
 4503      56616C75 
 4503      6500
 4504              	.LASF94:
 4505 0235 4144435F 		.ascii	"ADC_DelSig_1_Ext_CP_Clk_SetDividerRegister\000"
 4505      44656C53 
ARM GAS  C:\Users\HANNAL~1\AppData\Local\Temp\ccGbhEeb.s 			page 118


 4505      69675F31 
 4505      5F457874 
 4505      5F43505F 
 4506              	.LASF70:
 4507 0260 6D566F6C 		.ascii	"mVolts\000"
 4507      747300
 4508              	.LASF32:
 4509 0267 666C6173 		.ascii	"flash\000"
 4509      6800
 4510              	.LASF21:
 4511 026d 72656733 		.ascii	"reg32\000"
 4511      3200
 4512              	.LASF71:
 4513 0273 4144435F 		.ascii	"ADC_DelSig_1_CountsTo_Volts\000"
 4513      44656C53 
 4513      69675F31 
 4513      5F436F75 
 4513      6E747354 
 4514              	.LASF16:
 4515 028f 666C6F61 		.ascii	"float32\000"
 4515      74333200 
 4516              	.LASF62:
 4517 0297 4144435F 		.ascii	"ADC_DelSig_1_GetResult16\000"
 4517      44656C53 
 4517      69675F31 
 4517      5F476574 
 4517      52657375 
 4518              	.LASF23:
 4519 02b0 73697A65 		.ascii	"sizetype\000"
 4519      74797065 
 4519      00
 4520              	.LASF84:
 4521 02b9 4144435F 		.ascii	"ADC_DelSig_1_convDone\000"
 4521      44656C53 
 4521      69675F31 
 4521      5F636F6E 
 4521      76446F6E 
 4522              	.LASF41:
 4523 02cf 4144435F 		.ascii	"ADC_DelSig_1_Init\000"
 4523      44656C53 
 4523      69675F31 
 4523      5F496E69 
 4523      7400
 4524              	.LASF73:
 4525 02e1 4144435F 		.ascii	"ADC_DelSig_1_CountsTo_uVolts\000"
 4525      44656C53 
 4525      69675F31 
 4525      5F436F75 
 4525      6E747354 
 4526              	.LASF46:
 4527 02fe 6761696E 		.ascii	"gain\000"
 4527      00
 4528              	.LASF87:
 4529 0303 4144435F 		.ascii	"ADC_DelSig_1_Config\000"
 4529      44656C53 
 4529      69675F31 
 4529      5F436F6E 
ARM GAS  C:\Users\HANNAL~1\AppData\Local\Temp\ccGbhEeb.s 			page 119


 4529      66696700 
 4530              	.LASF49:
 4531 0317 636F6865 		.ascii	"coherency\000"
 4531      72656E63 
 4531      7900
 4532              	.LASF103:
 4533 0321 4379496E 		.ascii	"CyIntSetPriority\000"
 4533      74536574 
 4533      5072696F 
 4533      72697479 
 4533      00
 4534              	.LASF96:
 4535 0332 4144435F 		.ascii	"ADC_DelSig_1_Ext_CP_Clk_SetModeRegister\000"
 4535      44656C53 
 4535      69675F31 
 4535      5F457874 
 4535      5F43505F 
 4536              	.LASF26:
 4537 035a 4144435F 		.ascii	"ADC_DelSig_1_GCOR_STRUCT\000"
 4537      44656C53 
 4537      69675F31 
 4537      5F47434F 
 4537      525F5354 
 4538              	.LASF0:
 4539 0373 666C6F61 		.ascii	"float\000"
 4539      7400
 4540              	.LASF92:
 4541 0379 43794578 		.ascii	"CyExitCriticalSection\000"
 4541      69744372 
 4541      69746963 
 4541      616C5365 
 4541      6374696F 
 4542              	.LASF88:
 4543 038f 4144435F 		.ascii	"ADC_DelSig_1_Offset\000"
 4543      44656C53 
 4543      69675F31 
 4543      5F4F6666 
 4543      73657400 
 4544              	.LASF19:
 4545 03a3 72656738 		.ascii	"reg8\000"
 4545      00
 4546              	.LASF28:
 4547 03a8 69646561 		.ascii	"idealDecGain\000"
 4547      6C446563 
 4547      4761696E 
 4547      00
 4548              	.LASF33:
 4549 03b5 6E6F726D 		.ascii	"normalised\000"
 4549      616C6973 
 4549      656400
 4550              	.LASF90:
 4551 03c0 43794861 		.ascii	"CyHalt\000"
 4551      6C7400
 4552              	.LASF2:
 4553 03c7 756E7369 		.ascii	"unsigned char\000"
 4553      676E6564 
 4553      20636861 
ARM GAS  C:\Users\HANNAL~1\AppData\Local\Temp\ccGbhEeb.s 			page 120


 4553      7200
 4554              	.LASF64:
 4555 03d5 4144435F 		.ascii	"ADC_DelSig_1_SetOffset\000"
 4555      44656C53 
 4555      69675F31 
 4555      5F536574 
 4555      4F666673 
 4556              	.LASF3:
 4557 03ec 73686F72 		.ascii	"short int\000"
 4557      7420696E 
 4557      7400
 4558              	.LASF35:
 4559 03f6 67636F72 		.ascii	"gcorTmp\000"
 4559      546D7000 
 4560              	.LASF56:
 4561 03fe 4144435F 		.ascii	"ADC_DelSig_1_StartConvert\000"
 4561      44656C53 
 4561      69675F31 
 4561      5F537461 
 4561      7274436F 
 4562              	.LASF30:
 4563 0418 7265736F 		.ascii	"resolution\000"
 4563      6C757469 
 4563      6F6E00
 4564              	.LASF75:
 4565 0423 636F6566 		.ascii	"coefA\000"
 4565      4100
 4566              	.LASF76:
 4567 0429 636F6566 		.ascii	"coefB\000"
 4567      4200
 4568              	.LASF63:
 4569 042f 4144435F 		.ascii	"ADC_DelSig_1_GetResult32\000"
 4569      44656C53 
 4569      69675F31 
 4569      5F476574 
 4569      52657375 
 4570              	.LASF18:
 4571 0448 63686172 		.ascii	"char\000"
 4571      00
 4572              	.LASF48:
 4573 044d 4144435F 		.ascii	"ADC_DelSig_1_SetCoherency\000"
 4573      44656C53 
 4573      69675F31 
 4573      5F536574 
 4573      436F6865 
 4574              	.LASF22:
 4575 0467 63796973 		.ascii	"cyisraddress\000"
 4575      72616464 
 4575      72657373 
 4575      00
 4576              	.LASF31:
 4577 0474 636F6E66 		.ascii	"config\000"
 4577      696700
 4578              	.LASF25:
 4579 047b 6776616C 		.ascii	"gval\000"
 4579      00
 4580              	.LASF78:
ARM GAS  C:\Users\HANNAL~1\AppData\Local\Temp\ccGbhEeb.s 			page 121


 4581 0480 72657374 		.ascii	"restart\000"
 4581      61727400 
 4582              	.LASF52:
 4583 0488 746D7056 		.ascii	"tmpValue\000"
 4583      616C7565 
 4583      00
 4584              	.LASF37:
 4585 0491 4144435F 		.ascii	"ADC_DelSig_1_SetDSMRef0Reg\000"
 4585      44656C53 
 4585      69675F31 
 4585      5F536574 
 4585      44534D52 
 4586              	.LASF65:
 4587 04ac 6F666673 		.ascii	"offset\000"
 4587      657400
 4588              	.LASF97:
 4589 04b3 4144435F 		.ascii	"ADC_DelSig_1_theACLK_SetModeRegister\000"
 4589      44656C53 
 4589      69675F31 
 4589      5F746865 
 4589      41434C4B 
 4590              	.LASF69:
 4591 04d8 61646343 		.ascii	"adcCounts\000"
 4591      6F756E74 
 4591      7300
 4592              	.LASF36:
 4593 04e2 4144435F 		.ascii	"ADC_DelSig_1_GainCompensation\000"
 4593      44656C53 
 4593      69675F31 
 4593      5F476169 
 4593      6E436F6D 
 4594              	.LASF39:
 4595 0500 656E6162 		.ascii	"enableInterrupts\000"
 4595      6C65496E 
 4595      74657272 
 4595      75707473 
 4595      00
 4596              	.LASF58:
 4597 0511 4144435F 		.ascii	"ADC_DelSig_1_IsEndConversion\000"
 4597      44656C53 
 4597      69675F31 
 4597      5F497345 
 4597      6E64436F 
 4598              	.LASF53:
 4599 052e 4144435F 		.ascii	"ADC_DelSig_1_SetGCOR\000"
 4599      44656C53 
 4599      69675F31 
 4599      5F536574 
 4599      47434F52 
 4600              	.LASF55:
 4601 0543 6756616C 		.ascii	"gValue\000"
 4601      756500
 4602              	.LASF51:
 4603 054a 73746174 		.ascii	"status\000"
 4603      757300
 4604              	.LASF98:
 4605 0551 474E5520 		.ascii	"GNU C 4.9.3 20150303 (release) [ARM/embedded-4_9-br"
ARM GAS  C:\Users\HANNAL~1\AppData\Local\Temp\ccGbhEeb.s 			page 122


 4605      4320342E 
 4605      392E3320 
 4605      32303135 
 4605      30333033 
 4606 0584 616E6368 		.ascii	"anch revision 221220] -mcpu=cortex-m3 -mthumb -g -O"
 4606      20726576 
 4606      6973696F 
 4606      6E203232 
 4606      31323230 
 4607 05b7 67202D66 		.ascii	"g -ffunction-sections -ffat-lto-objects\000"
 4607      66756E63 
 4607      74696F6E 
 4607      2D736563 
 4607      74696F6E 
 4608              	.LASF50:
 4609 05df 6761696E 		.ascii	"gainAdjust\000"
 4609      41646A75 
 4609      737400
 4610              	.LASF43:
 4611 05ea 4144435F 		.ascii	"ADC_DelSig_1_Start\000"
 4611      44656C53 
 4611      69675F31 
 4611      5F537461 
 4611      727400
 4612              	.LASF14:
 4613 05fd 696E7431 		.ascii	"int16\000"
 4613      3600
 4614              	.LASF57:
 4615 0603 4144435F 		.ascii	"ADC_DelSig_1_StopConvert\000"
 4615      44656C53 
 4615      69675F31 
 4615      5F53746F 
 4615      70436F6E 
 4616              	.LASF93:
 4617 061c 4144435F 		.ascii	"ADC_DelSig_1_AMux_Select\000"
 4617      44656C53 
 4617      69675F31 
 4617      5F414D75 
 4617      785F5365 
 4618              	.LASF66:
 4619 0635 4144435F 		.ascii	"ADC_DelSig_1_SetGain\000"
 4619      44656C53 
 4619      69675F31 
 4619      5F536574 
 4619      4761696E 
 4620              	.LASF80:
 4621 064a 4144435F 		.ascii	"ADC_DelSig_1_Read16\000"
 4621      44656C53 
 4621      69675F31 
 4621      5F526561 
 4621      64313600 
 4622              	.LASF68:
 4623 065e 4144435F 		.ascii	"ADC_DelSig_1_CountsTo_mVolts\000"
 4623      44656C53 
 4623      69675F31 
 4623      5F436F75 
 4623      6E747354 
ARM GAS  C:\Users\HANNAL~1\AppData\Local\Temp\ccGbhEeb.s 			page 123


 4624              	.LASF100:
 4625 067b 433A5C55 		.ascii	"C:\\Users\\Hanna Lee\\Documents\\PSoC Creator\\fina"
 4625      73657273 
 4625      5C48616E 
 4625      6E61204C 
 4625      65655C44 
 4626 06a9 6C5F7072 		.ascii	"l_project\\MiniPsocRF.cydsn\000"
 4626      6F6A6563 
 4626      745C4D69 
 4626      6E695073 
 4626      6F635246 
 4627              	.LASF45:
 4628 06c4 4144435F 		.ascii	"ADC_DelSig_1_SetBufferGain\000"
 4628      44656C53 
 4628      69675F31 
 4628      5F536574 
 4628      42756666 
 4629              	.LASF47:
 4630 06df 746D7052 		.ascii	"tmpReg\000"
 4630      656700
 4631              	.LASF79:
 4632 06e6 4144435F 		.ascii	"ADC_DelSig_1_Read8\000"
 4632      44656C53 
 4632      69675F31 
 4632      5F526561 
 4632      643800
 4633              	.LASF61:
 4634 06f9 72657375 		.ascii	"result\000"
 4634      6C7400
 4635              	.LASF85:
 4636 0700 4144435F 		.ascii	"ADC_DelSig_1_stopConversion\000"
 4636      44656C53 
 4636      69675F31 
 4636      5F73746F 
 4636      70436F6E 
 4637              	.LASF54:
 4638 071c 4144435F 		.ascii	"ADC_DelSig_1_ReadGCOR\000"
 4638      44656C53 
 4638      69675F31 
 4638      5F526561 
 4638      6447434F 
 4639              	.LASF82:
 4640 0732 4144435F 		.ascii	"ADC_DelSig_1_gcor\000"
 4640      44656C53 
 4640      69675F31 
 4640      5F67636F 
 4640      7200
 4641              		.ident	"GCC: (GNU Tools for ARM Embedded Processors) 4.9.3 20150303 (release) [ARM/embedded-4_9-br
