ARM GAS  C:\Users\HANNAL~1\AppData\Local\Temp\ccO1bUUU.s 			page 1


   1              		.syntax unified
   2              		.cpu cortex-m3
   3              		.fpu softvfp
   4              		.eabi_attribute 20, 1
   5              		.eabi_attribute 21, 1
   6              		.eabi_attribute 23, 3
   7              		.eabi_attribute 24, 1
   8              		.eabi_attribute 25, 1
   9              		.eabi_attribute 26, 1
  10              		.eabi_attribute 30, 1
  11              		.eabi_attribute 34, 1
  12              		.eabi_attribute 18, 4
  13              		.thumb
  14              		.file	"main.c"
  15              		.text
  16              	.Ltext0:
  17              		.cfi_sections	.debug_frame
  18              		.section	.text.adcToDac,"ax",%progbits
  19              		.align	2
  20              		.global	adcToDac
  21              		.thumb
  22              		.thumb_func
  23              		.type	adcToDac, %function
  24              	adcToDac:
  25              	.LFB66:
  26              		.file 1 ".\\main.c"
   1:.\main.c      **** /* ========================================
   2:.\main.c      ****  *
   3:.\main.c      ****  * Copyright YOUR COMPANY, THE YEAR
   4:.\main.c      ****  * All Rights Reserved
   5:.\main.c      ****  * UNPUBLISHED, LICENSED SOFTWARE.
   6:.\main.c      ****  *
   7:.\main.c      ****  * CONFIDENTIAL AND PROPRIETARY INFORMATION
   8:.\main.c      ****  * WHICH IS THE PROPERTY OF your company.
   9:.\main.c      ****  *
  10:.\main.c      ****  * ========================================
  11:.\main.c      **** */
  12:.\main.c      **** #include <project.h>
  13:.\main.c      **** #include <nrf.h>
  14:.\main.c      **** #include <stdio.h>
  15:.\main.c      **** 
  16:.\main.c      **** // Declare functions
  17:.\main.c      **** uint8 readRegister(uint8 reg);
  18:.\main.c      **** void writeRegister(uint8 reg, uint8 data);
  19:.\main.c      **** void adcToDac();
  20:.\main.c      **** void echoUART();
  21:.\main.c      **** void setup();
  22:.\main.c      **** void blink();
  23:.\main.c      **** void printByte(uint8 byte);
  24:.\main.c      **** void print(char* string);
  25:.\main.c      **** void csn(uint8 value);
  26:.\main.c      **** 
  27:.\main.c      **** // Declare global variables
  28:.\main.c      **** uint8 psocByte;
  29:.\main.c      **** uint8 statusByte; // status byte from NRF24L01
  30:.\main.c      **** uint8 adcValue;
  31:.\main.c      **** char printbuf[8]; // buffer used to print things to the PC
ARM GAS  C:\Users\HANNAL~1\AppData\Local\Temp\ccO1bUUU.s 			page 2


  32:.\main.c      **** 
  33:.\main.c      **** // Begin main program
  34:.\main.c      **** int main()
  35:.\main.c      **** {
  36:.\main.c      ****     CyGlobalIntEnable; /* Enable global interrupts. */
  37:.\main.c      **** 
  38:.\main.c      ****     /* Place your initialization/startup code here (e.g. MyInst_Start()) */
  39:.\main.c      ****     setup();
  40:.\main.c      ****     VDAC8_1_Wakeup();
  41:.\main.c      ****     for(;;)
  42:.\main.c      ****     {
  43:.\main.c      ****         // Ferry values from the ADC to the DAC to test the playback system
  44:.\main.c      ****         // adcToDac();
  45:.\main.c      ****         VDAC8_1_SetValue(255);
  46:.\main.c      ****         CyDelay(1);
  47:.\main.c      ****         VDAC8_1_SetValue(0);
  48:.\main.c      ****         CyDelay(1);
  49:.\main.c      ****     }
  50:.\main.c      **** }
  51:.\main.c      **** 
  52:.\main.c      **** // Reads a register from the NRF24L01
  53:.\main.c      **** uint8 readRegister(uint8 reg) {
  54:.\main.c      ****     uint8 temp;
  55:.\main.c      ****     // Set CSN high to let NRF know we are starting a new command
  56:.\main.c      ****     csn(0);
  57:.\main.c      ****     // Write command to read given register from NRF24L01
  58:.\main.c      ****     SPIM_1_WriteTxData(R_REGISTER | (REGISTER_MASK & reg));
  59:.\main.c      ****     // Wait for NRF24L01 to respond 
  60:.\main.c      ****     while (SPIM_1_GetRxBufferSize() < 1);
  61:.\main.c      ****     SPIM_1_WriteTxData(0xff);
  62:.\main.c      ****     // First byte is the status byte
  63:.\main.c      ****     statusByte = SPIM_1_ReadRxData();
  64:.\main.c      ****     // Second byte is the contents of the register.
  65:.\main.c      ****     temp = SPIM_1_ReadRxData();
  66:.\main.c      ****     printByte(temp);
  67:.\main.c      ****     // Must set CSN high again so that when we call another command
  68:.\main.c      ****     // the NRF sees a high->low transition
  69:.\main.c      ****     csn(1);
  70:.\main.c      ****     return temp;
  71:.\main.c      **** }
  72:.\main.c      **** 
  73:.\main.c      **** // Writes to a register on the NRF24L01
  74:.\main.c      **** void writeRegister(uint8 reg, uint8 data) {
  75:.\main.c      ****     // Pull chip select low to trigger a new command for NRF42L01
  76:.\main.c      ****     csn(0);
  77:.\main.c      ****     
  78:.\main.c      ****     // Write command to read a register
  79:.\main.c      ****     SPIM_1_WriteTxData(W_REGISTER | (REGISTER_MASK & reg));
  80:.\main.c      ****     // Wait for SPI master to finish sending
  81:.\main.c      ****     while((SPIM_1_ReadTxStatus() & SPIM_1_STS_SPI_DONE) != 1);
  82:.\main.c      ****     // Write the data to that register
  83:.\main.c      ****     SPIM_1_WriteTxData(data);
  84:.\main.c      ****     // Wait for SPI master to finish sending
  85:.\main.c      ****     while((SPIM_1_ReadTxStatus() & SPIM_1_STS_SPI_DONE) != 1)
  86:.\main.c      ****     
  87:.\main.c      ****     // Flush buffer because writing a command makes NRF24L01 return status register
  88:.\main.c      ****     // and we don't want that sitting in the Rx buffer the next time we try to read something.
ARM GAS  C:\Users\HANNAL~1\AppData\Local\Temp\ccO1bUUU.s 			page 3


  89:.\main.c      ****     SPIM_1_ClearRxBuffer();
  90:.\main.c      ****     
  91:.\main.c      ****     // Set chip select high again so the next time we pull it low it triggers a command
  92:.\main.c      ****     csn(1);
  93:.\main.c      **** }
  94:.\main.c      **** 
  95:.\main.c      **** // Reads values from the ADC and sends it to the DAC
  96:.\main.c      **** void adcToDac() {
  27              		.loc 1 96 0
  28              		.cfi_startproc
  29              		@ Volatile: function does not return.
  30              		@ args = 0, pretend = 0, frame = 0
  31              		@ frame_needed = 0, uses_anonymous_args = 0
  32 0000 08B5     		push	{r3, lr}
  33              		.cfi_def_cfa_offset 8
  34              		.cfi_offset 3, -8
  35              		.cfi_offset 14, -4
  97:.\main.c      ****     VDAC8_1_Wakeup(); // Wake the DAC up
  36              		.loc 1 97 0
  37 0002 FFF7FEFF 		bl	VDAC8_1_Wakeup
  38              	.LVL0:
  39              	.L2:
  98:.\main.c      ****     while(1) {
  99:.\main.c      ****         // Wait for ADC to finish a conversion
 100:.\main.c      ****         while(!ADC_DelSig_1_IsEndConversion(ADC_DelSig_1_WAIT_FOR_RESULT));
  40              		.loc 1 100 0 discriminator 1
  41 0006 0020     		movs	r0, #0
  42 0008 FFF7FEFF 		bl	ADC_DelSig_1_IsEndConversion
  43              	.LVL1:
  44 000c 0028     		cmp	r0, #0
  45 000e FAD0     		beq	.L2
 101:.\main.c      ****         adcValue = ADC_DelSig_1_GetResult8();
  46              		.loc 1 101 0
  47 0010 FFF7FEFF 		bl	ADC_DelSig_1_GetResult8
  48              	.LVL2:
  49 0014 C0B2     		uxtb	r0, r0
  50 0016 024B     		ldr	r3, .L5
  51 0018 1870     		strb	r0, [r3]
 102:.\main.c      ****         // Write DAC value
 103:.\main.c      ****         VDAC8_1_SetValue(adcValue);
  52              		.loc 1 103 0
  53 001a FFF7FEFF 		bl	VDAC8_1_SetValue
  54              	.LVL3:
 104:.\main.c      ****     }  
  55              		.loc 1 104 0
  56 001e F2E7     		b	.L2
  57              	.L6:
  58              		.align	2
  59              	.L5:
  60 0020 00000000 		.word	adcValue
  61              		.cfi_endproc
  62              	.LFE66:
  63              		.size	adcToDac, .-adcToDac
  64              		.section	.text.echoUART,"ax",%progbits
  65              		.align	2
  66              		.global	echoUART
  67              		.thumb
ARM GAS  C:\Users\HANNAL~1\AppData\Local\Temp\ccO1bUUU.s 			page 4


  68              		.thumb_func
  69              		.type	echoUART, %function
  70              	echoUART:
  71              	.LFB67:
 105:.\main.c      **** }
 106:.\main.c      **** 
 107:.\main.c      **** // Waits for and echoes one character from the PC
 108:.\main.c      **** void echoUART() {
  72              		.loc 1 108 0
  73              		.cfi_startproc
  74              		@ args = 0, pretend = 0, frame = 0
  75              		@ frame_needed = 0, uses_anonymous_args = 0
  76 0000 08B5     		push	{r3, lr}
  77              		.cfi_def_cfa_offset 8
  78              		.cfi_offset 3, -8
  79              		.cfi_offset 14, -4
  80              	.L8:
 109:.\main.c      ****     // Wait until we receive a character
 110:.\main.c      ****     // Wait for Rx FIFO to be not empty
 111:.\main.c      ****     while(~UART_1_ReadRxStatus() & UART_1_RX_STS_FIFO_NOTEMPTY);
  81              		.loc 1 111 0 discriminator 1
  82 0002 FFF7FEFF 		bl	UART_1_ReadRxStatus
  83              	.LVL4:
  84 0006 10F0200F 		tst	r0, #32
  85 000a FAD0     		beq	.L8
 112:.\main.c      ****     psocByte = UART_1_GetChar();
  86              		.loc 1 112 0
  87 000c FFF7FEFF 		bl	UART_1_GetChar
  88              	.LVL5:
  89 0010 044B     		ldr	r3, .L11
  90 0012 1870     		strb	r0, [r3]
 113:.\main.c      ****     
 114:.\main.c      ****     UART_1_PutChar(psocByte);
  91              		.loc 1 114 0
  92 0014 FFF7FEFF 		bl	UART_1_PutChar
  93              	.LVL6:
  94              	.L9:
 115:.\main.c      ****     // Wait for transmission to complete
 116:.\main.c      ****     while(~UART_1_ReadTxStatus() & UART_1_TX_STS_COMPLETE);
  95              		.loc 1 116 0 discriminator 1
  96 0018 FFF7FEFF 		bl	UART_1_ReadTxStatus
  97              	.LVL7:
  98 001c 10F0010F 		tst	r0, #1
  99 0020 FAD0     		beq	.L9
 117:.\main.c      **** }
 100              		.loc 1 117 0
 101 0022 08BD     		pop	{r3, pc}
 102              	.L12:
 103              		.align	2
 104              	.L11:
 105 0024 00000000 		.word	psocByte
 106              		.cfi_endproc
 107              	.LFE67:
 108              		.size	echoUART, .-echoUART
 109              		.section	.text.setup,"ax",%progbits
 110              		.align	2
 111              		.global	setup
ARM GAS  C:\Users\HANNAL~1\AppData\Local\Temp\ccO1bUUU.s 			page 5


 112              		.thumb
 113              		.thumb_func
 114              		.type	setup, %function
 115              	setup:
 116              	.LFB68:
 118:.\main.c      **** 
 119:.\main.c      **** void setup() {
 117              		.loc 1 119 0
 118              		.cfi_startproc
 119              		@ args = 0, pretend = 0, frame = 0
 120              		@ frame_needed = 0, uses_anonymous_args = 0
 121 0000 08B5     		push	{r3, lr}
 122              		.cfi_def_cfa_offset 8
 123              		.cfi_offset 3, -8
 124              		.cfi_offset 14, -4
 120:.\main.c      ****     // Set up UART component
 121:.\main.c      ****     UART_1_Start();
 125              		.loc 1 121 0
 126 0002 FFF7FEFF 		bl	UART_1_Start
 127              	.LVL8:
 122:.\main.c      ****     UART_1_SetRxInterruptMode(UART_1_RX_STS_FIFO_NOTEMPTY);
 128              		.loc 1 122 0
 129 0006 2020     		movs	r0, #32
 130 0008 FFF7FEFF 		bl	UART_1_SetRxInterruptMode
 131              	.LVL9:
 123:.\main.c      ****     UART_1_SetTxInterruptMode(UART_1_TX_STS_COMPLETE);
 132              		.loc 1 123 0
 133 000c 0120     		movs	r0, #1
 134 000e FFF7FEFF 		bl	UART_1_SetTxInterruptMode
 135              	.LVL10:
 124:.\main.c      ****     // Clear buffers
 125:.\main.c      ****     UART_1_ClearRxBuffer();
 136              		.loc 1 125 0
 137 0012 FFF7FEFF 		bl	UART_1_ClearRxBuffer
 138              	.LVL11:
 126:.\main.c      ****     UART_1_ClearTxBuffer();
 139              		.loc 1 126 0
 140 0016 FFF7FEFF 		bl	UART_1_ClearTxBuffer
 141              	.LVL12:
 127:.\main.c      ****     // Enable certain interrupts for UART so we can tell when
 128:.\main.c      ****     // we've received a byte or when a transmission is complete
 129:.\main.c      ****     UART_1_SetRxInterruptMode(UART_1_RX_STS_FIFO_NOTEMPTY);
 142              		.loc 1 129 0
 143 001a 2020     		movs	r0, #32
 144 001c FFF7FEFF 		bl	UART_1_SetRxInterruptMode
 145              	.LVL13:
 130:.\main.c      ****     UART_1_SetTxInterruptMode(UART_1_TX_STS_COMPLETE);
 146              		.loc 1 130 0
 147 0020 0120     		movs	r0, #1
 148 0022 FFF7FEFF 		bl	UART_1_SetTxInterruptMode
 149              	.LVL14:
 131:.\main.c      ****     
 132:.\main.c      ****     // Set up SPI Master
 133:.\main.c      ****     SPIM_1_Start();
 150              		.loc 1 133 0
 151 0026 FFF7FEFF 		bl	SPIM_1_Start
 152              	.LVL15:
ARM GAS  C:\Users\HANNAL~1\AppData\Local\Temp\ccO1bUUU.s 			page 6


 134:.\main.c      ****     // Clear buffers
 135:.\main.c      ****     SPIM_1_ClearRxBuffer();
 153              		.loc 1 135 0
 154 002a FFF7FEFF 		bl	SPIM_1_ClearRxBuffer
 155              	.LVL16:
 136:.\main.c      ****     SPIM_1_ClearTxBuffer();
 156              		.loc 1 136 0
 157 002e FFF7FEFF 		bl	SPIM_1_ClearTxBuffer
 158              	.LVL17:
 137:.\main.c      ****     
 138:.\main.c      ****     // Set up ADC
 139:.\main.c      ****     ADC_DelSig_1_Start();				
 159              		.loc 1 139 0
 160 0032 FFF7FEFF 		bl	ADC_DelSig_1_Start
 161              	.LVL18:
 140:.\main.c      **** 	ADC_DelSig_1_StartConvert();
 162              		.loc 1 140 0
 163 0036 FFF7FEFF 		bl	ADC_DelSig_1_StartConvert
 164              	.LVL19:
 141:.\main.c      ****     
 142:.\main.c      ****     // Set up DAC
 143:.\main.c      ****     VDAC8_1_Start();
 165              		.loc 1 143 0
 166 003a FFF7FEFF 		bl	VDAC8_1_Start
 167              	.LVL20:
 144:.\main.c      ****     VDAC8_1_Sleep(); // Don't want DAC to do anything yet
 168              		.loc 1 144 0
 169 003e FFF7FEFF 		bl	VDAC8_1_Sleep
 170              	.LVL21:
 145:.\main.c      ****     
 146:.\main.c      ****     // Turn on LED
 147:.\main.c      ****     Pin_1_Write(1);
 171              		.loc 1 147 0
 172 0042 0120     		movs	r0, #1
 173 0044 FFF7FEFF 		bl	Pin_1_Write
 174              	.LVL22:
 175 0048 08BD     		pop	{r3, pc}
 176              		.cfi_endproc
 177              	.LFE68:
 178              		.size	setup, .-setup
 179 004a 00BF     		.section	.text.main,"ax",%progbits
 180              		.align	2
 181              		.global	main
 182              		.thumb
 183              		.thumb_func
 184              		.type	main, %function
 185              	main:
 186              	.LFB63:
  35:.\main.c      ****     CyGlobalIntEnable; /* Enable global interrupts. */
 187              		.loc 1 35 0
 188              		.cfi_startproc
 189              		@ Volatile: function does not return.
 190              		@ args = 0, pretend = 0, frame = 0
 191              		@ frame_needed = 0, uses_anonymous_args = 0
 192 0000 08B5     		push	{r3, lr}
 193              		.cfi_def_cfa_offset 8
 194              		.cfi_offset 3, -8
ARM GAS  C:\Users\HANNAL~1\AppData\Local\Temp\ccO1bUUU.s 			page 7


 195              		.cfi_offset 14, -4
  36:.\main.c      **** 
 196              		.loc 1 36 0
 197              	@ 36 ".\main.c" 1
 198 0002 62B6     		CPSIE   i
 199              	@ 0 "" 2
  39:.\main.c      ****     VDAC8_1_Wakeup();
 200              		.loc 1 39 0
 201              		.thumb
 202 0004 FFF7FEFF 		bl	setup
 203              	.LVL23:
  40:.\main.c      ****     for(;;)
 204              		.loc 1 40 0
 205 0008 FFF7FEFF 		bl	VDAC8_1_Wakeup
 206              	.LVL24:
 207              	.L16:
  45:.\main.c      ****         CyDelay(1);
 208              		.loc 1 45 0 discriminator 1
 209 000c FF20     		movs	r0, #255
 210 000e FFF7FEFF 		bl	VDAC8_1_SetValue
 211              	.LVL25:
  46:.\main.c      ****         VDAC8_1_SetValue(0);
 212              		.loc 1 46 0 discriminator 1
 213 0012 0120     		movs	r0, #1
 214 0014 FFF7FEFF 		bl	CyDelay
 215              	.LVL26:
  47:.\main.c      ****         CyDelay(1);
 216              		.loc 1 47 0 discriminator 1
 217 0018 0020     		movs	r0, #0
 218 001a FFF7FEFF 		bl	VDAC8_1_SetValue
 219              	.LVL27:
  48:.\main.c      ****     }
 220              		.loc 1 48 0 discriminator 1
 221 001e 0120     		movs	r0, #1
 222 0020 FFF7FEFF 		bl	CyDelay
 223              	.LVL28:
  49:.\main.c      **** }
 224              		.loc 1 49 0 discriminator 1
 225 0024 F2E7     		b	.L16
 226              		.cfi_endproc
 227              	.LFE63:
 228              		.size	main, .-main
 229 0026 00BF     		.section	.text.print,"ax",%progbits
 230              		.align	2
 231              		.global	print
 232              		.thumb
 233              		.thumb_func
 234              		.type	print, %function
 235              	print:
 236              	.LFB70:
 148:.\main.c      **** }
 149:.\main.c      **** 
 150:.\main.c      **** // Prints a byte to the PC via UART
 151:.\main.c      **** void printByte(uint8 byte) {
 152:.\main.c      ****     snprintf(printbuf, 8, "%u", byte);
 153:.\main.c      ****     print(printbuf);
 154:.\main.c      **** }
ARM GAS  C:\Users\HANNAL~1\AppData\Local\Temp\ccO1bUUU.s 			page 8


 155:.\main.c      **** 
 156:.\main.c      **** // Prints a string to the PC
 157:.\main.c      **** void print(char * string) {
 237              		.loc 1 157 0
 238              		.cfi_startproc
 239              		@ args = 0, pretend = 0, frame = 0
 240              		@ frame_needed = 0, uses_anonymous_args = 0
 241              	.LVL29:
 242 0000 08B5     		push	{r3, lr}
 243              		.cfi_def_cfa_offset 8
 244              		.cfi_offset 3, -8
 245              		.cfi_offset 14, -4
 158:.\main.c      ****     UART_1_PutString(string);
 246              		.loc 1 158 0
 247 0002 FFF7FEFF 		bl	UART_1_PutString
 248              	.LVL30:
 159:.\main.c      ****     UART_1_PutString("\n\r");
 249              		.loc 1 159 0
 250 0006 0448     		ldr	r0, .L21
 251 0008 FFF7FEFF 		bl	UART_1_PutString
 252              	.LVL31:
 253              	.L19:
 160:.\main.c      ****     // Wait for it to finish sending
 161:.\main.c      ****     while(~UART_1_ReadTxStatus() & UART_1_TX_STS_COMPLETE);
 254              		.loc 1 161 0 discriminator 1
 255 000c FFF7FEFF 		bl	UART_1_ReadTxStatus
 256              	.LVL32:
 257 0010 10F0010F 		tst	r0, #1
 258 0014 FAD0     		beq	.L19
 162:.\main.c      **** }
 259              		.loc 1 162 0
 260 0016 08BD     		pop	{r3, pc}
 261              	.L22:
 262              		.align	2
 263              	.L21:
 264 0018 00000000 		.word	.LC0
 265              		.cfi_endproc
 266              	.LFE70:
 267              		.size	print, .-print
 268              		.section	.text.printByte,"ax",%progbits
 269              		.align	2
 270              		.global	printByte
 271              		.thumb
 272              		.thumb_func
 273              		.type	printByte, %function
 274              	printByte:
 275              	.LFB69:
 151:.\main.c      ****     snprintf(printbuf, 8, "%u", byte);
 276              		.loc 1 151 0
 277              		.cfi_startproc
 278              		@ args = 0, pretend = 0, frame = 0
 279              		@ frame_needed = 0, uses_anonymous_args = 0
 280              	.LVL33:
 281 0000 10B5     		push	{r4, lr}
 282              		.cfi_def_cfa_offset 8
 283              		.cfi_offset 4, -8
 284              		.cfi_offset 14, -4
ARM GAS  C:\Users\HANNAL~1\AppData\Local\Temp\ccO1bUUU.s 			page 9


 285 0002 0346     		mov	r3, r0
 152:.\main.c      ****     print(printbuf);
 286              		.loc 1 152 0
 287 0004 044C     		ldr	r4, .L25
 288 0006 2046     		mov	r0, r4
 289              	.LVL34:
 290 0008 0821     		movs	r1, #8
 291 000a 044A     		ldr	r2, .L25+4
 292 000c FFF7FEFF 		bl	snprintf
 293              	.LVL35:
 153:.\main.c      **** }
 294              		.loc 1 153 0
 295 0010 2046     		mov	r0, r4
 296 0012 FFF7FEFF 		bl	print
 297              	.LVL36:
 298 0016 10BD     		pop	{r4, pc}
 299              	.L26:
 300              		.align	2
 301              	.L25:
 302 0018 00000000 		.word	printbuf
 303 001c 04000000 		.word	.LC1
 304              		.cfi_endproc
 305              	.LFE69:
 306              		.size	printByte, .-printByte
 307              		.section	.text.csn,"ax",%progbits
 308              		.align	2
 309              		.global	csn
 310              		.thumb
 311              		.thumb_func
 312              		.type	csn, %function
 313              	csn:
 314              	.LFB71:
 163:.\main.c      **** 
 164:.\main.c      **** // Write to chip select of SPI Master
 165:.\main.c      **** void csn(uint8 value) {
 315              		.loc 1 165 0
 316              		.cfi_startproc
 317              		@ args = 0, pretend = 0, frame = 0
 318              		@ frame_needed = 0, uses_anonymous_args = 0
 319              	.LVL37:
 320 0000 08B5     		push	{r3, lr}
 321              		.cfi_def_cfa_offset 8
 322              		.cfi_offset 3, -8
 323              		.cfi_offset 14, -4
 166:.\main.c      ****     CSN_Write(value);
 324              		.loc 1 166 0
 325 0002 FFF7FEFF 		bl	CSN_Write
 326              	.LVL38:
 327 0006 08BD     		pop	{r3, pc}
 328              		.cfi_endproc
 329              	.LFE71:
 330              		.size	csn, .-csn
 331              		.section	.text.readRegister,"ax",%progbits
 332              		.align	2
 333              		.global	readRegister
 334              		.thumb
 335              		.thumb_func
ARM GAS  C:\Users\HANNAL~1\AppData\Local\Temp\ccO1bUUU.s 			page 10


 336              		.type	readRegister, %function
 337              	readRegister:
 338              	.LFB64:
  53:.\main.c      ****     uint8 temp;
 339              		.loc 1 53 0
 340              		.cfi_startproc
 341              		@ args = 0, pretend = 0, frame = 0
 342              		@ frame_needed = 0, uses_anonymous_args = 0
 343              	.LVL39:
 344 0000 10B5     		push	{r4, lr}
 345              		.cfi_def_cfa_offset 8
 346              		.cfi_offset 4, -8
 347              		.cfi_offset 14, -4
 348 0002 0446     		mov	r4, r0
  56:.\main.c      ****     // Write command to read given register from NRF24L01
 349              		.loc 1 56 0
 350 0004 0020     		movs	r0, #0
 351              	.LVL40:
 352 0006 FFF7FEFF 		bl	csn
 353              	.LVL41:
  58:.\main.c      ****     // Wait for NRF24L01 to respond 
 354              		.loc 1 58 0
 355 000a 04F01F00 		and	r0, r4, #31
 356 000e FFF7FEFF 		bl	SPIM_1_WriteTxData
 357              	.LVL42:
 358              	.L30:
  60:.\main.c      ****     SPIM_1_WriteTxData(0xff);
 359              		.loc 1 60 0 discriminator 1
 360 0012 FFF7FEFF 		bl	SPIM_1_GetRxBufferSize
 361              	.LVL43:
 362 0016 0028     		cmp	r0, #0
 363 0018 FBD0     		beq	.L30
  61:.\main.c      ****     // First byte is the status byte
 364              		.loc 1 61 0
 365 001a FF20     		movs	r0, #255
 366 001c FFF7FEFF 		bl	SPIM_1_WriteTxData
 367              	.LVL44:
  63:.\main.c      ****     // Second byte is the contents of the register.
 368              		.loc 1 63 0
 369 0020 FFF7FEFF 		bl	SPIM_1_ReadRxData
 370              	.LVL45:
 371 0024 054B     		ldr	r3, .L32
 372 0026 1870     		strb	r0, [r3]
  65:.\main.c      ****     printByte(temp);
 373              		.loc 1 65 0
 374 0028 FFF7FEFF 		bl	SPIM_1_ReadRxData
 375              	.LVL46:
 376 002c 0446     		mov	r4, r0
 377              	.LVL47:
  66:.\main.c      ****     // Must set CSN high again so that when we call another command
 378              		.loc 1 66 0
 379 002e FFF7FEFF 		bl	printByte
 380              	.LVL48:
  69:.\main.c      ****     return temp;
 381              		.loc 1 69 0
 382 0032 0120     		movs	r0, #1
 383 0034 FFF7FEFF 		bl	csn
ARM GAS  C:\Users\HANNAL~1\AppData\Local\Temp\ccO1bUUU.s 			page 11


 384              	.LVL49:
  71:.\main.c      **** 
 385              		.loc 1 71 0
 386 0038 2046     		mov	r0, r4
 387 003a 10BD     		pop	{r4, pc}
 388              	.LVL50:
 389              	.L33:
 390              		.align	2
 391              	.L32:
 392 003c 00000000 		.word	statusByte
 393              		.cfi_endproc
 394              	.LFE64:
 395              		.size	readRegister, .-readRegister
 396              		.section	.text.writeRegister,"ax",%progbits
 397              		.align	2
 398              		.global	writeRegister
 399              		.thumb
 400              		.thumb_func
 401              		.type	writeRegister, %function
 402              	writeRegister:
 403              	.LFB65:
  74:.\main.c      ****     // Pull chip select low to trigger a new command for NRF42L01
 404              		.loc 1 74 0
 405              		.cfi_startproc
 406              		@ args = 0, pretend = 0, frame = 0
 407              		@ frame_needed = 0, uses_anonymous_args = 0
 408              	.LVL51:
 409 0000 38B5     		push	{r3, r4, r5, lr}
 410              		.cfi_def_cfa_offset 16
 411              		.cfi_offset 3, -16
 412              		.cfi_offset 4, -12
 413              		.cfi_offset 5, -8
 414              		.cfi_offset 14, -4
 415 0002 0446     		mov	r4, r0
 416 0004 0D46     		mov	r5, r1
  76:.\main.c      ****     
 417              		.loc 1 76 0
 418 0006 0020     		movs	r0, #0
 419              	.LVL52:
 420 0008 FFF7FEFF 		bl	csn
 421              	.LVL53:
  79:.\main.c      ****     // Wait for SPI master to finish sending
 422              		.loc 1 79 0
 423 000c 04F01F00 		and	r0, r4, #31
 424 0010 40F02000 		orr	r0, r0, #32
 425 0014 FFF7FEFF 		bl	SPIM_1_WriteTxData
 426              	.LVL54:
 427              	.L35:
  81:.\main.c      ****     // Write the data to that register
 428              		.loc 1 81 0 discriminator 1
 429 0018 FFF7FEFF 		bl	SPIM_1_ReadTxStatus
 430              	.LVL55:
 431 001c 10F0010F 		tst	r0, #1
 432 0020 FAD0     		beq	.L35
  83:.\main.c      ****     // Wait for SPI master to finish sending
 433              		.loc 1 83 0
 434 0022 2846     		mov	r0, r5
ARM GAS  C:\Users\HANNAL~1\AppData\Local\Temp\ccO1bUUU.s 			page 12


 435 0024 FFF7FEFF 		bl	SPIM_1_WriteTxData
 436              	.LVL56:
  85:.\main.c      ****     
 437              		.loc 1 85 0
 438 0028 01E0     		b	.L36
 439              	.L37:
  89:.\main.c      ****     
 440              		.loc 1 89 0
 441 002a FFF7FEFF 		bl	SPIM_1_ClearRxBuffer
 442              	.LVL57:
 443              	.L36:
  85:.\main.c      ****     
 444              		.loc 1 85 0
 445 002e FFF7FEFF 		bl	SPIM_1_ReadTxStatus
 446              	.LVL58:
 447 0032 10F0010F 		tst	r0, #1
 448 0036 F8D0     		beq	.L37
  92:.\main.c      **** }
 449              		.loc 1 92 0
 450 0038 0120     		movs	r0, #1
 451 003a FFF7FEFF 		bl	csn
 452              	.LVL59:
 453 003e 38BD     		pop	{r3, r4, r5, pc}
 454              		.cfi_endproc
 455              	.LFE65:
 456              		.size	writeRegister, .-writeRegister
 457              		.section	.text.blink,"ax",%progbits
 458              		.align	2
 459              		.global	blink
 460              		.thumb
 461              		.thumb_func
 462              		.type	blink, %function
 463              	blink:
 464              	.LFB72:
 167:.\main.c      **** }
 168:.\main.c      **** 
 169:.\main.c      **** void blink() {
 465              		.loc 1 169 0
 466              		.cfi_startproc
 467              		@ args = 0, pretend = 0, frame = 0
 468              		@ frame_needed = 0, uses_anonymous_args = 0
 469 0000 08B5     		push	{r3, lr}
 470              		.cfi_def_cfa_offset 8
 471              		.cfi_offset 3, -8
 472              		.cfi_offset 14, -4
 170:.\main.c      ****     Pin_1_Write(0);
 473              		.loc 1 170 0
 474 0002 0020     		movs	r0, #0
 475 0004 FFF7FEFF 		bl	Pin_1_Write
 476              	.LVL60:
 171:.\main.c      ****     CyDelay(500);
 477              		.loc 1 171 0
 478 0008 4FF4FA70 		mov	r0, #500
 479 000c FFF7FEFF 		bl	CyDelay
 480              	.LVL61:
 172:.\main.c      ****     Pin_1_Write(1);
 481              		.loc 1 172 0
ARM GAS  C:\Users\HANNAL~1\AppData\Local\Temp\ccO1bUUU.s 			page 13


 482 0010 0120     		movs	r0, #1
 483 0012 FFF7FEFF 		bl	Pin_1_Write
 484              	.LVL62:
 173:.\main.c      ****     CyDelay(500);
 485              		.loc 1 173 0
 486 0016 4FF4FA70 		mov	r0, #500
 487 001a FFF7FEFF 		bl	CyDelay
 488              	.LVL63:
 174:.\main.c      ****     Pin_1_Write(0);
 489              		.loc 1 174 0
 490 001e 0020     		movs	r0, #0
 491 0020 FFF7FEFF 		bl	Pin_1_Write
 492              	.LVL64:
 493 0024 08BD     		pop	{r3, pc}
 494              		.cfi_endproc
 495              	.LFE72:
 496              		.size	blink, .-blink
 497 0026 00BF     		.section	.text.blinkFast,"ax",%progbits
 498              		.align	2
 499              		.global	blinkFast
 500              		.thumb
 501              		.thumb_func
 502              		.type	blinkFast, %function
 503              	blinkFast:
 504              	.LFB73:
 175:.\main.c      **** }
 176:.\main.c      **** 
 177:.\main.c      **** void blinkFast() {
 505              		.loc 1 177 0
 506              		.cfi_startproc
 507              		@ args = 0, pretend = 0, frame = 0
 508              		@ frame_needed = 0, uses_anonymous_args = 0
 509 0000 08B5     		push	{r3, lr}
 510              		.cfi_def_cfa_offset 8
 511              		.cfi_offset 3, -8
 512              		.cfi_offset 14, -4
 178:.\main.c      ****     Pin_1_Write(0);
 513              		.loc 1 178 0
 514 0002 0020     		movs	r0, #0
 515 0004 FFF7FEFF 		bl	Pin_1_Write
 516              	.LVL65:
 179:.\main.c      ****     CyDelay(200);
 517              		.loc 1 179 0
 518 0008 C820     		movs	r0, #200
 519 000a FFF7FEFF 		bl	CyDelay
 520              	.LVL66:
 180:.\main.c      ****     Pin_1_Write(1);
 521              		.loc 1 180 0
 522 000e 0120     		movs	r0, #1
 523 0010 FFF7FEFF 		bl	Pin_1_Write
 524              	.LVL67:
 181:.\main.c      ****     CyDelay(200);
 525              		.loc 1 181 0
 526 0014 C820     		movs	r0, #200
 527 0016 FFF7FEFF 		bl	CyDelay
 528              	.LVL68:
 182:.\main.c      ****     Pin_1_Write(0);
ARM GAS  C:\Users\HANNAL~1\AppData\Local\Temp\ccO1bUUU.s 			page 14


 529              		.loc 1 182 0
 530 001a 0020     		movs	r0, #0
 531 001c FFF7FEFF 		bl	Pin_1_Write
 532              	.LVL69:
 533 0020 08BD     		pop	{r3, pc}
 534              		.cfi_endproc
 535              	.LFE73:
 536              		.size	blinkFast, .-blinkFast
 537              		.comm	printbuf,8,4
 538              		.comm	adcValue,1,1
 539              		.comm	statusByte,1,1
 540              		.comm	psocByte,1,1
 541 0022 00BF     		.section	.rodata.str1.4,"aMS",%progbits,1
 542              		.align	2
 543              	.LC0:
 544 0000 0A0D00   		.ascii	"\012\015\000"
 545 0003 00       		.space	1
 546              	.LC1:
 547 0004 257500   		.ascii	"%u\000"
 548 0007 00       		.text
 549              	.Letext0:
 550              		.file 2 "c:\\program files (x86)\\cypress\\psoc creator\\3.3\\psoc creator\\import\\gnu\\arm\\4.9.
 551              		.file 3 "c:\\program files (x86)\\cypress\\psoc creator\\3.3\\psoc creator\\import\\gnu\\arm\\4.9.
 552              		.file 4 "Generated_Source\\PSoC5/cytypes.h"
 553              		.file 5 "c:\\program files (x86)\\cypress\\psoc creator\\3.3\\psoc creator\\import\\gnu\\arm\\4.9.
 554              		.file 6 "Generated_Source\\PSoC5/core_cm3.h"
 555              		.file 7 "Generated_Source\\PSoC5/ADC_DelSig_1.h"
 556              		.file 8 "Generated_Source\\PSoC5/UART_1.h"
 557              		.file 9 "Generated_Source\\PSoC5/VDAC8_1.h"
 558              		.file 10 "Generated_Source\\PSoC5/SPIM_1.h"
 559              		.file 11 "Generated_Source\\PSoC5/Pin_1.h"
 560              		.file 12 "Generated_Source\\PSoC5/CyLib.h"
 561              		.file 13 "c:\\program files (x86)\\cypress\\psoc creator\\3.3\\psoc creator\\import\\gnu\\arm\\4.9
 562              		.file 14 "Generated_Source\\PSoC5/CSN.h"